{
 "array_types" :
 [
  {
   "alignment" : 8,
   "linker_set_key" : "AHardwareBuffer_Plane [4]",
   "name" : "AHardwareBuffer_Plane [4]",
   "referenced_type" : "type-2078",
   "self_type" : "type-2080",
   "size" : 64,
   "source_file" : "/frameworks/native/libs/nativewindow/include/android/hardware_buffer.h"
  },
  {
   "linker_set_key" : "C2ChromaOffsetStruct []",
   "name" : "C2ChromaOffsetStruct []",
   "referenced_type" : "type-3129",
   "self_type" : "type-3128",
   "source_file" : "/frameworks/av/media/codec2/core/include/C2ParamDef.h"
  },
  {
   "alignment" : 4,
   "linker_set_key" : "C2PlaneInfo [4]",
   "name" : "C2PlaneInfo [4]",
   "referenced_type" : "type-62",
   "self_type" : "type-262",
   "size" : 176,
   "source_file" : "/frameworks/av/media/codec2/core/include/C2Buffer.h"
  },
  {
   "alignment" : 1,
   "linker_set_key" : "android::MediaImage2::PlaneInfo [4]",
   "name" : "android::MediaImage2::PlaneInfo [4]",
   "referenced_type" : "type-2163",
   "self_type" : "type-2162",
   "size" : 80,
   "source_file" : "/frameworks/native/headers/media_plugin/media/hardware/VideoAPI.h"
  },
  {
   "alignment" : 4,
   "linker_set_key" : "android::MediaImage::PlaneInfo [3]",
   "name" : "android::MediaImage::PlaneInfo [3]",
   "referenced_type" : "type-2158",
   "self_type" : "type-2157",
   "size" : 60,
   "source_file" : "/frameworks/native/headers/media_plugin/media/hardware/VideoAPI.h"
  },
  {
   "alignment" : 1,
   "linker_set_key" : "char [0]",
   "name" : "char [0]",
   "referenced_type" : "type-90",
   "self_type" : "type-1887",
   "source_file" : "/system/core/liblog/include/log/log_read.h"
  },
  {
   "alignment" : 1,
   "linker_set_key" : "char [1024]",
   "name" : "char [1024]",
   "referenced_type" : "type-90",
   "self_type" : "type-2248",
   "size" : 1024,
   "source_file" : "/system/core/base/include/android-base/file.h"
  },
  {
   "alignment" : 1,
   "linker_set_key" : "char [10]",
   "name" : "char [10]",
   "referenced_type" : "type-90",
   "self_type" : "type-3165",
   "size" : 10,
   "source_file" : "/frameworks/av/media/codec2/core/include/C2Config.h"
  },
  {
   "alignment" : 1,
   "linker_set_key" : "char [11]",
   "name" : "char [11]",
   "referenced_type" : "type-90",
   "self_type" : "type-3228",
   "size" : 11,
   "source_file" : "/frameworks/av/media/codec2/core/include/C2Config.h"
  },
  {
   "alignment" : 1,
   "linker_set_key" : "char [13]",
   "name" : "char [13]",
   "referenced_type" : "type-90",
   "self_type" : "type-3168",
   "size" : 13,
   "source_file" : "/frameworks/av/media/codec2/core/include/C2Config.h"
  },
  {
   "alignment" : 1,
   "linker_set_key" : "char [14]",
   "name" : "char [14]",
   "referenced_type" : "type-90",
   "self_type" : "type-3219",
   "size" : 14,
   "source_file" : "/frameworks/av/media/codec2/core/include/C2Config.h"
  },
  {
   "alignment" : 1,
   "linker_set_key" : "char [15]",
   "name" : "char [15]",
   "referenced_type" : "type-90",
   "self_type" : "type-3170",
   "size" : 15,
   "source_file" : "/frameworks/av/media/codec2/core/include/C2Config.h"
  },
  {
   "alignment" : 1,
   "linker_set_key" : "char [16]",
   "name" : "char [16]",
   "referenced_type" : "type-90",
   "self_type" : "type-3185",
   "size" : 16,
   "source_file" : "/frameworks/av/media/codec2/core/include/C2Config.h"
  },
  {
   "alignment" : 1,
   "linker_set_key" : "char [17]",
   "name" : "char [17]",
   "referenced_type" : "type-90",
   "self_type" : "type-3174",
   "size" : 17,
   "source_file" : "/frameworks/av/media/codec2/core/include/C2Config.h"
  },
  {
   "alignment" : 1,
   "linker_set_key" : "char [18]",
   "name" : "char [18]",
   "referenced_type" : "type-90",
   "self_type" : "type-3172",
   "size" : 18,
   "source_file" : "/frameworks/av/media/codec2/core/include/C2Config.h"
  },
  {
   "alignment" : 1,
   "linker_set_key" : "char [19]",
   "name" : "char [19]",
   "referenced_type" : "type-90",
   "self_type" : "type-3199",
   "size" : 19,
   "source_file" : "/frameworks/av/media/codec2/core/include/C2Config.h"
  },
  {
   "alignment" : 1,
   "linker_set_key" : "char [20]",
   "name" : "char [20]",
   "referenced_type" : "type-90",
   "self_type" : "type-3201",
   "size" : 20,
   "source_file" : "/frameworks/av/media/codec2/core/include/C2Config.h"
  },
  {
   "alignment" : 1,
   "linker_set_key" : "char [21]",
   "name" : "char [21]",
   "referenced_type" : "type-90",
   "self_type" : "type-3177",
   "size" : 21,
   "source_file" : "/frameworks/av/media/codec2/core/include/C2Config.h"
  },
  {
   "alignment" : 1,
   "linker_set_key" : "char [22]",
   "name" : "char [22]",
   "referenced_type" : "type-90",
   "self_type" : "type-3193",
   "size" : 22,
   "source_file" : "/frameworks/av/media/codec2/core/include/C2Config.h"
  },
  {
   "alignment" : 1,
   "linker_set_key" : "char [23]",
   "name" : "char [23]",
   "referenced_type" : "type-90",
   "self_type" : "type-3195",
   "size" : 23,
   "source_file" : "/frameworks/av/media/codec2/core/include/C2Config.h"
  },
  {
   "alignment" : 1,
   "linker_set_key" : "char [24]",
   "name" : "char [24]",
   "referenced_type" : "type-90",
   "self_type" : "type-3203",
   "size" : 24,
   "source_file" : "/frameworks/av/media/codec2/core/include/C2Config.h"
  },
  {
   "alignment" : 1,
   "linker_set_key" : "char [25]",
   "name" : "char [25]",
   "referenced_type" : "type-90",
   "self_type" : "type-3197",
   "size" : 25,
   "source_file" : "/frameworks/av/media/codec2/core/include/C2Config.h"
  },
  {
   "alignment" : 1,
   "linker_set_key" : "char [26]",
   "name" : "char [26]",
   "referenced_type" : "type-90",
   "self_type" : "type-3205",
   "size" : 26,
   "source_file" : "/frameworks/av/media/codec2/core/include/C2Config.h"
  },
  {
   "alignment" : 1,
   "linker_set_key" : "char [27]",
   "name" : "char [27]",
   "referenced_type" : "type-90",
   "self_type" : "type-3207",
   "size" : 27,
   "source_file" : "/frameworks/av/media/codec2/core/include/C2Config.h"
  },
  {
   "alignment" : 1,
   "linker_set_key" : "char [28]",
   "name" : "char [28]",
   "referenced_type" : "type-90",
   "self_type" : "type-3210",
   "size" : 28,
   "source_file" : "/frameworks/av/media/codec2/core/include/C2Config.h"
  },
  {
   "alignment" : 1,
   "linker_set_key" : "char [29]",
   "name" : "char [29]",
   "referenced_type" : "type-90",
   "self_type" : "type-3212",
   "size" : 29,
   "source_file" : "/frameworks/av/media/codec2/core/include/C2Config.h"
  },
  {
   "alignment" : 1,
   "linker_set_key" : "char [30]",
   "name" : "char [30]",
   "referenced_type" : "type-90",
   "self_type" : "type-3224",
   "size" : 30,
   "source_file" : "/frameworks/av/media/codec2/core/include/C2Config.h"
  },
  {
   "alignment" : 1,
   "linker_set_key" : "char [31]",
   "name" : "char [31]",
   "referenced_type" : "type-90",
   "self_type" : "type-3191",
   "size" : 31,
   "source_file" : "/frameworks/av/media/codec2/core/include/C2Config.h"
  },
  {
   "alignment" : 1,
   "linker_set_key" : "char [35]",
   "name" : "char [35]",
   "referenced_type" : "type-90",
   "self_type" : "type-3279",
   "size" : 35,
   "source_file" : "/frameworks/av/media/codec2/core/include/C2Config.h"
  },
  {
   "alignment" : 1,
   "linker_set_key" : "char [36]",
   "name" : "char [36]",
   "referenced_type" : "type-90",
   "self_type" : "type-3214",
   "size" : 36,
   "source_file" : "/frameworks/av/media/codec2/core/include/C2Config.h"
  },
  {
   "alignment" : 1,
   "linker_set_key" : "char [8]",
   "name" : "char [8]",
   "referenced_type" : "type-90",
   "self_type" : "type-3232",
   "size" : 8,
   "source_file" : "/frameworks/av/media/codec2/core/include/C2Config.h"
  },
  {
   "alignment" : 1,
   "linker_set_key" : "char [9]",
   "name" : "char [9]",
   "referenced_type" : "type-90",
   "self_type" : "type-3183",
   "size" : 9,
   "source_file" : "/frameworks/av/media/codec2/core/include/C2Config.h"
  },
  {
   "linker_set_key" : "float []",
   "name" : "float []",
   "referenced_type" : "type-264",
   "self_type" : "type-1519",
   "source_file" : "/system/core/libsystem/include/system/graphics.h"
  },
  {
   "alignment" : 4,
   "linker_set_key" : "int [0]",
   "name" : "int [0]",
   "referenced_type" : "type-19",
   "self_type" : "type-58",
   "source_file" : "/system/core/libcutils/include/cutils/native_handle.h"
  },
  {
   "alignment" : 4,
   "linker_set_key" : "int [4]",
   "name" : "int [4]",
   "referenced_type" : "type-19",
   "self_type" : "type-665",
   "size" : 16,
   "source_file" : "/system/libhidl/base/include/hidl/HidlSupport.h"
  },
  {
   "alignment" : 4,
   "linker_set_key" : "int [7]",
   "name" : "int [7]",
   "referenced_type" : "type-19",
   "self_type" : "type-1569",
   "size" : 28,
   "source_file" : "/hardware/libhardware/include/hardware/fb.h"
  },
  {
   "alignment" : 1,
   "linker_set_key" : "unsigned char [5121]",
   "name" : "unsigned char [5121]",
   "referenced_type" : "type-3",
   "self_type" : "type-1927",
   "size" : 5121,
   "source_file" : "/system/core/liblog/include/log/log_read.h"
  },
  {
   "linker_set_key" : "unsigned char []",
   "name" : "unsigned char []",
   "referenced_type" : "type-3",
   "self_type" : "type-3123",
   "source_file" : "/frameworks/av/media/codec2/core/include/C2ParamDef.h"
  },
  {
   "alignment" : 4,
   "linker_set_key" : "unsigned int [10]",
   "name" : "unsigned int [10]",
   "referenced_type" : "type-2",
   "self_type" : "type-730",
   "size" : 40,
   "source_file" : "/system/libhidl/base/include/hidl/HidlSupport.h"
  },
  {
   "alignment" : 4,
   "linker_set_key" : "unsigned int [8]",
   "name" : "unsigned int [8]",
   "referenced_type" : "type-2",
   "self_type" : "type-1468",
   "size" : 32,
   "source_file" : "/system/core/libsystem/include/system/graphics.h"
  },
  {
   "alignment" : 8,
   "linker_set_key" : "unsigned long [12]",
   "name" : "unsigned long [12]",
   "referenced_type" : "type-221",
   "self_type" : "type-1555",
   "size" : 96,
   "source_file" : "/hardware/libhardware/include/hardware/hardware.h"
  },
  {
   "alignment" : 8,
   "linker_set_key" : "unsigned long [25]",
   "name" : "unsigned long [25]",
   "referenced_type" : "type-221",
   "self_type" : "type-1558",
   "size" : 200,
   "source_file" : "/hardware/libhardware/include/hardware/hardware.h"
  },
  {
   "alignment" : 8,
   "linker_set_key" : "void *[1]",
   "name" : "void *[1]",
   "referenced_type" : "type-1467",
   "self_type" : "type-2044",
   "size" : 8,
   "source_file" : "/frameworks/native/libs/nativebase/include/nativebase/nativebase.h"
  },
  {
   "alignment" : 8,
   "linker_set_key" : "void *[3]",
   "name" : "void *[3]",
   "referenced_type" : "type-1467",
   "self_type" : "type-1604",
   "size" : 24,
   "source_file" : "/hardware/libhardware/include/hardware/gralloc.h"
  },
  {
   "alignment" : 8,
   "linker_set_key" : "void *[4]",
   "name" : "void *[4]",
   "referenced_type" : "type-1467",
   "self_type" : "type-2040",
   "size" : 32,
   "source_file" : "/frameworks/native/libs/nativebase/include/nativebase/nativebase.h"
  },
  {
   "alignment" : 8,
   "linker_set_key" : "void *[6]",
   "name" : "void *[6]",
   "referenced_type" : "type-1467",
   "self_type" : "type-1582",
   "size" : 48,
   "source_file" : "/hardware/libhardware/include/hardware/fb.h"
  },
  {
   "alignment" : 8,
   "linker_set_key" : "void *[7]",
   "name" : "void *[7]",
   "referenced_type" : "type-1467",
   "self_type" : "type-1615",
   "size" : 56,
   "source_file" : "/hardware/libhardware/include/hardware/gralloc.h"
  }
 ],
 "builtin_types" :
 [
  {
   "alignment" : 1,
   "is_integral" : true,
   "is_unsigned" : true,
   "linker_set_key" : "bool",
   "name" : "bool",
   "referenced_type" : "type-21",
   "self_type" : "type-21",
   "size" : 1
  },
  {
   "alignment" : 1,
   "is_integral" : true,
   "is_unsigned" : true,
   "linker_set_key" : "char",
   "name" : "char",
   "referenced_type" : "type-90",
   "self_type" : "type-90",
   "size" : 1
  },
  {
   "alignment" : 2,
   "is_integral" : true,
   "is_unsigned" : true,
   "linker_set_key" : "char16_t",
   "name" : "char16_t",
   "referenced_type" : "type-3308",
   "self_type" : "type-3308",
   "size" : 2
  },
  {
   "alignment" : 8,
   "linker_set_key" : "double",
   "name" : "double",
   "referenced_type" : "type-269",
   "self_type" : "type-269",
   "size" : 8
  },
  {
   "alignment" : 4,
   "linker_set_key" : "float",
   "name" : "float",
   "referenced_type" : "type-264",
   "self_type" : "type-264",
   "size" : 4
  },
  {
   "alignment" : 4,
   "is_integral" : true,
   "linker_set_key" : "int",
   "name" : "int",
   "referenced_type" : "type-19",
   "self_type" : "type-19",
   "size" : 4
  },
  {
   "alignment" : 8,
   "is_integral" : true,
   "linker_set_key" : "long",
   "name" : "long",
   "referenced_type" : "type-196",
   "self_type" : "type-196",
   "size" : 8
  },
  {
   "alignment" : 8,
   "is_integral" : true,
   "linker_set_key" : "long long",
   "name" : "long long",
   "referenced_type" : "type-243",
   "self_type" : "type-243",
   "size" : 8
  },
  {
   "alignment" : 2,
   "is_integral" : true,
   "linker_set_key" : "short",
   "name" : "short",
   "referenced_type" : "type-129",
   "self_type" : "type-129",
   "size" : 2
  },
  {
   "alignment" : 1,
   "is_integral" : true,
   "linker_set_key" : "signed char",
   "name" : "signed char",
   "referenced_type" : "type-29",
   "self_type" : "type-29",
   "size" : 1
  },
  {
   "alignment" : 1,
   "is_integral" : true,
   "is_unsigned" : true,
   "linker_set_key" : "unsigned char",
   "name" : "unsigned char",
   "referenced_type" : "type-3",
   "self_type" : "type-3",
   "size" : 1
  },
  {
   "alignment" : 4,
   "is_integral" : true,
   "is_unsigned" : true,
   "linker_set_key" : "unsigned int",
   "name" : "unsigned int",
   "referenced_type" : "type-2",
   "self_type" : "type-2",
   "size" : 4
  },
  {
   "alignment" : 8,
   "is_integral" : true,
   "is_unsigned" : true,
   "linker_set_key" : "unsigned long",
   "name" : "unsigned long",
   "referenced_type" : "type-221",
   "self_type" : "type-221",
   "size" : 8
  },
  {
   "alignment" : 8,
   "is_integral" : true,
   "is_unsigned" : true,
   "linker_set_key" : "unsigned long long",
   "name" : "unsigned long long",
   "referenced_type" : "type-252",
   "self_type" : "type-252",
   "size" : 8
  },
  {
   "alignment" : 2,
   "is_integral" : true,
   "is_unsigned" : true,
   "linker_set_key" : "unsigned short",
   "name" : "unsigned short",
   "referenced_type" : "type-136",
   "self_type" : "type-136",
   "size" : 2
  },
  {
   "linker_set_key" : "void",
   "name" : "void",
   "referenced_type" : "type-27",
   "self_type" : "type-27"
  }
 ],
 "elf_functions" :
 [
  {
   "name" : "_ZN7android8hardware5media2c24V1_05utils10toC2StatusENS1_10bufferpool4V2_012ResultStatusE"
  },
  {
   "name" : "_ZN7android8hardware5media2c24V1_05utils12InputSurface15getConfigurableEv"
  },
  {
   "name" : "_ZN7android8hardware5media2c24V1_05utils12InputSurface24getGraphicBufferProducerEv"
  },
  {
   "name" : "_ZN7android8hardware5media2c24V1_05utils12InputSurface7connectERKNS_2spINS3_10IInputSinkEEENSt3__18functionIFvNS3_6StatusERKNS6_INS3_23IInputSurfaceConnectionEEEEEE"
  },
  {
   "name" : "_ZN7android8hardware5media2c24V1_05utils12InputSurfaceC1ERKNS_2spINS4_14ComponentStoreEEERKNSt3__110shared_ptrI17C2ReflectorHelperEERKNS6_INS0_8graphics11bufferqueue4V2_022IGraphicBufferProducerEEERKNS6_INS_19GraphicBufferSourceEEE"
  },
  {
   "name" : "_ZN7android8hardware5media2c24V1_05utils12InputSurfaceC2ERKNS_2spINS4_14ComponentStoreEEERKNSt3__110shared_ptrI17C2ReflectorHelperEERKNS6_INS0_8graphics11bufferqueue4V2_022IGraphicBufferProducerEEERKNS6_INS_19GraphicBufferSourceEEE"
  },
  {
   "name" : "_ZN7android8hardware5media2c24V1_05utils14ComponentStore10copyBufferERKNS3_6BufferES8_"
  },
  {
   "name" : "_ZN7android8hardware5media2c24V1_05utils14ComponentStore14listComponentsENSt3__18functionIFvNS3_6StatusERKNS0_8hidl_vecINS3_15IComponentStore15ComponentTraitsEEEEEE"
  },
  {
   "name" : "_ZN7android8hardware5media2c24V1_05utils14ComponentStore15createComponentERKNS0_11hidl_stringERKNS_2spINS3_18IComponentListenerEEERKNS9_INS1_10bufferpool4V2_014IClientManagerEEENSt3__18functionIFvNS3_6StatusERKNS9_INS3_10IComponentEEEEEE"
  },
  {
   "name" : "_ZN7android8hardware5media2c24V1_05utils14ComponentStore15createInterfaceERKNS0_11hidl_stringENSt3__18functionIFvNS3_6StatusERKNS_2spINS3_19IComponentInterfaceEEEEEE"
  },
  {
   "name" : "_ZN7android8hardware5media2c24V1_05utils14ComponentStore15getConfigurableEv"
  },
  {
   "name" : "_ZN7android8hardware5media2c24V1_05utils14ComponentStore17onInterfaceLoadedERKNSt3__110shared_ptrI20C2ComponentInterfaceEE"
  },
  {
   "name" : "_ZN7android8hardware5media2c24V1_05utils14ComponentStore18createInputSurfaceENSt3__18functionIFvNS3_6StatusERKNS_2spINS3_13IInputSurfaceEEEEEE"
  },
  {
   "name" : "_ZN7android8hardware5media2c24V1_05utils14ComponentStore20getPoolClientManagerEv"
  },
  {
   "name" : "_ZN7android8hardware5media2c24V1_05utils14ComponentStore20getStructDescriptorsERKNS0_8hidl_vecIjEENSt3__18functionIFvNS3_6StatusERKNS6_INS3_16StructDescriptorEEEEEE"
  },
  {
   "name" : "_ZN7android8hardware5media2c24V1_05utils14ComponentStore20reportComponentBirthEPNS4_9ComponentE"
  },
  {
   "name" : "_ZN7android8hardware5media2c24V1_05utils14ComponentStore20reportComponentDeathEPNS4_9ComponentE"
  },
  {
   "name" : "_ZN7android8hardware5media2c24V1_05utils14ComponentStore23validateSupportedParamsERKNSt3__16vectorINS6_10shared_ptrI17C2ParamDescriptorEENS6_9allocatorISA_EEEE"
  },
  {
   "name" : "_ZN7android8hardware5media2c24V1_05utils14ComponentStore4dumpERNSt3__113basic_ostreamIcNS6_11char_traitsIcEEEERKNS6_10shared_ptrIKN11C2Component6TraitsEEE"
  },
  {
   "name" : "_ZN7android8hardware5media2c24V1_05utils14ComponentStore4dumpERNSt3__113basic_ostreamIcNS6_11char_traitsIcEEEERNS5_15ComponentStatusE"
  },
  {
   "name" : "_ZN7android8hardware5media2c24V1_05utils14ComponentStore5debugERKNS0_11hidl_handleERKNS0_8hidl_vecINS0_11hidl_stringEEE"
  },
  {
   "name" : "_ZN7android8hardware5media2c24V1_05utils14ComponentStoreC1ERKNSt3__110shared_ptrI16C2ComponentStoreEE"
  },
  {
   "name" : "_ZN7android8hardware5media2c24V1_05utils14ComponentStoreC2ERKNSt3__110shared_ptrI16C2ComponentStoreEE"
  },
  {
   "name" : "_ZN7android8hardware5media2c24V1_05utils15parseParamsBlobEPNSt3__16vectorIP7C2ParamNS5_9allocatorIS8_EEEERKNS0_8hidl_vecIhEE"
  },
  {
   "name" : "_ZN7android8hardware5media2c24V1_05utils16createParamsBlobEPNS0_8hidl_vecIhEERKNSt3__16vectorINS8_10shared_ptrIK6C2InfoEENS8_9allocatorISD_EEEE"
  },
  {
   "name" : "_ZN7android8hardware5media2c24V1_05utils16createParamsBlobEPNS0_8hidl_vecIhEERKNSt3__16vectorINS8_10unique_ptrI7C2ParamNS8_14default_deleteISB_EEEENS8_9allocatorISE_EEEE"
  },
  {
   "name" : "_ZN7android8hardware5media2c24V1_05utils16createParamsBlobEPNS0_8hidl_vecIhEERKNSt3__16vectorINS8_10unique_ptrI8C2TuningNS8_14default_deleteISB_EEEENS8_9allocatorISE_EEEE"
  },
  {
   "name" : "_ZN7android8hardware5media2c24V1_05utils16createParamsBlobEPNS0_8hidl_vecIhEERKNSt3__16vectorIP7C2ParamNS8_9allocatorISB_EEEE"
  },
  {
   "name" : "_ZN7android8hardware5media2c24V1_05utils16createParamsBlobEPNS0_8hidl_vecIhEERKNSt3__16vectorIPK7C2ParamNS8_9allocatorISC_EEEE"
  },
  {
   "name" : "_ZN7android8hardware5media2c24V1_05utils18CachedConfigurable20querySupportedParamsEjjNSt3__18functionIFvNS3_6StatusERKNS0_8hidl_vecINS3_15ParamDescriptorEEEEEE"
  },
  {
   "name" : "_ZN7android8hardware5media2c24V1_05utils18CachedConfigurable20querySupportedValuesERKNS0_8hidl_vecINS3_25FieldSupportedValuesQueryEEEbNSt3__18functionIFvNS3_6StatusERKNS6_INS3_31FieldSupportedValuesQueryResultEEEEEE"
  },
  {
   "name" : "_ZN7android8hardware5media2c24V1_05utils18CachedConfigurable4initEPNS4_14ComponentStoreE"
  },
  {
   "name" : "_ZN7android8hardware5media2c24V1_05utils18CachedConfigurable5getIdEv"
  },
  {
   "name" : "_ZN7android8hardware5media2c24V1_05utils18CachedConfigurable5queryERKNS0_8hidl_vecIjEEbNSt3__18functionIFvNS3_6StatusERKNS6_IhEEEEE"
  },
  {
   "name" : "_ZN7android8hardware5media2c24V1_05utils18CachedConfigurable6configERKNS0_8hidl_vecIhEEbNSt3__18functionIFvNS3_6StatusERKNS6_INS3_13SettingResultEEES9_EEE"
  },
  {
   "name" : "_ZN7android8hardware5media2c24V1_05utils18CachedConfigurable7getNameENSt3__18functionIFvRKNS0_11hidl_stringEEEE"
  },
  {
   "name" : "_ZN7android8hardware5media2c24V1_05utils18CachedConfigurableC1EONSt3__110unique_ptrINS4_18ConfigurableC2IntfENS6_14default_deleteIS8_EEEE"
  },
  {
   "name" : "_ZN7android8hardware5media2c24V1_05utils18CachedConfigurableC2EONSt3__110unique_ptrINS4_18ConfigurableC2IntfENS6_14default_deleteIS8_EEEE"
  },
  {
   "name" : "_ZN7android8hardware5media2c24V1_05utils18ComponentInterface15getConfigurableEv"
  },
  {
   "name" : "_ZN7android8hardware5media2c24V1_05utils18ComponentInterfaceC1ERKNSt3__110shared_ptrI20C2ComponentInterfaceEEPNS4_14ComponentStoreE"
  },
  {
   "name" : "_ZN7android8hardware5media2c24V1_05utils18ComponentInterfaceC2ERKNSt3__110shared_ptrI20C2ComponentInterfaceEEPNS4_14ComponentStoreE"
  },
  {
   "name" : "_ZN7android8hardware5media2c24V1_05utils18InputBufferManager11getInstanceEv"
  },
  {
   "name" : "_ZN7android8hardware5media2c24V1_05utils18InputBufferManager17onBufferDestroyedEPK8C2BufferPv"
  },
  {
   "name" : "_ZN7android8hardware5media2c24V1_05utils18InputBufferManager17registerFrameDataERKNS_2spINS3_18IComponentListenerEEERK11C2FrameData"
  },
  {
   "name" : "_ZN7android8hardware5media2c24V1_05utils18InputBufferManager18_onBufferDestroyedEPK8C2BufferPv"
  },
  {
   "name" : "_ZN7android8hardware5media2c24V1_05utils18InputBufferManager18_registerFrameDataERKNS_2spINS3_18IComponentListenerEEERK11C2FrameData"
  },
  {
   "name" : "_ZN7android8hardware5media2c24V1_05utils18InputBufferManager19unregisterFrameDataERKNS_2wpINS3_18IComponentListenerEEE"
  },
  {
   "name" : "_ZN7android8hardware5media2c24V1_05utils18InputBufferManager19unregisterFrameDataERKNS_2wpINS3_18IComponentListenerEEERK11C2FrameData"
  },
  {
   "name" : "_ZN7android8hardware5media2c24V1_05utils18InputBufferManager20_unregisterFrameDataERKNS_2wpINS3_18IComponentListenerEEE"
  },
  {
   "name" : "_ZN7android8hardware5media2c24V1_05utils18InputBufferManager20_unregisterFrameDataERKNS_2wpINS3_18IComponentListenerEEERK11C2FrameData"
  },
  {
   "name" : "_ZN7android8hardware5media2c24V1_05utils18InputBufferManager20processNotificationsEPl"
  },
  {
   "name" : "_ZN7android8hardware5media2c24V1_05utils18InputBufferManager23setNotificationIntervalEl"
  },
  {
   "name" : "_ZN7android8hardware5media2c24V1_05utils18InputBufferManager24_setNotificationIntervalEl"
  },
  {
   "name" : "_ZN7android8hardware5media2c24V1_05utils18InputBufferManager4mainEv"
  },
  {
   "name" : "_ZN7android8hardware5media2c24V1_05utils18InputBufferManagerC1Ev"
  },
  {
   "name" : "_ZN7android8hardware5media2c24V1_05utils18InputBufferManagerC2Ev"
  },
  {
   "name" : "_ZN7android8hardware5media2c24V1_05utils18copyParamsFromBlobEPNSt3__16vectorINS5_10unique_ptrI7C2ParamNS5_14default_deleteIS8_EEEENS5_9allocatorISB_EEEENS0_8hidl_vecIhEE"
  },
  {
   "name" : "_ZN7android8hardware5media2c24V1_05utils18copyParamsFromBlobEPNSt3__16vectorINS5_10unique_ptrI8C2TuningNS5_14default_deleteIS8_EEEENS5_9allocatorISB_EEEENS0_8hidl_vecIhEE"
  },
  {
   "name" : "_ZN7android8hardware5media2c24V1_05utils20updateParamsFromBlobERKNSt3__16vectorIP7C2ParamNS5_9allocatorIS8_EEEERKNS0_8hidl_vecIhEE"
  },
  {
   "name" : "_ZN7android8hardware5media2c24V1_05utils21yieldBufferQueueBlockERK19C2ConstGraphicBlock"
  },
  {
   "name" : "_ZN7android8hardware5media2c24V1_05utils22InputSurfaceConnection10disconnectEv"
  },
  {
   "name" : "_ZN7android8hardware5media2c24V1_05utils22InputSurfaceConnection15getConfigurableEv"
  },
  {
   "name" : "_ZN7android8hardware5media2c24V1_05utils22InputSurfaceConnection4Impl16ConfigurableIntf6configERKNSt3__16vectorIP7C2ParamNS8_9allocatorISB_EEEE13c2_blocking_tPNS9_INS8_10unique_ptrI15C2SettingResultNS8_14default_deleteISJ_EEEENSC_ISM_EEEE"
  },
  {
   "name" : "_ZN7android8hardware5media2c24V1_05utils22InputSurfaceConnection4initEv"
  },
  {
   "name" : "_ZN7android8hardware5media2c24V1_05utils22InputSurfaceConnectionC1ERKNS_2spINS_19GraphicBufferSourceEEERKNS6_INS3_10IInputSinkEEERKNS6_INS4_14ComponentStoreEEE"
  },
  {
   "name" : "_ZN7android8hardware5media2c24V1_05utils22InputSurfaceConnectionC1ERKNS_2spINS_19GraphicBufferSourceEEERKNSt3__110shared_ptrI11C2ComponentEERKNS6_INS4_14ComponentStoreEEE"
  },
  {
   "name" : "_ZN7android8hardware5media2c24V1_05utils22InputSurfaceConnectionC2ERKNS_2spINS_19GraphicBufferSourceEEERKNS6_INS3_10IInputSinkEEERKNS6_INS4_14ComponentStoreEEE"
  },
  {
   "name" : "_ZN7android8hardware5media2c24V1_05utils22InputSurfaceConnectionC2ERKNS_2spINS_19GraphicBufferSourceEEERKNSt3__110shared_ptrI11C2ComponentEERKNS6_INS4_14ComponentStoreEEE"
  },
  {
   "name" : "_ZN7android8hardware5media2c24V1_05utils22InputSurfaceConnectionD0Ev"
  },
  {
   "name" : "_ZN7android8hardware5media2c24V1_05utils22InputSurfaceConnectionD1Ev"
  },
  {
   "name" : "_ZN7android8hardware5media2c24V1_05utils22InputSurfaceConnectionD2Ev"
  },
  {
   "name" : "_ZN7android8hardware5media2c24V1_05utils22yieldBufferQueueBlocksERKNSt3__14listINS5_10unique_ptrI6C2WorkNS5_14default_deleteIS8_EEEENS5_9allocatorISB_EEEEbb"
  },
  {
   "name" : "_ZN7android8hardware5media2c24V1_05utils23DefaultBufferPoolSender11setReceiverERKNS_2spINS1_10bufferpool4V2_014IClientManagerEEENSt3__16chrono8durationIxNSD_5ratioILl1ELl1000000000EEEEE"
  },
  {
   "name" : "_ZN7android8hardware5media2c24V1_05utils23DefaultBufferPoolSender4sendERKNSt3__110shared_ptrINS1_10bufferpool14BufferPoolDataEEEPNS8_4V2_019BufferStatusMessageE"
  },
  {
   "name" : "_ZN7android8hardware5media2c24V1_05utils23DefaultBufferPoolSenderC1ERKNS_2spINS1_10bufferpool4V2_014IClientManagerEEENSt3__16chrono8durationIxNSD_5ratioILl1ELl1000000000EEEEE"
  },
  {
   "name" : "_ZN7android8hardware5media2c24V1_05utils23DefaultBufferPoolSenderC2ERKNS_2spINS1_10bufferpool4V2_014IClientManagerEEENSt3__16chrono8durationIxNSD_5ratioILl1ELl1000000000EEEEE"
  },
  {
   "name" : "_ZN7android8hardware5media2c24V1_05utils6objcpyEP27C2FieldSupportedValuesQueryRKNS3_25FieldSupportedValuesQueryE"
  },
  {
   "name" : "_ZN7android8hardware5media2c24V1_05utils6objcpyEP27C2FieldSupportedValuesQueryRKNS3_25FieldSupportedValuesQueryERKNS3_31FieldSupportedValuesQueryResultE"
  },
  {
   "name" : "_ZN7android8hardware5media2c24V1_05utils6objcpyEPN11C2Component6TraitsERKNS3_15IComponentStore15ComponentTraitsE"
  },
  {
   "name" : "_ZN7android8hardware5media2c24V1_05utils6objcpyEPNS3_10WorkBundleERKNSt3__14listINS7_10unique_ptrI6C2WorkNS7_14default_deleteISA_EEEENS7_9allocatorISD_EEEEPNS4_16BufferPoolSenderE"
  },
  {
   "name" : "_ZN7android8hardware5media2c24V1_05utils6objcpyEPNS3_13SettingResultERK15C2SettingResult"
  },
  {
   "name" : "_ZN7android8hardware5media2c24V1_05utils6objcpyEPNS3_15IComponentStore15ComponentTraitsERKN11C2Component6TraitsE"
  },
  {
   "name" : "_ZN7android8hardware5media2c24V1_05utils6objcpyEPNS3_15ParamDescriptorERK17C2ParamDescriptor"
  },
  {
   "name" : "_ZN7android8hardware5media2c24V1_05utils6objcpyEPNS3_16StructDescriptorERK18C2StructDescriptor"
  },
  {
   "name" : "_ZN7android8hardware5media2c24V1_05utils6objcpyEPNS3_25FieldSupportedValuesQueryERK27C2FieldSupportedValuesQuery"
  },
  {
   "name" : "_ZN7android8hardware5media2c24V1_05utils6objcpyEPNS3_31FieldSupportedValuesQueryResultERK27C2FieldSupportedValuesQuery"
  },
  {
   "name" : "_ZN7android8hardware5media2c24V1_05utils6objcpyEPNSt3__110shared_ptrI17C2ParamDescriptorEERKNS3_15ParamDescriptorE"
  },
  {
   "name" : "_ZN7android8hardware5media2c24V1_05utils6objcpyEPNSt3__110unique_ptrI15C2SettingResultNS5_14default_deleteIS7_EEEERKNS3_13SettingResultE"
  },
  {
   "name" : "_ZN7android8hardware5media2c24V1_05utils6objcpyEPNSt3__110unique_ptrI18C2StructDescriptorNS5_14default_deleteIS7_EEEERKNS3_16StructDescriptorE"
  },
  {
   "name" : "_ZN7android8hardware5media2c24V1_05utils6objcpyEPNSt3__14listINS5_10unique_ptrI6C2WorkNS5_14default_deleteIS8_EEEENS5_9allocatorISB_EEEERKNS3_10WorkBundleE"
  },
  {
   "name" : "_ZN7android8hardware5media2c24V1_05utils8asStringENS3_6StatusEPKc"
  },
  {
   "name" : "_ZN7android8hardware5media2c24V1_05utils9Component11asInputSinkEv"
  },
  {
   "name" : "_ZN7android8hardware5media2c24V1_05utils9Component12getInterfaceEv"
  },
  {
   "name" : "_ZN7android8hardware5media2c24V1_05utils9Component12initListenerERKNS_2spIS5_EE"
  },
  {
   "name" : "_ZN7android8hardware5media2c24V1_05utils9Component15createBlockPoolEjNSt3__18functionIFvNS3_6StatusEmRKNS_2spINS3_13IConfigurableEEEEEE"
  },
  {
   "name" : "_ZN7android8hardware5media2c24V1_05utils9Component16destroyBlockPoolEm"
  },
  {
   "name" : "_ZN7android8hardware5media2c24V1_05utils9Component16setOutputSurfaceEmRKNS_2spINS0_8graphics11bufferqueue4V2_022IGraphicBufferProducerEEE"
  },
  {
   "name" : "_ZN7android8hardware5media2c24V1_05utils9Component18findLocalComponentERKNS_2spINS3_10IInputSinkEEE"
  },
  {
   "name" : "_ZN7android8hardware5media2c24V1_05utils9Component21connectToInputSurfaceERKNS_2spINS3_13IInputSurfaceEEENSt3__18functionIFvNS3_6StatusERKNS6_INS3_23IInputSurfaceConnectionEEEEEE"
  },
  {
   "name" : "_ZN7android8hardware5media2c24V1_05utils9Component24connectToOmxInputSurfaceERKNS_2spINS0_8graphics11bufferqueue4V1_022IGraphicBufferProducerEEERKNS6_INS1_3omx4V1_020IGraphicBufferSourceEEENSt3__18functionIFvNS3_6StatusERKNS6_INS3_23IInputSurfaceConnectionEEEEEE"
  },
  {
   "name" : "_ZN7android8hardware5media2c24V1_05utils9Component26disconnectFromInputSurfaceEv"
  },
  {
   "name" : "_ZN7android8hardware5media2c24V1_05utils9Component4Sink18findLocalComponentERKNS_2spINS3_10IInputSinkEEE"
  },
  {
   "name" : "_ZN7android8hardware5media2c24V1_05utils9Component4SinkC1ERKNSt3__110shared_ptrIS5_EE"
  },
  {
   "name" : "_ZN7android8hardware5media2c24V1_05utils9Component4SinkC2ERKNSt3__110shared_ptrIS5_EE"
  },
  {
   "name" : "_ZN7android8hardware5media2c24V1_05utils9Component4SinkD0Ev"
  },
  {
   "name" : "_ZN7android8hardware5media2c24V1_05utils9Component4SinkD1Ev"
  },
  {
   "name" : "_ZN7android8hardware5media2c24V1_05utils9Component4SinkD2Ev"
  },
  {
   "name" : "_ZN7android8hardware5media2c24V1_05utils9Component4stopEv"
  },
  {
   "name" : "_ZN7android8hardware5media2c24V1_05utils9Component5drainEb"
  },
  {
   "name" : "_ZN7android8hardware5media2c24V1_05utils9Component5flushENSt3__18functionIFvNS3_6StatusERKNS3_10WorkBundleEEEE"
  },
  {
   "name" : "_ZN7android8hardware5media2c24V1_05utils9Component5queueERKNS3_10WorkBundleE"
  },
  {
   "name" : "_ZN7android8hardware5media2c24V1_05utils9Component5resetEv"
  },
  {
   "name" : "_ZN7android8hardware5media2c24V1_05utils9Component5startEv"
  },
  {
   "name" : "_ZN7android8hardware5media2c24V1_05utils9Component7releaseEv"
  },
  {
   "name" : "_ZN7android8hardware5media2c24V1_05utils9ComponentC1ERKNSt3__110shared_ptrI11C2ComponentEERKNS_2spINS3_18IComponentListenerEEERKNSC_INS4_14ComponentStoreEEERKNSC_INS1_10bufferpool4V2_014IClientManagerEEE"
  },
  {
   "name" : "_ZN7android8hardware5media2c24V1_05utils9ComponentC2ERKNSt3__110shared_ptrI11C2ComponentEERKNS_2spINS3_18IComponentListenerEEERKNSC_INS4_14ComponentStoreEEERKNSC_INS1_10bufferpool4V2_014IClientManagerEEE"
  },
  {
   "name" : "_ZN7android8hardware5media2c24V1_05utils9ComponentD0Ev"
  },
  {
   "name" : "_ZN7android8hardware5media2c24V1_05utils9ComponentD1Ev"
  },
  {
   "name" : "_ZN7android8hardware5media2c24V1_05utils9ComponentD2Ev"
  },
  {
   "name" : "_ZNK7android8hardware5media2c24V1_05utils14ComponentStore6statusEv"
  },
  {
   "name" : "_ZNK7android8hardware5media2c24V1_05utils18ComponentInterface6statusEv"
  },
  {
   "name" : "_ZNK7android8hardware5media2c24V1_05utils22InputSurfaceConnection4Impl16ConfigurableIntf20querySupportedParamsEPNSt3__16vectorINS8_10shared_ptrI17C2ParamDescriptorEENS8_9allocatorISC_EEEE"
  },
  {
   "name" : "_ZNK7android8hardware5media2c24V1_05utils22InputSurfaceConnection4Impl16ConfigurableIntf20querySupportedValuesERNSt3__16vectorI27C2FieldSupportedValuesQueryNS8_9allocatorISA_EEEE13c2_blocking_t"
  },
  {
   "name" : "_ZNK7android8hardware5media2c24V1_05utils22InputSurfaceConnection4Impl16ConfigurableIntf5queryERKNSt3__16vectorIN7C2Param5IndexENS8_9allocatorISB_EEEE13c2_blocking_tPNS9_INS8_10unique_ptrISA_NS8_14default_deleteISA_EEEENSC_ISL_EEEE"
  },
  {
   "name" : "_ZNK7android8hardware5media2c24V1_05utils9Component6statusEv"
  },
  {
   "binding" : "weak",
   "name" : "_ZNKSt3__115basic_stringbufIcNS_11char_traitsIcEENS_9allocatorIcEEE3strEv"
  },
  {
   "binding" : "weak",
   "name" : "_ZNKSt3__16__treeINS_12basic_stringIcNS_11char_traitsIcEENS_9allocatorIcEEEENS_4lessIS6_EENS4_IS6_EEE14__count_uniqueIS6_EEmRKT_"
  },
  {
   "binding" : "weak",
   "name" : "_ZNSt3__112__hash_tableINS_17__hash_value_typeIjP7C2ParamEENS_22__unordered_map_hasherIjS4_NS_4hashIjEELb1EEENS_21__unordered_map_equalIjS4_NS_8equal_toIjEELb1EEENS_9allocatorIS4_EEE25__emplace_unique_key_argsIjJjRKS3_EEENS_4pairINS_15__hash_iteratorIPNS_11__hash_nodeIS4_PvEEEEbEERKT_DpOT0_"
  },
  {
   "binding" : "weak",
   "name" : "_ZNSt3__112__hash_tableINS_17__hash_value_typeIjP7C2ParamEENS_22__unordered_map_hasherIjS4_NS_4hashIjEELb1EEENS_21__unordered_map_equalIjS4_NS_8equal_toIjEELb1EEENS_9allocatorIS4_EEE6rehashEm"
  },
  {
   "binding" : "weak",
   "name" : "_ZNSt3__112__hash_tableINS_17__hash_value_typeIjP7C2ParamEENS_22__unordered_map_hasherIjS4_NS_4hashIjEELb1EEENS_21__unordered_map_equalIjS4_NS_8equal_toIjEELb1EEENS_9allocatorIS4_EEE8__rehashEm"
  },
  {
   "binding" : "weak",
   "name" : "_ZNSt3__113__tree_removeIPNS_16__tree_node_baseIPvEEEEvT_S5_"
  },
  {
   "binding" : "weak",
   "name" : "_ZNSt3__114__split_bufferI17C2FieldDescriptorRNS_9allocatorIS1_EEED2Ev"
  },
  {
   "binding" : "weak",
   "name" : "_ZNSt3__114__thread_proxyINS_5tupleIJNS_10unique_ptrINS_15__thread_structENS_14default_deleteIS3_EEEEMN7android8hardware5media2c24V1_05utils18InputBufferManagerEFvvEPSD_EEEEEPvSI_"
  },
  {
   "binding" : "weak",
   "name" : "_ZNSt3__115basic_stringbufIcNS_11char_traitsIcEENS_9allocatorIcEEE7seekoffExNS_8ios_base7seekdirEj"
  },
  {
   "binding" : "weak",
   "name" : "_ZNSt3__115basic_stringbufIcNS_11char_traitsIcEENS_9allocatorIcEEE8overflowEi"
  },
  {
   "binding" : "weak",
   "name" : "_ZNSt3__115basic_stringbufIcNS_11char_traitsIcEENS_9allocatorIcEEE9pbackfailEi"
  },
  {
   "binding" : "weak",
   "name" : "_ZNSt3__115basic_stringbufIcNS_11char_traitsIcEENS_9allocatorIcEEE9underflowEv"
  },
  {
   "binding" : "weak",
   "name" : "_ZNSt3__120__shared_ptr_emplaceI17C2ParamDescriptorNS_9allocatorIS1_EEE16__on_zero_sharedEv"
  },
  {
   "binding" : "weak",
   "name" : "_ZNSt3__120__shared_ptr_emplaceI17C2ParamDescriptorNS_9allocatorIS1_EEE21__on_zero_shared_weakEv"
  },
  {
   "binding" : "weak",
   "name" : "_ZNSt3__120__shared_ptr_emplaceI17C2ReflectorHelperNS_9allocatorIS1_EEE16__on_zero_sharedEv"
  },
  {
   "binding" : "weak",
   "name" : "_ZNSt3__120__shared_ptr_emplaceI17C2ReflectorHelperNS_9allocatorIS1_EEE21__on_zero_shared_weakEv"
  },
  {
   "binding" : "weak",
   "name" : "_ZNSt3__120__shared_ptr_emplaceIN7android8hardware5media2c24V1_05utils12InputSurface9InterfaceENS_9allocatorIS8_EEE16__on_zero_sharedEv"
  },
  {
   "binding" : "weak",
   "name" : "_ZNSt3__120__shared_ptr_emplaceIN7android8hardware5media2c24V1_05utils12InputSurface9InterfaceENS_9allocatorIS8_EEE21__on_zero_shared_weakEv"
  },
  {
   "binding" : "weak",
   "name" : "_ZNSt3__120__shared_ptr_emplaceIN7android8hardware5media2c24V1_05utils9Component8ListenerENS_9allocatorIS8_EEE16__on_zero_sharedEv"
  },
  {
   "binding" : "weak",
   "name" : "_ZNSt3__120__shared_ptr_emplaceIN7android8hardware5media2c24V1_05utils9Component8ListenerENS_9allocatorIS8_EEE21__on_zero_shared_weakEv"
  },
  {
   "binding" : "weak",
   "name" : "_ZNSt3__120__shared_ptr_pointerIP18C2StructDescriptorNS_14default_deleteIS1_EENS_9allocatorIS1_EEE16__on_zero_sharedEv"
  },
  {
   "binding" : "weak",
   "name" : "_ZNSt3__120__shared_ptr_pointerIP18C2StructDescriptorNS_14default_deleteIS1_EENS_9allocatorIS1_EEE21__on_zero_shared_weakEv"
  },
  {
   "binding" : "weak",
   "name" : "_ZNSt3__120__shared_ptr_pointerIP7C2ParamNS_14default_deleteIS1_EENS_9allocatorIS1_EEE16__on_zero_sharedEv"
  },
  {
   "binding" : "weak",
   "name" : "_ZNSt3__120__shared_ptr_pointerIP7C2ParamNS_14default_deleteIS1_EENS_9allocatorIS1_EEE21__on_zero_shared_weakEv"
  },
  {
   "binding" : "weak",
   "name" : "_ZNSt3__124__put_character_sequenceIcNS_11char_traitsIcEEEERNS_13basic_ostreamIT_T0_EES7_PKS4_m"
  },
  {
   "binding" : "weak",
   "name" : "_ZNSt3__127__tree_balance_after_insertIPNS_16__tree_node_baseIPvEEEEvT_S5_"
  },
  {
   "binding" : "weak",
   "name" : "_ZNSt3__16__treeIN7C2Param9CoreIndexENS_4lessIS2_EENS_9allocatorIS2_EEE7destroyEPNS_11__tree_nodeIS2_PvEE"
  },
  {
   "binding" : "weak",
   "name" : "_ZNSt3__16__treeIN7android8hardware5media2c24V1_05utils18InputBufferManager13TrackedBufferENS_4lessIS8_EENS_9allocatorIS8_EEE16__construct_nodeIJRKNS1_2spINS5_18IComponentListenerEEERmSK_RKNS_10shared_ptrI8C2BufferEEEEENS_10unique_ptrINS_11__tree_nodeIS8_PvEENS_22__tree_node_destructorINSB_IST_EEEEEEDpOT_"
  },
  {
   "binding" : "weak",
   "name" : "_ZNSt3__16__treeIN7android8hardware5media2c24V1_05utils18InputBufferManager13TrackedBufferENS_4lessIS8_EENS_9allocatorIS8_EEE21__emplace_unique_implIJRKNS1_2spINS5_18IComponentListenerEEERmSK_RKNS_10shared_ptrI8C2BufferEEEEENS_4pairINS_15__tree_iteratorIS8_PNS_11__tree_nodeIS8_PvEElEEbEEDpOT_"
  },
  {
   "binding" : "weak",
   "name" : "_ZNSt3__16__treeIN7android8hardware5media2c24V1_05utils18InputBufferManager13TrackedBufferENS_4lessIS8_EENS_9allocatorIS8_EEE5eraseENS_21__tree_const_iteratorIS8_PNS_11__tree_nodeIS8_PvEElEE"
  },
  {
   "binding" : "weak",
   "name" : "_ZNSt3__16__treeIN7android8hardware5media2c24V1_05utils18InputBufferManager13TrackedBufferENS_4lessIS8_EENS_9allocatorIS8_EEE7destroyEPNS_11__tree_nodeIS8_PvEE"
  },
  {
   "binding" : "weak",
   "name" : "_ZNSt3__16__treeINS_12__value_typeIN7C2Param9CoreIndexEK18C2StructDescriptorEENS_19__map_value_compareIS3_S6_NS_4lessIS3_EELb1EEENS_9allocatorIS6_EEE7destroyEPNS_11__tree_nodeIS6_PvEE"
  },
  {
   "binding" : "weak",
   "name" : "_ZNSt3__16__treeINS_12__value_typeIN7C2Param9CoreIndexENS_10shared_ptrI18C2StructDescriptorEEEENS_19__map_value_compareIS3_S7_NS_4lessIS3_EELb1EEENS_9allocatorIS7_EEE7destroyEPNS_11__tree_nodeIS7_PvEE"
  },
  {
   "binding" : "weak",
   "name" : "_ZNSt3__16__treeINS_12__value_typeIN7android2wpINS2_8hardware5media2c24V1_018IComponentListenerEEENS7_5utils18InputBufferManager18DeathNotificationsEEENS_19__map_value_compareIS9_SD_NS_4lessIS9_EELb1EEENS_9allocatorISD_EEE21__emplace_unique_implIJRKNS2_2spIS8_EESC_EEENS_4pairINS_15__tree_iteratorISD_PNS_11__tree_nodeISD_PvEElEEbEEDpOT_"
  },
  {
   "binding" : "weak",
   "name" : "_ZNSt3__16__treeINS_12__value_typeIN7android2wpINS2_8hardware5media2c24V1_018IComponentListenerEEENS7_5utils18InputBufferManager18DeathNotificationsEEENS_19__map_value_compareIS9_SD_NS_4lessIS9_EELb1EEENS_9allocatorISD_EEE25__emplace_unique_key_argsIS9_JRKNS_21piecewise_construct_tENS_5tupleIJRKS9_EEENSP_IJEEEEEENS_4pairINS_15__tree_iteratorISD_PNS_11__tree_nodeISD_PvEElEEbEERKT_DpOT0_"
  },
  {
   "binding" : "weak",
   "name" : "_ZNSt3__16__treeINS_12__value_typeIN7android2wpINS2_8hardware5media2c24V1_018IComponentListenerEEENS7_5utils18InputBufferManager18DeathNotificationsEEENS_19__map_value_compareIS9_SD_NS_4lessIS9_EELb1EEENS_9allocatorISD_EEE5eraseENS_21__tree_const_iteratorISD_PNS_11__tree_nodeISD_PvEElEE"
  },
  {
   "binding" : "weak",
   "name" : "_ZNSt3__16__treeINS_12__value_typeIN7android2wpINS2_8hardware5media2c24V1_018IComponentListenerEEENS7_5utils18InputBufferManager18DeathNotificationsEEENS_19__map_value_compareIS9_SD_NS_4lessIS9_EELb1EEENS_9allocatorISD_EEE7destroyEPNS_11__tree_nodeISD_PvEE"
  },
  {
   "binding" : "weak",
   "name" : "_ZNSt3__16__treeINS_12__value_typeIN7android2wpINS2_8hardware5media2c24V1_018IComponentListenerEEENS_3mapImNS_3setINS7_5utils18InputBufferManager13TrackedBufferENS_4lessISE_EENS_9allocatorISE_EEEENSF_ImEENSH_INS_4pairIKmSJ_EEEEEEEENS_19__map_value_compareIS9_SQ_NSF_IS9_EELb1EEENSH_ISQ_EEE25__emplace_unique_key_argsIS9_JRKNS_21piecewise_construct_tENS_5tupleIJOS9_EEENS10_IJEEEEEENSL_INS_15__tree_iteratorISQ_PNS_11__tree_nodeISQ_PvEElEEbEERKT_DpOT0_"
  },
  {
   "binding" : "weak",
   "name" : "_ZNSt3__16__treeINS_12__value_typeIN7android2wpINS2_8hardware5media2c24V1_018IComponentListenerEEENS_3mapImNS_3setINS7_5utils18InputBufferManager13TrackedBufferENS_4lessISE_EENS_9allocatorISE_EEEENSF_ImEENSH_INS_4pairIKmSJ_EEEEEEEENS_19__map_value_compareIS9_SQ_NSF_IS9_EELb1EEENSH_ISQ_EEE5eraseENS_21__tree_const_iteratorISQ_PNS_11__tree_nodeISQ_PvEElEE"
  },
  {
   "binding" : "weak",
   "name" : "_ZNSt3__16__treeINS_12__value_typeIN7android2wpINS2_8hardware5media2c24V1_018IComponentListenerEEENS_3mapImNS_3setINS7_5utils18InputBufferManager13TrackedBufferENS_4lessISE_EENS_9allocatorISE_EEEENSF_ImEENSH_INS_4pairIKmSJ_EEEEEEEENS_19__map_value_compareIS9_SQ_NSF_IS9_EELb1EEENSH_ISQ_EEE7destroyEPNS_11__tree_nodeISQ_PvEE"
  },
  {
   "binding" : "weak",
   "name" : "_ZNSt3__16__treeINS_12__value_typeIPKvjEENS_19__map_value_compareIS3_S4_NS_4lessIS3_EELb1EEENS_9allocatorIS4_EEE21__emplace_unique_implIJPN7android8hardware5media10bufferpool14BufferPoolDataERjEEENS_4pairINS_15__tree_iteratorIS4_PNS_11__tree_nodeIS4_PvEElEEbEEDpOT_"
  },
  {
   "binding" : "weak",
   "name" : "_ZNSt3__16__treeINS_12__value_typeIPKvjEENS_19__map_value_compareIS3_S4_NS_4lessIS3_EELb1EEENS_9allocatorIS4_EEE21__emplace_unique_implIJRPK13native_handleRjEEENS_4pairINS_15__tree_iteratorIS4_PNS_11__tree_nodeIS4_PvEElEEbEEDpOT_"
  },
  {
   "binding" : "weak",
   "name" : "_ZNSt3__16__treeINS_12__value_typeIPKvjEENS_19__map_value_compareIS3_S4_NS_4lessIS3_EELb1EEENS_9allocatorIS4_EEE7destroyEPNS_11__tree_nodeIS4_PvEE"
  },
  {
   "binding" : "weak",
   "name" : "_ZNSt3__16__treeINS_12__value_typeIPN7android8hardware5media2c24V1_010IInputSinkENS_8weak_ptrI11C2ComponentEEEENS_19__map_value_compareIS8_SC_NS_4lessIS8_EELb1EEENS_9allocatorISC_EEE14__erase_uniqueIS8_EEmRKT_"
  },
  {
   "binding" : "weak",
   "name" : "_ZNSt3__16__treeINS_12__value_typeIPN7android8hardware5media2c24V1_010IInputSinkENS_8weak_ptrI11C2ComponentEEEENS_19__map_value_compareIS8_SC_NS_4lessIS8_EELb1EEENS_9allocatorISC_EEE21__emplace_unique_implIJPNS6_5utils9Component4SinkERNS_10shared_ptrISA_EEEEENS_4pairINS_15__tree_iteratorISC_PNS_11__tree_nodeISC_PvEElEEbEEDpOT_"
  },
  {
   "binding" : "weak",
   "name" : "_ZNSt3__16__treeINS_12__value_typeIPN7android8hardware5media2c24V1_010IInputSinkENS_8weak_ptrI11C2ComponentEEEENS_19__map_value_compareIS8_SC_NS_4lessIS8_EELb1EEENS_9allocatorISC_EEE7destroyEPNS_11__tree_nodeISC_PvEE"
  },
  {
   "binding" : "weak",
   "name" : "_ZNSt3__16__treeINS_12__value_typeIPN7android8hardware5media2c24V1_05utils9ComponentENS7_14ComponentStore15ComponentStatusEEENS_19__map_value_compareIS9_SC_NS_4lessIS9_EELb1EEENS_9allocatorISC_EEE5eraseENS_21__tree_const_iteratorISC_PNS_11__tree_nodeISC_PvEElEE"
  },
  {
   "binding" : "weak",
   "name" : "_ZNSt3__16__treeINS_12__value_typeIPN7android8hardware5media2c24V1_05utils9ComponentENS7_14ComponentStore15ComponentStatusEEENS_19__map_value_compareIS9_SC_NS_4lessIS9_EELb1EEENS_9allocatorISC_EEE7destroyEPNS_11__tree_nodeISC_PvEE"
  },
  {
   "binding" : "weak",
   "name" : "_ZNSt3__16__treeINS_12__value_typeImNS_10shared_ptrI11C2BlockPoolEEEENS_19__map_value_compareImS5_NS_4lessImEELb1EEENS_9allocatorIS5_EEE5eraseENS_21__tree_const_iteratorIS5_PNS_11__tree_nodeIS5_PvEElEE"
  },
  {
   "binding" : "weak",
   "name" : "_ZNSt3__16__treeINS_12__value_typeImNS_10shared_ptrI11C2BlockPoolEEEENS_19__map_value_compareImS5_NS_4lessImEELb1EEENS_9allocatorIS5_EEE7destroyEPNS_11__tree_nodeIS5_PvEE"
  },
  {
   "binding" : "weak",
   "name" : "_ZNSt3__16__treeINS_12__value_typeImNS_3setIN7android8hardware5media2c24V1_05utils18InputBufferManager13TrackedBufferENS_4lessISA_EENS_9allocatorISA_EEEEEENS_19__map_value_compareImSG_NSB_ImEELb1EEENSD_ISG_EEE7destroyEPNS_11__tree_nodeISG_PvEE"
  },
  {
   "binding" : "weak",
   "name" : "_ZNSt3__16__treeINS_12__value_typeImNS_6vectorImNS_9allocatorImEEEEEENS_19__map_value_compareImS6_NS_4lessImEELb1EEENS3_IS6_EEE7destroyEPNS_11__tree_nodeIS6_PvEE"
  },
  {
   "binding" : "weak",
   "name" : "_ZNSt3__16__treeINS_12basic_stringIcNS_11char_traitsIcEENS_9allocatorIcEEEENS_4lessIS6_EENS4_IS6_EEE12__find_equalIS6_EERPNS_16__tree_node_baseIPvEERPNS_15__tree_end_nodeISF_EERKT_"
  },
  {
   "binding" : "weak",
   "name" : "_ZNSt3__16__treeINS_12basic_stringIcNS_11char_traitsIcEENS_9allocatorIcEEEENS_4lessIS6_EENS4_IS6_EEE7destroyEPNS_11__tree_nodeIS6_PvEE"
  },
  {
   "binding" : "weak",
   "name" : "_ZNSt3__16vectorI17C2FieldDescriptorNS_9allocatorIS1_EEE24__emplace_back_slow_pathIJRS1_EEEvDpOT_"
  },
  {
   "binding" : "weak",
   "name" : "_ZNSt3__16vectorI17C2FieldDescriptorNS_9allocatorIS1_EEE7reserveEm"
  },
  {
   "binding" : "weak",
   "name" : "_ZNSt3__16vectorI18C2ParamFieldValuesNS_9allocatorIS1_EEE24__emplace_back_slow_pathIJS1_EEEvDpOT_"
  },
  {
   "binding" : "weak",
   "name" : "_ZNSt3__16vectorI18C2ParamFieldValuesNS_9allocatorIS1_EEE7reserveEm"
  },
  {
   "binding" : "weak",
   "name" : "_ZNSt3__16vectorI27C2FieldSupportedValuesQueryNS_9allocatorIS1_EEE24__emplace_back_slow_pathIJ12C2ParamFieldNS1_6type_tEEEEvDpOT_"
  },
  {
   "binding" : "weak",
   "name" : "_ZNSt3__16vectorIN7C2Param5IndexENS_9allocatorIS2_EEE24__emplace_back_slow_pathIJjEEEvDpOT_"
  },
  {
   "binding" : "weak",
   "name" : "_ZNSt3__16vectorIN7C2Value9PrimitiveENS_9allocatorIS2_EEE24__emplace_back_slow_pathIJRjEEEvDpOT_"
  },
  {
   "binding" : "weak",
   "name" : "_ZNSt3__16vectorIN7C2Value9PrimitiveENS_9allocatorIS2_EEE8__appendEm"
  },
  {
   "binding" : "weak",
   "name" : "_ZNSt3__16vectorINS_10shared_ptrI8C2BufferEENS_9allocatorIS3_EEE21__push_back_slow_pathIRKS3_EEvOT_"
  },
  {
   "binding" : "weak",
   "name" : "_ZNSt3__16vectorINS_10shared_ptrI8C2BufferEENS_9allocatorIS3_EEE24__emplace_back_slow_pathIJRS3_EEEvDpOT_"
  },
  {
   "binding" : "weak",
   "name" : "_ZNSt3__16vectorINS_10shared_ptrI8C2BufferEENS_9allocatorIS3_EEE7reserveEm"
  },
  {
   "binding" : "weak",
   "name" : "_ZNSt3__16vectorINS_10unique_ptrI15C2SettingResultNS_14default_deleteIS2_EEEENS_9allocatorIS5_EEE24__emplace_back_slow_pathIJS5_EEEvDpOT_"
  },
  {
   "binding" : "weak",
   "name" : "_ZNSt3__16vectorINS_10unique_ptrI15C2SettingResultNS_14default_deleteIS2_EEEENS_9allocatorIS5_EEE7reserveEm"
  },
  {
   "binding" : "weak",
   "name" : "_ZNSt3__16vectorINS_10unique_ptrI7C2ParamNS_14default_deleteIS2_EEEENS_9allocatorIS5_EEE24__emplace_back_slow_pathIJS5_EEEvDpOT_"
  },
  {
   "binding" : "weak",
   "name" : "_ZNSt3__16vectorINS_10unique_ptrI7C2ParamNS_14default_deleteIS2_EEEENS_9allocatorIS5_EEE7reserveEm"
  },
  {
   "binding" : "weak",
   "name" : "_ZNSt3__16vectorINS_10unique_ptrI7C2ParamNS_14default_deleteIS2_EEEENS_9allocatorIS5_EEE8__appendEm"
  },
  {
   "binding" : "weak",
   "name" : "_ZNSt3__16vectorINS_10unique_ptrI8C2TuningNS_14default_deleteIS2_EEEENS_9allocatorIS5_EEE8__appendEm"
  },
  {
   "binding" : "weak",
   "name" : "_ZNSt3__16vectorINS_12basic_stringIcNS_11char_traitsIcEENS_9allocatorIcEEEENS4_IS6_EEE8__appendEm"
  },
  {
   "binding" : "weak",
   "name" : "_ZNSt3__16vectorINS_4pairINS_12basic_stringIcNS_11char_traitsIcEENS_9allocatorIcEEEEN7C2Value9PrimitiveEEENS5_ISA_EEE24__emplace_back_slow_pathIJRKN7android8hardware11hidl_stringES9_EEEvDpOT_"
  },
  {
   "binding" : "weak",
   "name" : "_ZNSt3__16vectorINS_4pairINS_12basic_stringIcNS_11char_traitsIcEENS_9allocatorIcEEEEN7C2Value9PrimitiveEEENS5_ISA_EEE7reserveEm"
  },
  {
   "binding" : "weak",
   "name" : "_ZNSt3__16vectorIP7C2ParamNS_9allocatorIS2_EEE24__emplace_back_slow_pathIJRS2_EEEvDpOT_"
  },
  {
   "binding" : "weak",
   "name" : "_ZNSt3__16vectorImNS_9allocatorImEEE24__emplace_back_slow_pathIJRmEEEvDpOT_"
  },
  {
   "binding" : "weak",
   "name" : "_ZNSt3__1lsIcNS_11char_traitsIcEEEERNS_13basic_ostreamIT_T0_EES7_RKNS_9__iom_t10IS4_EE"
  },
  {
   "name" : "_ZTv0_n24_N7android8hardware5media2c24V1_05utils22InputSurfaceConnectionD0Ev"
  },
  {
   "name" : "_ZTv0_n24_N7android8hardware5media2c24V1_05utils22InputSurfaceConnectionD1Ev"
  },
  {
   "name" : "_ZTv0_n24_N7android8hardware5media2c24V1_05utils9Component4SinkD0Ev"
  },
  {
   "name" : "_ZTv0_n24_N7android8hardware5media2c24V1_05utils9Component4SinkD1Ev"
  },
  {
   "name" : "_ZTv0_n24_N7android8hardware5media2c24V1_05utils9ComponentD0Ev"
  },
  {
   "name" : "_ZTv0_n24_N7android8hardware5media2c24V1_05utils9ComponentD1Ev"
  }
 ],
 "elf_objects" :
 [
  {
   "name" : "_ZN7android8hardware5media2c24V1_05utils9Component4Sink15sSink2ComponentE"
  },
  {
   "name" : "_ZN7android8hardware5media2c24V1_05utils9Component4Sink20sSink2ComponentMutexE"
  },
  {
   "name" : "_ZTCN7android8hardware5media2c24V1_05utils12InputSurfaceE0_NS3_13IInputSurfaceE"
  },
  {
   "name" : "_ZTCN7android8hardware5media2c24V1_05utils12InputSurfaceE0_NS_4hidl4base4V1_05IBaseE"
  },
  {
   "name" : "_ZTCN7android8hardware5media2c24V1_05utils14ComponentStoreE0_NS3_15IComponentStoreE"
  },
  {
   "name" : "_ZTCN7android8hardware5media2c24V1_05utils14ComponentStoreE0_NS_4hidl4base4V1_05IBaseE"
  },
  {
   "name" : "_ZTCN7android8hardware5media2c24V1_05utils18CachedConfigurableE0_NS3_13IConfigurableE"
  },
  {
   "name" : "_ZTCN7android8hardware5media2c24V1_05utils18CachedConfigurableE0_NS_4hidl4base4V1_05IBaseE"
  },
  {
   "name" : "_ZTCN7android8hardware5media2c24V1_05utils18ComponentInterfaceE0_NS3_19IComponentInterfaceE"
  },
  {
   "name" : "_ZTCN7android8hardware5media2c24V1_05utils18ComponentInterfaceE0_NS_4hidl4base4V1_05IBaseE"
  },
  {
   "name" : "_ZTCN7android8hardware5media2c24V1_05utils22InputSurfaceConnectionE0_NS3_23IInputSurfaceConnectionE"
  },
  {
   "name" : "_ZTCN7android8hardware5media2c24V1_05utils22InputSurfaceConnectionE0_NS_4hidl4base4V1_05IBaseE"
  },
  {
   "name" : "_ZTCN7android8hardware5media2c24V1_05utils9Component4SinkE0_NS3_10IInputSinkE"
  },
  {
   "name" : "_ZTCN7android8hardware5media2c24V1_05utils9Component4SinkE0_NS_4hidl4base4V1_05IBaseE"
  },
  {
   "name" : "_ZTCN7android8hardware5media2c24V1_05utils9ComponentE0_NS3_10IComponentE"
  },
  {
   "name" : "_ZTCN7android8hardware5media2c24V1_05utils9ComponentE0_NS_4hidl4base4V1_05IBaseE"
  },
  {
   "binding" : "weak",
   "name" : "_ZTCNSt3__119basic_ostringstreamIcNS_11char_traitsIcEENS_9allocatorIcEEEE0_NS_13basic_ostreamIcS2_EE"
  },
  {
   "name" : "_ZTTN7android8hardware5media2c24V1_05utils12InputSurfaceE"
  },
  {
   "name" : "_ZTTN7android8hardware5media2c24V1_05utils14ComponentStoreE"
  },
  {
   "name" : "_ZTTN7android8hardware5media2c24V1_05utils18CachedConfigurableE"
  },
  {
   "name" : "_ZTTN7android8hardware5media2c24V1_05utils18ComponentInterfaceE"
  },
  {
   "name" : "_ZTTN7android8hardware5media2c24V1_05utils22InputSurfaceConnectionE"
  },
  {
   "name" : "_ZTTN7android8hardware5media2c24V1_05utils9Component4SinkE"
  },
  {
   "name" : "_ZTTN7android8hardware5media2c24V1_05utils9ComponentE"
  },
  {
   "binding" : "weak",
   "name" : "_ZTTNSt3__119basic_ostringstreamIcNS_11char_traitsIcEENS_9allocatorIcEEEE"
  },
  {
   "binding" : "weak",
   "name" : "_ZTV8C2Buffer"
  },
  {
   "binding" : "weak",
   "name" : "_ZTVN7android8hardware5media2c24V1_05utils12InputSurface16ConfigurableIntfE"
  },
  {
   "binding" : "weak",
   "name" : "_ZTVN7android8hardware5media2c24V1_05utils12InputSurface9InterfaceE"
  },
  {
   "name" : "_ZTVN7android8hardware5media2c24V1_05utils12InputSurfaceE"
  },
  {
   "name" : "_ZTVN7android8hardware5media2c24V1_05utils14ComponentStoreE"
  },
  {
   "name" : "_ZTVN7android8hardware5media2c24V1_05utils18CachedConfigurableE"
  },
  {
   "name" : "_ZTVN7android8hardware5media2c24V1_05utils18ComponentInterfaceE"
  },
  {
   "binding" : "weak",
   "name" : "_ZTVN7android8hardware5media2c24V1_05utils18ConfigurableC2IntfE"
  },
  {
   "name" : "_ZTVN7android8hardware5media2c24V1_05utils22InputSurfaceConnection4Impl16ConfigurableIntfE"
  },
  {
   "binding" : "weak",
   "name" : "_ZTVN7android8hardware5media2c24V1_05utils22InputSurfaceConnection4ImplE"
  },
  {
   "name" : "_ZTVN7android8hardware5media2c24V1_05utils22InputSurfaceConnectionE"
  },
  {
   "name" : "_ZTVN7android8hardware5media2c24V1_05utils23DefaultBufferPoolSenderE"
  },
  {
   "name" : "_ZTVN7android8hardware5media2c24V1_05utils9Component4SinkE"
  },
  {
   "binding" : "weak",
   "name" : "_ZTVN7android8hardware5media2c24V1_05utils9Component8ListenerE"
  },
  {
   "name" : "_ZTVN7android8hardware5media2c24V1_05utils9ComponentE"
  },
  {
   "binding" : "weak",
   "name" : "_ZTVNSt3__115basic_stringbufIcNS_11char_traitsIcEENS_9allocatorIcEEEE"
  },
  {
   "binding" : "weak",
   "name" : "_ZTVNSt3__119basic_ostringstreamIcNS_11char_traitsIcEENS_9allocatorIcEEEE"
  },
  {
   "binding" : "weak",
   "name" : "_ZTVNSt3__120__shared_ptr_emplaceI17C2ParamDescriptorNS_9allocatorIS1_EEEE"
  },
  {
   "binding" : "weak",
   "name" : "_ZTVNSt3__120__shared_ptr_emplaceI17C2ReflectorHelperNS_9allocatorIS1_EEEE"
  },
  {
   "binding" : "weak",
   "name" : "_ZTVNSt3__120__shared_ptr_emplaceIN7android8hardware5media2c24V1_05utils12InputSurface9InterfaceENS_9allocatorIS8_EEEE"
  },
  {
   "binding" : "weak",
   "name" : "_ZTVNSt3__120__shared_ptr_emplaceIN7android8hardware5media2c24V1_05utils9Component8ListenerENS_9allocatorIS8_EEEE"
  },
  {
   "binding" : "weak",
   "name" : "_ZTVNSt3__120__shared_ptr_pointerIP18C2StructDescriptorNS_14default_deleteIS1_EENS_9allocatorIS1_EEEE"
  },
  {
   "binding" : "weak",
   "name" : "_ZTVNSt3__120__shared_ptr_pointerIP7C2ParamNS_14default_deleteIS1_EENS_9allocatorIS1_EEEE"
  }
 ],
 "enum_types" :
 [
  {
   "alignment" : 4,
   "enum_fields" :
   [
    {
     "enum_field_value" : 0,
     "name" : "(anonymous namespace)::C2_PARAM_INDEX_INVALID"
    },
    {
     "enum_field_value" : 1,
     "name" : "(anonymous namespace)::C2_PARAM_INDEX_STRUCT_START"
    },
    {
     "enum_field_value" : 2048,
     "name" : "(anonymous namespace)::C2_PARAM_INDEX_PARAM_START"
    },
    {
     "enum_field_value" : 4096,
     "name" : "(anonymous namespace)::C2_PARAM_INDEX_CODER_PARAM_START"
    },
    {
     "enum_field_value" : 6144,
     "name" : "(anonymous namespace)::C2_PARAM_INDEX_PICTURE_PARAM_START"
    },
    {
     "enum_field_value" : 8192,
     "name" : "(anonymous namespace)::C2_PARAM_INDEX_VIDEO_PARAM_START"
    },
    {
     "enum_field_value" : 10240,
     "name" : "(anonymous namespace)::C2_PARAM_INDEX_IMAGE_PARAM_START"
    },
    {
     "enum_field_value" : 12288,
     "name" : "(anonymous namespace)::C2_PARAM_INDEX_AUDIO_PARAM_START"
    },
    {
     "enum_field_value" : 16384,
     "name" : "(anonymous namespace)::C2_PARAM_INDEX_PLATFORM_START"
    },
    {
     "enum_field_value" : 1,
     "name" : "(anonymous namespace)::kParamIndexColorXy"
    },
    {
     "enum_field_value" : 2,
     "name" : "(anonymous namespace)::kParamIndexMasteringDisplayColorVolume"
    },
    {
     "enum_field_value" : 3,
     "name" : "(anonymous namespace)::kParamIndexChromaOffset"
    },
    {
     "enum_field_value" : 4,
     "name" : "(anonymous namespace)::kParamIndexGopLayer"
    },
    {
     "enum_field_value" : 2048,
     "name" : "(anonymous namespace)::kParamIndexApiLevel"
    },
    {
     "enum_field_value" : 2049,
     "name" : "(anonymous namespace)::kParamIndexApiFeatures"
    },
    {
     "enum_field_value" : 2050,
     "name" : "(anonymous namespace)::kParamIndexName"
    },
    {
     "enum_field_value" : 2051,
     "name" : "(anonymous namespace)::kParamIndexAliases"
    },
    {
     "enum_field_value" : 2052,
     "name" : "(anonymous namespace)::kParamIndexKind"
    },
    {
     "enum_field_value" : 2053,
     "name" : "(anonymous namespace)::kParamIndexDomain"
    },
    {
     "enum_field_value" : 2054,
     "name" : "(anonymous namespace)::kParamIndexAttributes"
    },
    {
     "enum_field_value" : 2055,
     "name" : "(anonymous namespace)::kParamIndexTimeStretch"
    },
    {
     "enum_field_value" : 2056,
     "name" : "(anonymous namespace)::kParamIndexProfileLevel"
    },
    {
     "enum_field_value" : 2057,
     "name" : "(anonymous namespace)::kParamIndexInitData"
    },
    {
     "enum_field_value" : 2058,
     "name" : "(anonymous namespace)::kParamIndexSupplementalData"
    },
    {
     "enum_field_value" : 2059,
     "name" : "(anonymous namespace)::kParamIndexSubscribedSupplementalData"
    },
    {
     "enum_field_value" : 2060,
     "name" : "(anonymous namespace)::kParamIndexMediaType"
    },
    {
     "enum_field_value" : 2061,
     "name" : "(anonymous namespace)::kParamIndexDelayRequest"
    },
    {
     "enum_field_value" : 2062,
     "name" : "(anonymous namespace)::kParamIndexDelay"
    },
    {
     "enum_field_value" : 2063,
     "name" : "(anonymous namespace)::kParamIndexMaxReferenceAge"
    },
    {
     "enum_field_value" : 2064,
     "name" : "(anonymous namespace)::kParamIndexMaxReferenceCount"
    },
    {
     "enum_field_value" : 2065,
     "name" : "(anonymous namespace)::kParamIndexReorderBufferDepth"
    },
    {
     "enum_field_value" : 2066,
     "name" : "(anonymous namespace)::kParamIndexReorderKey"
    },
    {
     "enum_field_value" : 2067,
     "name" : "(anonymous namespace)::kParamIndexStreamCount"
    },
    {
     "enum_field_value" : 2068,
     "name" : "(anonymous namespace)::kParamIndexSubscribedParamIndices"
    },
    {
     "enum_field_value" : 2069,
     "name" : "(anonymous namespace)::kParamIndexSuggestedBufferCount"
    },
    {
     "enum_field_value" : 2070,
     "name" : "(anonymous namespace)::kParamIndexBatchSize"
    },
    {
     "enum_field_value" : 2071,
     "name" : "(anonymous namespace)::kParamIndexCurrentWork"
    },
    {
     "enum_field_value" : 2072,
     "name" : "(anonymous namespace)::kParamIndexLastWorkQueued"
    },
    {
     "enum_field_value" : 2073,
     "name" : "(anonymous namespace)::kParamIndexAllocators"
    },
    {
     "enum_field_value" : 2074,
     "name" : "(anonymous namespace)::kParamIndexBlockPools"
    },
    {
     "enum_field_value" : 2075,
     "name" : "(anonymous namespace)::kParamIndexBufferType"
    },
    {
     "enum_field_value" : 2076,
     "name" : "(anonymous namespace)::kParamIndexUsage"
    },
    {
     "enum_field_value" : 2077,
     "name" : "(anonymous namespace)::kParamIndexOutOfMemory"
    },
    {
     "enum_field_value" : 2078,
     "name" : "(anonymous namespace)::kParamIndexMaxBufferSize"
    },
    {
     "enum_field_value" : 2079,
     "name" : "(anonymous namespace)::kParamIndexTripped"
    },
    {
     "enum_field_value" : 2080,
     "name" : "(anonymous namespace)::kParamIndexConfigCounter"
    },
    {
     "enum_field_value" : 2081,
     "name" : "(anonymous namespace)::kParamIndexResourcesNeeded"
    },
    {
     "enum_field_value" : 2082,
     "name" : "(anonymous namespace)::kParamIndexResourcesReserved"
    },
    {
     "enum_field_value" : 2083,
     "name" : "(anonymous namespace)::kParamIndexOperatingRate"
    },
    {
     "enum_field_value" : 2084,
     "name" : "(anonymous namespace)::kParamIndexRealTimePriority"
    },
    {
     "enum_field_value" : 2085,
     "name" : "(anonymous namespace)::kParamIndexSecureMode"
    },
    {
     "enum_field_value" : 4096,
     "name" : "(anonymous namespace)::kParamIndexBitrate"
    },
    {
     "enum_field_value" : 4097,
     "name" : "(anonymous namespace)::kParamIndexBitrateMode"
    },
    {
     "enum_field_value" : 4098,
     "name" : "(anonymous namespace)::kParamIndexQuality"
    },
    {
     "enum_field_value" : 4099,
     "name" : "(anonymous namespace)::kParamIndexComplexity"
    },
    {
     "enum_field_value" : 4100,
     "name" : "(anonymous namespace)::kParamIndexPrependHeaderMode"
    },
    {
     "enum_field_value" : 6144,
     "name" : "(anonymous namespace)::kParamIndexPictureSize"
    },
    {
     "enum_field_value" : 6145,
     "name" : "(anonymous namespace)::kParamIndexCropRect"
    },
    {
     "enum_field_value" : 6146,
     "name" : "(anonymous namespace)::kParamIndexPixelFormat"
    },
    {
     "enum_field_value" : 6147,
     "name" : "(anonymous namespace)::kParamIndexRotation"
    },
    {
     "enum_field_value" : 6148,
     "name" : "(anonymous namespace)::kParamIndexPixelAspectRatio"
    },
    {
     "enum_field_value" : 6149,
     "name" : "(anonymous namespace)::kParamIndexScaledPictureSize"
    },
    {
     "enum_field_value" : 6150,
     "name" : "(anonymous namespace)::kParamIndexScaledCropRect"
    },
    {
     "enum_field_value" : 6151,
     "name" : "(anonymous namespace)::kParamIndexScalingMethod"
    },
    {
     "enum_field_value" : 6152,
     "name" : "(anonymous namespace)::kParamIndexColorInfo"
    },
    {
     "enum_field_value" : 6153,
     "name" : "(anonymous namespace)::kParamIndexColorAspects"
    },
    {
     "enum_field_value" : 6154,
     "name" : "(anonymous namespace)::kParamIndexHdrStaticMetadata"
    },
    {
     "enum_field_value" : 6155,
     "name" : "(anonymous namespace)::kParamIndexDefaultColorAspects"
    },
    {
     "enum_field_value" : 6156,
     "name" : "(anonymous namespace)::kParamIndexBlockSize"
    },
    {
     "enum_field_value" : 6157,
     "name" : "(anonymous namespace)::kParamIndexBlockCount"
    },
    {
     "enum_field_value" : 6158,
     "name" : "(anonymous namespace)::kParamIndexBlockRate"
    },
    {
     "enum_field_value" : 6159,
     "name" : "(anonymous namespace)::kParamIndexPictureTypeMask"
    },
    {
     "enum_field_value" : 6160,
     "name" : "(anonymous namespace)::kParamIndexPictureType"
    },
    {
     "enum_field_value" : 6161,
     "name" : "(anonymous namespace)::kParamIndexHdr10PlusMetadata"
    },
    {
     "enum_field_value" : 8192,
     "name" : "(anonymous namespace)::kParamIndexFrameRate"
    },
    {
     "enum_field_value" : 8193,
     "name" : "(anonymous namespace)::kParamIndexMaxBitrate"
    },
    {
     "enum_field_value" : 8194,
     "name" : "(anonymous namespace)::kParamIndexMaxFrameRate"
    },
    {
     "enum_field_value" : 8195,
     "name" : "(anonymous namespace)::kParamIndexMaxPictureSize"
    },
    {
     "enum_field_value" : 8196,
     "name" : "(anonymous namespace)::kParamIndexGop"
    },
    {
     "enum_field_value" : 8197,
     "name" : "(anonymous namespace)::kParamIndexSyncFrameInterval"
    },
    {
     "enum_field_value" : 8198,
     "name" : "(anonymous namespace)::kParamIndexRequestSyncFrame"
    },
    {
     "enum_field_value" : 8199,
     "name" : "(anonymous namespace)::kParamIndexTemporalLayering"
    },
    {
     "enum_field_value" : 8200,
     "name" : "(anonymous namespace)::kParamIndexLayerIndex"
    },
    {
     "enum_field_value" : 8201,
     "name" : "(anonymous namespace)::kParamIndexLayerCount"
    },
    {
     "enum_field_value" : 8202,
     "name" : "(anonymous namespace)::kParamIndexIntraRefresh"
    },
    {
     "enum_field_value" : 10240,
     "name" : "(anonymous namespace)::kParamIndexTileLayout"
    },
    {
     "enum_field_value" : 10241,
     "name" : "(anonymous namespace)::kParamIndexTileHandling"
    },
    {
     "enum_field_value" : 12288,
     "name" : "(anonymous namespace)::kParamIndexSampleRate"
    },
    {
     "enum_field_value" : 12289,
     "name" : "(anonymous namespace)::kParamIndexChannelCount"
    },
    {
     "enum_field_value" : 12290,
     "name" : "(anonymous namespace)::kParamIndexPcmEncoding"
    },
    {
     "enum_field_value" : 12291,
     "name" : "(anonymous namespace)::kParamIndexAacPackaging"
    },
    {
     "enum_field_value" : 12292,
     "name" : "(anonymous namespace)::kParamIndexMaxChannelCount"
    },
    {
     "enum_field_value" : 12293,
     "name" : "(anonymous namespace)::kParamIndexAacSbrMode"
    },
    {
     "enum_field_value" : 12294,
     "name" : "(anonymous namespace)::kParamIndexDrcEncodedTargetLevel"
    },
    {
     "enum_field_value" : 12295,
     "name" : "(anonymous namespace)::kParamIndexDrcTargetReferenceLevel"
    },
    {
     "enum_field_value" : 12296,
     "name" : "(anonymous namespace)::kParamIndexDrcCompression"
    },
    {
     "enum_field_value" : 12297,
     "name" : "(anonymous namespace)::kParamIndexDrcBoostFactor"
    },
    {
     "enum_field_value" : 12298,
     "name" : "(anonymous namespace)::kParamIndexDrcAttenuationFactor"
    },
    {
     "enum_field_value" : 12299,
     "name" : "(anonymous namespace)::kParamIndexDrcEffectType"
    },
    {
     "enum_field_value" : 16384,
     "name" : "(anonymous namespace)::kParamIndexPlatformLevel"
    },
    {
     "enum_field_value" : 16385,
     "name" : "(anonymous namespace)::kParamIndexPlatformFeatures"
    },
    {
     "enum_field_value" : 16386,
     "name" : "(anonymous namespace)::kParamIndexStoreIonUsage"
    },
    {
     "enum_field_value" : 16387,
     "name" : "(anonymous namespace)::kParamIndexAspectsToDataSpace"
    },
    {
     "enum_field_value" : 16388,
     "name" : "(anonymous namespace)::kParamIndexFlexiblePixelFormatDescriptor"
    },
    {
     "enum_field_value" : 16389,
     "name" : "(anonymous namespace)::kParamIndexFlexiblePixelFormatDescriptors"
    },
    {
     "enum_field_value" : 16390,
     "name" : "(anonymous namespace)::kParamIndexDataSpaceToAspects"
    },
    {
     "enum_field_value" : 16391,
     "name" : "(anonymous namespace)::kParamIndexDataSpace"
    },
    {
     "enum_field_value" : 16392,
     "name" : "(anonymous namespace)::kParamIndexSurfaceScaling"
    },
    {
     "enum_field_value" : 16393,
     "name" : "(anonymous namespace)::kParamIndexInputSurfaceEos"
    },
    {
     "enum_field_value" : 16394,
     "name" : "(anonymous namespace)::kParamIndexTimedControl"
    },
    {
     "enum_field_value" : 16395,
     "name" : "(anonymous namespace)::kParamIndexStartAt"
    },
    {
     "enum_field_value" : 16396,
     "name" : "(anonymous namespace)::kParamIndexSuspendAt"
    },
    {
     "enum_field_value" : 16397,
     "name" : "(anonymous namespace)::kParamIndexResumeAt"
    },
    {
     "enum_field_value" : 16398,
     "name" : "(anonymous namespace)::kParamIndexStopAt"
    },
    {
     "enum_field_value" : 16399,
     "name" : "(anonymous namespace)::kParamIndexTimeOffset"
    },
    {
     "enum_field_value" : 16400,
     "name" : "(anonymous namespace)::kParamIndexMinFrameRate"
    },
    {
     "enum_field_value" : 16401,
     "name" : "(anonymous namespace)::kParamIndexTimestampGapAdjustment"
    },
    {
     "enum_field_value" : 16402,
     "name" : "(anonymous namespace)::kParamIndexSurfaceAllocator"
    }
   ],
   "linker_set_key" : "(anonymous namespace)::C2ParamIndexKind",
   "name" : "(anonymous namespace)::C2ParamIndexKind",
   "referenced_type" : "type-3163",
   "self_type" : "type-3163",
   "size" : 4,
   "source_file" : "/frameworks/av/media/codec2/core/include/C2Config.h",
   "underlying_type" : "type-2",
   "unique_id" : "_ZTSN12_GLOBAL__N_116C2ParamIndexKindE"
  },
  {
   "alignment" : 4,
   "enum_fields" :
   [
    {
     "enum_field_value" : 1,
     "name" : "AHARDWAREBUFFER_FORMAT_R8G8B8A8_UNORM"
    },
    {
     "enum_field_value" : 2,
     "name" : "AHARDWAREBUFFER_FORMAT_R8G8B8X8_UNORM"
    },
    {
     "enum_field_value" : 3,
     "name" : "AHARDWAREBUFFER_FORMAT_R8G8B8_UNORM"
    },
    {
     "enum_field_value" : 4,
     "name" : "AHARDWAREBUFFER_FORMAT_R5G6B5_UNORM"
    },
    {
     "enum_field_value" : 22,
     "name" : "AHARDWAREBUFFER_FORMAT_R16G16B16A16_FLOAT"
    },
    {
     "enum_field_value" : 43,
     "name" : "AHARDWAREBUFFER_FORMAT_R10G10B10A2_UNORM"
    },
    {
     "enum_field_value" : 33,
     "name" : "AHARDWAREBUFFER_FORMAT_BLOB"
    },
    {
     "enum_field_value" : 48,
     "name" : "AHARDWAREBUFFER_FORMAT_D16_UNORM"
    },
    {
     "enum_field_value" : 49,
     "name" : "AHARDWAREBUFFER_FORMAT_D24_UNORM"
    },
    {
     "enum_field_value" : 50,
     "name" : "AHARDWAREBUFFER_FORMAT_D24_UNORM_S8_UINT"
    },
    {
     "enum_field_value" : 51,
     "name" : "AHARDWAREBUFFER_FORMAT_D32_FLOAT"
    },
    {
     "enum_field_value" : 52,
     "name" : "AHARDWAREBUFFER_FORMAT_D32_FLOAT_S8_UINT"
    },
    {
     "enum_field_value" : 53,
     "name" : "AHARDWAREBUFFER_FORMAT_S8_UINT"
    },
    {
     "enum_field_value" : 35,
     "name" : "AHARDWAREBUFFER_FORMAT_Y8Cb8Cr8_420"
    }
   ],
   "linker_set_key" : "AHardwareBuffer_Format",
   "name" : "AHardwareBuffer_Format",
   "referenced_type" : "type-2072",
   "self_type" : "type-2072",
   "size" : 4,
   "source_file" : "/frameworks/native/libs/nativewindow/include/android/hardware_buffer.h",
   "underlying_type" : "type-2",
   "unique_id" : "AHardwareBuffer_Format"
  },
  {
   "alignment" : 8,
   "enum_fields" :
   [
    {
     "enum_field_value" : 0,
     "name" : "AHARDWAREBUFFER_USAGE_CPU_READ_NEVER"
    },
    {
     "enum_field_value" : 2,
     "name" : "AHARDWAREBUFFER_USAGE_CPU_READ_RARELY"
    },
    {
     "enum_field_value" : 3,
     "name" : "AHARDWAREBUFFER_USAGE_CPU_READ_OFTEN"
    },
    {
     "enum_field_value" : 15,
     "name" : "AHARDWAREBUFFER_USAGE_CPU_READ_MASK"
    },
    {
     "enum_field_value" : 0,
     "name" : "AHARDWAREBUFFER_USAGE_CPU_WRITE_NEVER"
    },
    {
     "enum_field_value" : 32,
     "name" : "AHARDWAREBUFFER_USAGE_CPU_WRITE_RARELY"
    },
    {
     "enum_field_value" : 48,
     "name" : "AHARDWAREBUFFER_USAGE_CPU_WRITE_OFTEN"
    },
    {
     "enum_field_value" : 240,
     "name" : "AHARDWAREBUFFER_USAGE_CPU_WRITE_MASK"
    },
    {
     "enum_field_value" : 256,
     "name" : "AHARDWAREBUFFER_USAGE_GPU_SAMPLED_IMAGE"
    },
    {
     "enum_field_value" : 512,
     "name" : "AHARDWAREBUFFER_USAGE_GPU_FRAMEBUFFER"
    },
    {
     "enum_field_value" : 512,
     "name" : "AHARDWAREBUFFER_USAGE_GPU_COLOR_OUTPUT"
    },
    {
     "enum_field_value" : 2048,
     "name" : "AHARDWAREBUFFER_USAGE_COMPOSER_OVERLAY"
    },
    {
     "enum_field_value" : 16384,
     "name" : "AHARDWAREBUFFER_USAGE_PROTECTED_CONTENT"
    },
    {
     "enum_field_value" : 65536,
     "name" : "AHARDWAREBUFFER_USAGE_VIDEO_ENCODE"
    },
    {
     "enum_field_value" : 8388608,
     "name" : "AHARDWAREBUFFER_USAGE_SENSOR_DIRECT_DATA"
    },
    {
     "enum_field_value" : 16777216,
     "name" : "AHARDWAREBUFFER_USAGE_GPU_DATA_BUFFER"
    },
    {
     "enum_field_value" : 33554432,
     "name" : "AHARDWAREBUFFER_USAGE_GPU_CUBE_MAP"
    },
    {
     "enum_field_value" : 67108864,
     "name" : "AHARDWAREBUFFER_USAGE_GPU_MIPMAP_COMPLETE"
    },
    {
     "enum_field_value" : 268435456,
     "name" : "AHARDWAREBUFFER_USAGE_VENDOR_0"
    },
    {
     "enum_field_value" : 536870912,
     "name" : "AHARDWAREBUFFER_USAGE_VENDOR_1"
    },
    {
     "enum_field_value" : 1073741824,
     "name" : "AHARDWAREBUFFER_USAGE_VENDOR_2"
    },
    {
     "enum_field_value" : -2147483648,
     "name" : "AHARDWAREBUFFER_USAGE_VENDOR_3"
    },
    {
     "enum_field_value" : 0,
     "name" : "AHARDWAREBUFFER_USAGE_VENDOR_4"
    },
    {
     "enum_field_value" : 0,
     "name" : "AHARDWAREBUFFER_USAGE_VENDOR_5"
    },
    {
     "enum_field_value" : 0,
     "name" : "AHARDWAREBUFFER_USAGE_VENDOR_6"
    },
    {
     "enum_field_value" : 0,
     "name" : "AHARDWAREBUFFER_USAGE_VENDOR_7"
    },
    {
     "enum_field_value" : 0,
     "name" : "AHARDWAREBUFFER_USAGE_VENDOR_8"
    },
    {
     "enum_field_value" : 0,
     "name" : "AHARDWAREBUFFER_USAGE_VENDOR_9"
    },
    {
     "enum_field_value" : 0,
     "name" : "AHARDWAREBUFFER_USAGE_VENDOR_10"
    },
    {
     "enum_field_value" : 0,
     "name" : "AHARDWAREBUFFER_USAGE_VENDOR_11"
    },
    {
     "enum_field_value" : 0,
     "name" : "AHARDWAREBUFFER_USAGE_VENDOR_12"
    },
    {
     "enum_field_value" : 0,
     "name" : "AHARDWAREBUFFER_USAGE_VENDOR_13"
    },
    {
     "enum_field_value" : 0,
     "name" : "AHARDWAREBUFFER_USAGE_VENDOR_14"
    },
    {
     "enum_field_value" : 0,
     "name" : "AHARDWAREBUFFER_USAGE_VENDOR_15"
    },
    {
     "enum_field_value" : 0,
     "name" : "AHARDWAREBUFFER_USAGE_VENDOR_16"
    },
    {
     "enum_field_value" : 0,
     "name" : "AHARDWAREBUFFER_USAGE_VENDOR_17"
    },
    {
     "enum_field_value" : 0,
     "name" : "AHARDWAREBUFFER_USAGE_VENDOR_18"
    },
    {
     "enum_field_value" : 0,
     "name" : "AHARDWAREBUFFER_USAGE_VENDOR_19"
    }
   ],
   "linker_set_key" : "AHardwareBuffer_UsageFlags",
   "name" : "AHardwareBuffer_UsageFlags",
   "referenced_type" : "type-2073",
   "self_type" : "type-2073",
   "size" : 8,
   "source_file" : "/frameworks/native/libs/nativewindow/include/android/hardware_buffer.h",
   "underlying_type" : "type-221",
   "unique_id" : "AHardwareBuffer_UsageFlags"
  },
  {
   "alignment" : 4,
   "enum_fields" :
   [
    {
     "enum_field_value" : 1,
     "name" : "C2Allocator::LINEAR"
    },
    {
     "enum_field_value" : 2,
     "name" : "C2Allocator::GRAPHIC"
    }
   ],
   "linker_set_key" : "C2Allocator::type_t",
   "name" : "C2Allocator::type_t",
   "referenced_type" : "type-2884",
   "self_type" : "type-2884",
   "size" : 4,
   "source_file" : "/frameworks/av/media/codec2/core/include/C2Buffer.h",
   "underlying_type" : "type-2",
   "unique_id" : "_ZTSN11C2Allocator6type_tE"
  },
  {
   "alignment" : 4,
   "enum_fields" :
   [
    {
     "enum_field_value" : 0,
     "name" : "C2BufferData::INVALID"
    },
    {
     "enum_field_value" : 1,
     "name" : "C2BufferData::LINEAR"
    },
    {
     "enum_field_value" : 2,
     "name" : "C2BufferData::LINEAR_CHUNKS"
    },
    {
     "enum_field_value" : 3,
     "name" : "C2BufferData::GRAPHIC"
    },
    {
     "enum_field_value" : 4,
     "name" : "C2BufferData::GRAPHIC_CHUNKS"
    }
   ],
   "linker_set_key" : "C2BufferData::type_t",
   "name" : "C2BufferData::type_t",
   "referenced_type" : "type-1605",
   "self_type" : "type-1605",
   "size" : 4,
   "source_file" : "/frameworks/av/media/codec2/core/include/C2Buffer.h",
   "underlying_type" : "type-2",
   "unique_id" : "_ZTSN12C2BufferData6type_tE"
  },
  {
   "alignment" : 4,
   "enum_fields" :
   [
    {
     "enum_field_value" : 0,
     "name" : "C2Color::MATRIX_UNSPECIFIED"
    },
    {
     "enum_field_value" : 1,
     "name" : "C2Color::MATRIX_BT709"
    },
    {
     "enum_field_value" : 2,
     "name" : "C2Color::MATRIX_FCC47_73_682"
    },
    {
     "enum_field_value" : 3,
     "name" : "C2Color::MATRIX_BT601"
    },
    {
     "enum_field_value" : 4,
     "name" : "C2Color::MATRIX_240M"
    },
    {
     "enum_field_value" : 5,
     "name" : "C2Color::MATRIX_BT2020"
    },
    {
     "enum_field_value" : 6,
     "name" : "C2Color::MATRIX_BT2020_CONSTANT"
    },
    {
     "enum_field_value" : 128,
     "name" : "C2Color::MATRIX_VENDOR_START"
    },
    {
     "enum_field_value" : 255,
     "name" : "C2Color::MATRIX_OTHER"
    }
   ],
   "linker_set_key" : "C2Color::matrix_t",
   "name" : "C2Color::matrix_t",
   "referenced_type" : "type-3242",
   "self_type" : "type-3242",
   "size" : 4,
   "source_file" : "/frameworks/av/media/codec2/core/include/C2Config.h",
   "underlying_type" : "type-2",
   "unique_id" : "_ZTSN7C2Color8matrix_tE"
  },
  {
   "alignment" : 4,
   "enum_fields" :
   [
    {
     "enum_field_value" : 0,
     "name" : "C2Color::UNKNOWN_LAYOUT"
    },
    {
     "enum_field_value" : 1,
     "name" : "C2Color::PLANAR_PACKED"
    },
    {
     "enum_field_value" : 2,
     "name" : "C2Color::SEMIPLANAR_PACKED"
    },
    {
     "enum_field_value" : 3,
     "name" : "C2Color::INTERLEAVED_PACKED"
    },
    {
     "enum_field_value" : 4,
     "name" : "C2Color::INTERLEAVED_ALIGNED"
    }
   ],
   "linker_set_key" : "C2Color::plane_layout_t",
   "name" : "C2Color::plane_layout_t",
   "referenced_type" : "type-3272",
   "self_type" : "type-3272",
   "size" : 4,
   "source_file" : "/frameworks/av/media/codec2/core/include/C2Config.h",
   "underlying_type" : "type-2",
   "unique_id" : "_ZTSN7C2Color14plane_layout_tE"
  },
  {
   "alignment" : 4,
   "enum_fields" :
   [
    {
     "enum_field_value" : 0,
     "name" : "C2Color::PRIMARIES_UNSPECIFIED"
    },
    {
     "enum_field_value" : 1,
     "name" : "C2Color::PRIMARIES_BT709"
    },
    {
     "enum_field_value" : 2,
     "name" : "C2Color::PRIMARIES_BT470_M"
    },
    {
     "enum_field_value" : 3,
     "name" : "C2Color::PRIMARIES_BT601_625"
    },
    {
     "enum_field_value" : 4,
     "name" : "C2Color::PRIMARIES_BT601_525"
    },
    {
     "enum_field_value" : 5,
     "name" : "C2Color::PRIMARIES_GENERIC_FILM"
    },
    {
     "enum_field_value" : 6,
     "name" : "C2Color::PRIMARIES_BT2020"
    },
    {
     "enum_field_value" : 7,
     "name" : "C2Color::PRIMARIES_RP431"
    },
    {
     "enum_field_value" : 8,
     "name" : "C2Color::PRIMARIES_EG432"
    },
    {
     "enum_field_value" : 9,
     "name" : "C2Color::PRIMARIES_EBU3213"
    },
    {
     "enum_field_value" : 128,
     "name" : "C2Color::PRIMARIES_VENDOR_START"
    },
    {
     "enum_field_value" : 255,
     "name" : "C2Color::PRIMARIES_OTHER"
    }
   ],
   "linker_set_key" : "C2Color::primaries_t",
   "name" : "C2Color::primaries_t",
   "referenced_type" : "type-3240",
   "self_type" : "type-3240",
   "size" : 4,
   "source_file" : "/frameworks/av/media/codec2/core/include/C2Config.h",
   "underlying_type" : "type-2",
   "unique_id" : "_ZTSN7C2Color11primaries_tE"
  },
  {
   "alignment" : 4,
   "enum_fields" :
   [
    {
     "enum_field_value" : 0,
     "name" : "C2Color::RANGE_UNSPECIFIED"
    },
    {
     "enum_field_value" : 1,
     "name" : "C2Color::RANGE_FULL"
    },
    {
     "enum_field_value" : 2,
     "name" : "C2Color::RANGE_LIMITED"
    },
    {
     "enum_field_value" : 128,
     "name" : "C2Color::RANGE_VENDOR_START"
    },
    {
     "enum_field_value" : 255,
     "name" : "C2Color::RANGE_OTHER"
    }
   ],
   "linker_set_key" : "C2Color::range_t",
   "name" : "C2Color::range_t",
   "referenced_type" : "type-3239",
   "self_type" : "type-3239",
   "size" : 4,
   "source_file" : "/frameworks/av/media/codec2/core/include/C2Config.h",
   "underlying_type" : "type-2",
   "unique_id" : "_ZTSN7C2Color7range_tE"
  },
  {
   "alignment" : 4,
   "enum_fields" :
   [
    {
     "enum_field_value" : 0,
     "name" : "C2Color::MONOCHROME"
    },
    {
     "enum_field_value" : 1,
     "name" : "C2Color::MONOCHROME_ALPHA"
    },
    {
     "enum_field_value" : 2,
     "name" : "C2Color::RGB"
    },
    {
     "enum_field_value" : 3,
     "name" : "C2Color::RGBA"
    },
    {
     "enum_field_value" : 4,
     "name" : "C2Color::YUV_420"
    },
    {
     "enum_field_value" : 5,
     "name" : "C2Color::YUV_422"
    },
    {
     "enum_field_value" : 6,
     "name" : "C2Color::YUV_444"
    },
    {
     "enum_field_value" : 7,
     "name" : "C2Color::YUVA_444"
    }
   ],
   "linker_set_key" : "C2Color::subsampling_t",
   "name" : "C2Color::subsampling_t",
   "referenced_type" : "type-3236",
   "self_type" : "type-3236",
   "size" : 4,
   "source_file" : "/frameworks/av/media/codec2/core/include/C2Config.h",
   "underlying_type" : "type-2",
   "unique_id" : "_ZTSN7C2Color13subsampling_tE"
  },
  {
   "alignment" : 4,
   "enum_fields" :
   [
    {
     "enum_field_value" : 0,
     "name" : "C2Color::TRANSFER_UNSPECIFIED"
    },
    {
     "enum_field_value" : 1,
     "name" : "C2Color::TRANSFER_LINEAR"
    },
    {
     "enum_field_value" : 2,
     "name" : "C2Color::TRANSFER_SRGB"
    },
    {
     "enum_field_value" : 3,
     "name" : "C2Color::TRANSFER_170M"
    },
    {
     "enum_field_value" : 4,
     "name" : "C2Color::TRANSFER_GAMMA22"
    },
    {
     "enum_field_value" : 5,
     "name" : "C2Color::TRANSFER_GAMMA28"
    },
    {
     "enum_field_value" : 6,
     "name" : "C2Color::TRANSFER_ST2084"
    },
    {
     "enum_field_value" : 7,
     "name" : "C2Color::TRANSFER_HLG"
    },
    {
     "enum_field_value" : 64,
     "name" : "C2Color::TRANSFER_240M"
    },
    {
     "enum_field_value" : 65,
     "name" : "C2Color::TRANSFER_XVYCC"
    },
    {
     "enum_field_value" : 66,
     "name" : "C2Color::TRANSFER_BT1361"
    },
    {
     "enum_field_value" : 67,
     "name" : "C2Color::TRANSFER_ST428"
    },
    {
     "enum_field_value" : 128,
     "name" : "C2Color::TRANSFER_VENDOR_START"
    },
    {
     "enum_field_value" : 255,
     "name" : "C2Color::TRANSFER_OTHER"
    }
   ],
   "linker_set_key" : "C2Color::transfer_t",
   "name" : "C2Color::transfer_t",
   "referenced_type" : "type-3241",
   "self_type" : "type-3241",
   "size" : 4,
   "source_file" : "/frameworks/av/media/codec2/core/include/C2Config.h",
   "underlying_type" : "type-2",
   "unique_id" : "_ZTSN7C2Color10transfer_tE"
  },
  {
   "alignment" : 8,
   "enum_fields" :
   [
    {
     "enum_field_value" : 1,
     "name" : "C2Component::ATTRIB_IS_TEMPORAL"
    }
   ],
   "linker_set_key" : "C2Component::attrib_t",
   "name" : "C2Component::attrib_t",
   "referenced_type" : "type-3176",
   "self_type" : "type-3176",
   "size" : 8,
   "source_file" : "/frameworks/av/media/codec2/core/include/C2Config.h",
   "underlying_type" : "type-221",
   "unique_id" : "_ZTSN11C2Component8attrib_tE"
  },
  {
   "alignment" : 4,
   "enum_fields" :
   [
    {
     "enum_field_value" : 0,
     "name" : "C2Component::DOMAIN_OTHER"
    },
    {
     "enum_field_value" : 1,
     "name" : "C2Component::DOMAIN_VIDEO"
    },
    {
     "enum_field_value" : 2,
     "name" : "C2Component::DOMAIN_AUDIO"
    },
    {
     "enum_field_value" : 3,
     "name" : "C2Component::DOMAIN_IMAGE"
    }
   ],
   "linker_set_key" : "C2Component::domain_t",
   "name" : "C2Component::domain_t",
   "referenced_type" : "type-1233",
   "self_type" : "type-1233",
   "size" : 4,
   "source_file" : "/frameworks/av/media/codec2/core/include/C2Component.h",
   "underlying_type" : "type-2",
   "unique_id" : "_ZTSN11C2Component8domain_tE"
  },
  {
   "alignment" : 4,
   "enum_fields" :
   [
    {
     "enum_field_value" : 0,
     "name" : "C2Component::DRAIN_COMPONENT_WITH_EOS"
    },
    {
     "enum_field_value" : 1,
     "name" : "C2Component::DRAIN_COMPONENT_NO_EOS"
    },
    {
     "enum_field_value" : 65536,
     "name" : "C2Component::DRAIN_CHAIN"
    }
   ],
   "linker_set_key" : "C2Component::drain_mode_t",
   "name" : "C2Component::drain_mode_t",
   "referenced_type" : "type-1770",
   "self_type" : "type-1770",
   "size" : 4,
   "source_file" : "/frameworks/av/media/codec2/core/include/C2Component.h",
   "underlying_type" : "type-2",
   "unique_id" : "_ZTSN11C2Component12drain_mode_tE"
  },
  {
   "alignment" : 4,
   "enum_fields" :
   [
    {
     "enum_field_value" : 0,
     "name" : "C2Component::FLUSH_COMPONENT"
    },
    {
     "enum_field_value" : 65536,
     "name" : "C2Component::FLUSH_CHAIN"
    }
   ],
   "linker_set_key" : "C2Component::flush_mode_t",
   "name" : "C2Component::flush_mode_t",
   "referenced_type" : "type-1767",
   "self_type" : "type-1767",
   "size" : 4,
   "source_file" : "/frameworks/av/media/codec2/core/include/C2Component.h",
   "underlying_type" : "type-2",
   "unique_id" : "_ZTSN11C2Component12flush_mode_tE"
  },
  {
   "alignment" : 4,
   "enum_fields" :
   [
    {
     "enum_field_value" : 0,
     "name" : "C2Component::KIND_OTHER"
    },
    {
     "enum_field_value" : 1,
     "name" : "C2Component::KIND_DECODER"
    },
    {
     "enum_field_value" : 2,
     "name" : "C2Component::KIND_ENCODER"
    }
   ],
   "linker_set_key" : "C2Component::kind_t",
   "name" : "C2Component::kind_t",
   "referenced_type" : "type-1234",
   "self_type" : "type-1234",
   "size" : 4,
   "source_file" : "/frameworks/av/media/codec2/core/include/C2Component.h",
   "underlying_type" : "type-2",
   "unique_id" : "_ZTSN11C2Component6kind_tE"
  },
  {
   "alignment" : 4,
   "enum_fields" :
   [
    {
     "enum_field_value" : 0,
     "name" : "C2Config::AAC_PACKAGING_RAW"
    },
    {
     "enum_field_value" : 1,
     "name" : "C2Config::AAC_PACKAGING_ADTS"
    }
   ],
   "linker_set_key" : "C2Config::aac_packaging_t",
   "name" : "C2Config::aac_packaging_t",
   "referenced_type" : "type-3265",
   "self_type" : "type-3265",
   "size" : 4,
   "source_file" : "/frameworks/av/media/codec2/core/include/C2Config.h",
   "underlying_type" : "type-2",
   "unique_id" : "_ZTSN8C2Config15aac_packaging_tE"
  },
  {
   "alignment" : 4,
   "enum_fields" :
   [
    {
     "enum_field_value" : 0,
     "name" : "C2Config::AAC_SBR_OFF"
    },
    {
     "enum_field_value" : 1,
     "name" : "C2Config::AAC_SBR_SINGLE_RATE"
    },
    {
     "enum_field_value" : 2,
     "name" : "C2Config::AAC_SBR_DUAL_RATE"
    },
    {
     "enum_field_value" : 3,
     "name" : "C2Config::AAC_SBR_AUTO"
    }
   ],
   "linker_set_key" : "C2Config::aac_sbr_mode_t",
   "name" : "C2Config::aac_sbr_mode_t",
   "referenced_type" : "type-3262",
   "self_type" : "type-3262",
   "size" : 4,
   "source_file" : "/frameworks/av/media/codec2/core/include/C2Config.h",
   "underlying_type" : "type-2",
   "unique_id" : "_ZTSN8C2Config14aac_sbr_mode_tE"
  },
  {
   "alignment" : 8,
   "enum_fields" :
   [
    {
     "enum_field_value" : 1,
     "name" : "C2Config::API_REFLECTION"
    },
    {
     "enum_field_value" : 2,
     "name" : "C2Config::API_VALUES"
    },
    {
     "enum_field_value" : 4,
     "name" : "C2Config::API_CURRENT_VALUES"
    },
    {
     "enum_field_value" : 8,
     "name" : "C2Config::API_DEPENDENCY"
    },
    {
     "enum_field_value" : 0,
     "name" : "C2Config::API_STREAMS"
    },
    {
     "enum_field_value" : 0,
     "name" : "C2Config::API_TUNNELING"
    }
   ],
   "linker_set_key" : "C2Config::api_feature_t",
   "name" : "C2Config::api_feature_t",
   "referenced_type" : "type-3167",
   "self_type" : "type-3167",
   "size" : 8,
   "source_file" : "/frameworks/av/media/codec2/core/include/C2Config.h",
   "underlying_type" : "type-221",
   "unique_id" : "_ZTSN8C2Config13api_feature_tE"
  },
  {
   "alignment" : 4,
   "enum_fields" :
   [
    {
     "enum_field_value" : 0,
     "name" : "C2Config::API_L0_1"
    }
   ],
   "linker_set_key" : "C2Config::api_level_t",
   "name" : "C2Config::api_level_t",
   "referenced_type" : "type-3164",
   "self_type" : "type-3164",
   "size" : 4,
   "source_file" : "/frameworks/av/media/codec2/core/include/C2Config.h",
   "underlying_type" : "type-2",
   "unique_id" : "_ZTSN8C2Config11api_level_tE"
  },
  {
   "alignment" : 4,
   "enum_fields" :
   [
    {
     "enum_field_value" : 0,
     "name" : "C2Config::BITRATE_CONST_SKIP_ALLOWED"
    },
    {
     "enum_field_value" : 1,
     "name" : "C2Config::BITRATE_CONST"
    },
    {
     "enum_field_value" : 2,
     "name" : "C2Config::BITRATE_VARIABLE_SKIP_ALLOWED"
    },
    {
     "enum_field_value" : 3,
     "name" : "C2Config::BITRATE_VARIABLE"
    },
    {
     "enum_field_value" : 7,
     "name" : "C2Config::BITRATE_IGNORE"
    },
    {
     "enum_field_value" : 1,
     "name" : "C2Config::BITRATE_FLAG_KEEP_ALL_FRAMES"
    },
    {
     "enum_field_value" : 2,
     "name" : "C2Config::BITRATE_FLAG_CAN_VARY"
    },
    {
     "enum_field_value" : 4,
     "name" : "C2Config::BITRATE_FLAG_CAN_EXCEED"
    }
   ],
   "linker_set_key" : "C2Config::bitrate_mode_t",
   "name" : "C2Config::bitrate_mode_t",
   "referenced_type" : "type-3222",
   "self_type" : "type-3222",
   "size" : 4,
   "source_file" : "/frameworks/av/media/codec2/core/include/C2Config.h",
   "underlying_type" : "type-2",
   "unique_id" : "_ZTSN8C2Config14bitrate_mode_tE"
  },
  {
   "alignment" : 4,
   "enum_fields" :
   [
    {
     "enum_field_value" : 0,
     "name" : "C2Config::DRC_COMPRESSION_ODM_DEFAULT"
    },
    {
     "enum_field_value" : 1,
     "name" : "C2Config::DRC_COMPRESSION_NONE"
    },
    {
     "enum_field_value" : 2,
     "name" : "C2Config::DRC_COMPRESSION_LIGHT"
    },
    {
     "enum_field_value" : 3,
     "name" : "C2Config::DRC_COMPRESSION_HEAVY"
    }
   ],
   "linker_set_key" : "C2Config::drc_compression_mode_t",
   "name" : "C2Config::drc_compression_mode_t",
   "referenced_type" : "type-3263",
   "self_type" : "type-3263",
   "size" : 4,
   "source_file" : "/frameworks/av/media/codec2/core/include/C2Config.h",
   "underlying_type" : "type-19",
   "unique_id" : "_ZTSN8C2Config22drc_compression_mode_tE"
  },
  {
   "alignment" : 4,
   "enum_fields" :
   [
    {
     "enum_field_value" : -2,
     "name" : "C2Config::DRC_EFFECT_ODM_DEFAULT"
    },
    {
     "enum_field_value" : -1,
     "name" : "C2Config::DRC_EFFECT_OFF"
    },
    {
     "enum_field_value" : 0,
     "name" : "C2Config::DRC_EFFECT_NONE"
    },
    {
     "enum_field_value" : 1,
     "name" : "C2Config::DRC_EFFECT_LATE_NIGHT"
    },
    {
     "enum_field_value" : 2,
     "name" : "C2Config::DRC_EFFECT_NOISY_ENVIRONMENT"
    },
    {
     "enum_field_value" : 3,
     "name" : "C2Config::DRC_EFFECT_LIMITED_PLAYBACK_RANGE"
    },
    {
     "enum_field_value" : 4,
     "name" : "C2Config::DRC_EFFECT_LOW_PLAYBACK_LEVEL"
    },
    {
     "enum_field_value" : 5,
     "name" : "C2Config::DRC_EFFECT_DIALOG_ENHANCEMENT"
    },
    {
     "enum_field_value" : 6,
     "name" : "C2Config::DRC_EFFECT_GENERAL_COMPRESSION"
    }
   ],
   "linker_set_key" : "C2Config::drc_effect_type_t",
   "name" : "C2Config::drc_effect_type_t",
   "referenced_type" : "type-3264",
   "self_type" : "type-3264",
   "size" : 4,
   "source_file" : "/frameworks/av/media/codec2/core/include/C2Config.h",
   "underlying_type" : "type-19",
   "unique_id" : "_ZTSN8C2Config17drc_effect_type_tE"
  },
  {
   "alignment" : 4,
   "enum_fields" :
   [
    {
     "enum_field_value" : 0,
     "name" : "C2Config::INTRA_REFRESH_DISABLED"
    },
    {
     "enum_field_value" : 1,
     "name" : "C2Config::INTRA_REFRESH_ARBITRARY"
    }
   ],
   "linker_set_key" : "C2Config::intra_refresh_mode_t",
   "name" : "C2Config::intra_refresh_mode_t",
   "referenced_type" : "type-3255",
   "self_type" : "type-3255",
   "size" : 4,
   "source_file" : "/frameworks/av/media/codec2/core/include/C2Config.h",
   "underlying_type" : "type-2",
   "unique_id" : "_ZTSN8C2Config20intra_refresh_mode_tE"
  },
  {
   "alignment" : 4,
   "enum_fields" :
   [
    {
     "enum_field_value" : 0,
     "name" : "C2Config::LEVEL_UNUSED"
    },
    {
     "enum_field_value" : 4096,
     "name" : "C2Config::LEVEL_MP2V_LOW"
    },
    {
     "enum_field_value" : 4097,
     "name" : "C2Config::LEVEL_MP2V_MAIN"
    },
    {
     "enum_field_value" : 4098,
     "name" : "C2Config::LEVEL_MP2V_HIGH_1440"
    },
    {
     "enum_field_value" : 4099,
     "name" : "C2Config::LEVEL_MP2V_HIGH"
    },
    {
     "enum_field_value" : 4100,
     "name" : "C2Config::LEVEL_MP2V_HIGHP"
    },
    {
     "enum_field_value" : 12288,
     "name" : "C2Config::LEVEL_H263_10"
    },
    {
     "enum_field_value" : 12289,
     "name" : "C2Config::LEVEL_H263_20"
    },
    {
     "enum_field_value" : 12290,
     "name" : "C2Config::LEVEL_H263_30"
    },
    {
     "enum_field_value" : 12291,
     "name" : "C2Config::LEVEL_H263_40"
    },
    {
     "enum_field_value" : 12292,
     "name" : "C2Config::LEVEL_H263_45"
    },
    {
     "enum_field_value" : 12293,
     "name" : "C2Config::LEVEL_H263_50"
    },
    {
     "enum_field_value" : 12294,
     "name" : "C2Config::LEVEL_H263_60"
    },
    {
     "enum_field_value" : 12295,
     "name" : "C2Config::LEVEL_H263_70"
    },
    {
     "enum_field_value" : 16384,
     "name" : "C2Config::LEVEL_MP4V_0"
    },
    {
     "enum_field_value" : 16385,
     "name" : "C2Config::LEVEL_MP4V_0B"
    },
    {
     "enum_field_value" : 16386,
     "name" : "C2Config::LEVEL_MP4V_1"
    },
    {
     "enum_field_value" : 16387,
     "name" : "C2Config::LEVEL_MP4V_2"
    },
    {
     "enum_field_value" : 16388,
     "name" : "C2Config::LEVEL_MP4V_3"
    },
    {
     "enum_field_value" : 16389,
     "name" : "C2Config::LEVEL_MP4V_3B"
    },
    {
     "enum_field_value" : 16390,
     "name" : "C2Config::LEVEL_MP4V_4"
    },
    {
     "enum_field_value" : 16391,
     "name" : "C2Config::LEVEL_MP4V_4A"
    },
    {
     "enum_field_value" : 16392,
     "name" : "C2Config::LEVEL_MP4V_5"
    },
    {
     "enum_field_value" : 16393,
     "name" : "C2Config::LEVEL_MP4V_6"
    },
    {
     "enum_field_value" : 20480,
     "name" : "C2Config::LEVEL_AVC_1"
    },
    {
     "enum_field_value" : 20481,
     "name" : "C2Config::LEVEL_AVC_1B"
    },
    {
     "enum_field_value" : 20482,
     "name" : "C2Config::LEVEL_AVC_1_1"
    },
    {
     "enum_field_value" : 20483,
     "name" : "C2Config::LEVEL_AVC_1_2"
    },
    {
     "enum_field_value" : 20484,
     "name" : "C2Config::LEVEL_AVC_1_3"
    },
    {
     "enum_field_value" : 20485,
     "name" : "C2Config::LEVEL_AVC_2"
    },
    {
     "enum_field_value" : 20486,
     "name" : "C2Config::LEVEL_AVC_2_1"
    },
    {
     "enum_field_value" : 20487,
     "name" : "C2Config::LEVEL_AVC_2_2"
    },
    {
     "enum_field_value" : 20488,
     "name" : "C2Config::LEVEL_AVC_3"
    },
    {
     "enum_field_value" : 20489,
     "name" : "C2Config::LEVEL_AVC_3_1"
    },
    {
     "enum_field_value" : 20490,
     "name" : "C2Config::LEVEL_AVC_3_2"
    },
    {
     "enum_field_value" : 20491,
     "name" : "C2Config::LEVEL_AVC_4"
    },
    {
     "enum_field_value" : 20492,
     "name" : "C2Config::LEVEL_AVC_4_1"
    },
    {
     "enum_field_value" : 20493,
     "name" : "C2Config::LEVEL_AVC_4_2"
    },
    {
     "enum_field_value" : 20494,
     "name" : "C2Config::LEVEL_AVC_5"
    },
    {
     "enum_field_value" : 20495,
     "name" : "C2Config::LEVEL_AVC_5_1"
    },
    {
     "enum_field_value" : 20496,
     "name" : "C2Config::LEVEL_AVC_5_2"
    },
    {
     "enum_field_value" : 20497,
     "name" : "C2Config::LEVEL_AVC_6"
    },
    {
     "enum_field_value" : 20498,
     "name" : "C2Config::LEVEL_AVC_6_1"
    },
    {
     "enum_field_value" : 20499,
     "name" : "C2Config::LEVEL_AVC_6_2"
    },
    {
     "enum_field_value" : 24576,
     "name" : "C2Config::LEVEL_HEVC_MAIN_1"
    },
    {
     "enum_field_value" : 24577,
     "name" : "C2Config::LEVEL_HEVC_MAIN_2"
    },
    {
     "enum_field_value" : 24578,
     "name" : "C2Config::LEVEL_HEVC_MAIN_2_1"
    },
    {
     "enum_field_value" : 24579,
     "name" : "C2Config::LEVEL_HEVC_MAIN_3"
    },
    {
     "enum_field_value" : 24580,
     "name" : "C2Config::LEVEL_HEVC_MAIN_3_1"
    },
    {
     "enum_field_value" : 24581,
     "name" : "C2Config::LEVEL_HEVC_MAIN_4"
    },
    {
     "enum_field_value" : 24582,
     "name" : "C2Config::LEVEL_HEVC_MAIN_4_1"
    },
    {
     "enum_field_value" : 24583,
     "name" : "C2Config::LEVEL_HEVC_MAIN_5"
    },
    {
     "enum_field_value" : 24584,
     "name" : "C2Config::LEVEL_HEVC_MAIN_5_1"
    },
    {
     "enum_field_value" : 24585,
     "name" : "C2Config::LEVEL_HEVC_MAIN_5_2"
    },
    {
     "enum_field_value" : 24586,
     "name" : "C2Config::LEVEL_HEVC_MAIN_6"
    },
    {
     "enum_field_value" : 24587,
     "name" : "C2Config::LEVEL_HEVC_MAIN_6_1"
    },
    {
     "enum_field_value" : 24588,
     "name" : "C2Config::LEVEL_HEVC_MAIN_6_2"
    },
    {
     "enum_field_value" : 24832,
     "name" : "C2Config::LEVEL_HEVC_HIGH_4"
    },
    {
     "enum_field_value" : 24833,
     "name" : "C2Config::LEVEL_HEVC_HIGH_4_1"
    },
    {
     "enum_field_value" : 24834,
     "name" : "C2Config::LEVEL_HEVC_HIGH_5"
    },
    {
     "enum_field_value" : 24835,
     "name" : "C2Config::LEVEL_HEVC_HIGH_5_1"
    },
    {
     "enum_field_value" : 24836,
     "name" : "C2Config::LEVEL_HEVC_HIGH_5_2"
    },
    {
     "enum_field_value" : 24837,
     "name" : "C2Config::LEVEL_HEVC_HIGH_6"
    },
    {
     "enum_field_value" : 24838,
     "name" : "C2Config::LEVEL_HEVC_HIGH_6_1"
    },
    {
     "enum_field_value" : 24839,
     "name" : "C2Config::LEVEL_HEVC_HIGH_6_2"
    },
    {
     "enum_field_value" : 28672,
     "name" : "C2Config::LEVEL_VP9_1"
    },
    {
     "enum_field_value" : 28673,
     "name" : "C2Config::LEVEL_VP9_1_1"
    },
    {
     "enum_field_value" : 28674,
     "name" : "C2Config::LEVEL_VP9_2"
    },
    {
     "enum_field_value" : 28675,
     "name" : "C2Config::LEVEL_VP9_2_1"
    },
    {
     "enum_field_value" : 28676,
     "name" : "C2Config::LEVEL_VP9_3"
    },
    {
     "enum_field_value" : 28677,
     "name" : "C2Config::LEVEL_VP9_3_1"
    },
    {
     "enum_field_value" : 28678,
     "name" : "C2Config::LEVEL_VP9_4"
    },
    {
     "enum_field_value" : 28679,
     "name" : "C2Config::LEVEL_VP9_4_1"
    },
    {
     "enum_field_value" : 28680,
     "name" : "C2Config::LEVEL_VP9_5"
    },
    {
     "enum_field_value" : 28681,
     "name" : "C2Config::LEVEL_VP9_5_1"
    },
    {
     "enum_field_value" : 28682,
     "name" : "C2Config::LEVEL_VP9_5_2"
    },
    {
     "enum_field_value" : 28683,
     "name" : "C2Config::LEVEL_VP9_6"
    },
    {
     "enum_field_value" : 28684,
     "name" : "C2Config::LEVEL_VP9_6_1"
    },
    {
     "enum_field_value" : 28685,
     "name" : "C2Config::LEVEL_VP9_6_2"
    },
    {
     "enum_field_value" : 32768,
     "name" : "C2Config::LEVEL_DV_MAIN_HD_24"
    },
    {
     "enum_field_value" : 32769,
     "name" : "C2Config::LEVEL_DV_MAIN_HD_30"
    },
    {
     "enum_field_value" : 32770,
     "name" : "C2Config::LEVEL_DV_MAIN_FHD_24"
    },
    {
     "enum_field_value" : 32771,
     "name" : "C2Config::LEVEL_DV_MAIN_FHD_30"
    },
    {
     "enum_field_value" : 32772,
     "name" : "C2Config::LEVEL_DV_MAIN_FHD_60"
    },
    {
     "enum_field_value" : 32773,
     "name" : "C2Config::LEVEL_DV_MAIN_UHD_24"
    },
    {
     "enum_field_value" : 32774,
     "name" : "C2Config::LEVEL_DV_MAIN_UHD_30"
    },
    {
     "enum_field_value" : 32775,
     "name" : "C2Config::LEVEL_DV_MAIN_UHD_48"
    },
    {
     "enum_field_value" : 32776,
     "name" : "C2Config::LEVEL_DV_MAIN_UHD_60"
    },
    {
     "enum_field_value" : 33024,
     "name" : "C2Config::LEVEL_DV_HIGH_HD_24"
    },
    {
     "enum_field_value" : 33025,
     "name" : "C2Config::LEVEL_DV_HIGH_HD_30"
    },
    {
     "enum_field_value" : 33026,
     "name" : "C2Config::LEVEL_DV_HIGH_FHD_24"
    },
    {
     "enum_field_value" : 33027,
     "name" : "C2Config::LEVEL_DV_HIGH_FHD_30"
    },
    {
     "enum_field_value" : 33028,
     "name" : "C2Config::LEVEL_DV_HIGH_FHD_60"
    },
    {
     "enum_field_value" : 33029,
     "name" : "C2Config::LEVEL_DV_HIGH_UHD_24"
    },
    {
     "enum_field_value" : 33030,
     "name" : "C2Config::LEVEL_DV_HIGH_UHD_30"
    },
    {
     "enum_field_value" : 33031,
     "name" : "C2Config::LEVEL_DV_HIGH_UHD_48"
    },
    {
     "enum_field_value" : 33032,
     "name" : "C2Config::LEVEL_DV_HIGH_UHD_60"
    },
    {
     "enum_field_value" : 36864,
     "name" : "C2Config::LEVEL_AV1_2"
    },
    {
     "enum_field_value" : 36865,
     "name" : "C2Config::LEVEL_AV1_2_1"
    },
    {
     "enum_field_value" : 36866,
     "name" : "C2Config::LEVEL_AV1_2_2"
    },
    {
     "enum_field_value" : 36867,
     "name" : "C2Config::LEVEL_AV1_2_3"
    },
    {
     "enum_field_value" : 36868,
     "name" : "C2Config::LEVEL_AV1_3"
    },
    {
     "enum_field_value" : 36869,
     "name" : "C2Config::LEVEL_AV1_3_1"
    },
    {
     "enum_field_value" : 36870,
     "name" : "C2Config::LEVEL_AV1_3_2"
    },
    {
     "enum_field_value" : 36871,
     "name" : "C2Config::LEVEL_AV1_3_3"
    },
    {
     "enum_field_value" : 36872,
     "name" : "C2Config::LEVEL_AV1_4"
    },
    {
     "enum_field_value" : 36873,
     "name" : "C2Config::LEVEL_AV1_4_1"
    },
    {
     "enum_field_value" : 36874,
     "name" : "C2Config::LEVEL_AV1_4_2"
    },
    {
     "enum_field_value" : 36875,
     "name" : "C2Config::LEVEL_AV1_4_3"
    },
    {
     "enum_field_value" : 36876,
     "name" : "C2Config::LEVEL_AV1_5"
    },
    {
     "enum_field_value" : 36877,
     "name" : "C2Config::LEVEL_AV1_5_1"
    },
    {
     "enum_field_value" : 36878,
     "name" : "C2Config::LEVEL_AV1_5_2"
    },
    {
     "enum_field_value" : 36879,
     "name" : "C2Config::LEVEL_AV1_5_3"
    },
    {
     "enum_field_value" : 36880,
     "name" : "C2Config::LEVEL_AV1_6"
    },
    {
     "enum_field_value" : 36881,
     "name" : "C2Config::LEVEL_AV1_6_1"
    },
    {
     "enum_field_value" : 36882,
     "name" : "C2Config::LEVEL_AV1_6_2"
    },
    {
     "enum_field_value" : 36883,
     "name" : "C2Config::LEVEL_AV1_6_3"
    },
    {
     "enum_field_value" : 36884,
     "name" : "C2Config::LEVEL_AV1_7"
    },
    {
     "enum_field_value" : 36885,
     "name" : "C2Config::LEVEL_AV1_7_1"
    },
    {
     "enum_field_value" : 36886,
     "name" : "C2Config::LEVEL_AV1_7_2"
    },
    {
     "enum_field_value" : 36887,
     "name" : "C2Config::LEVEL_AV1_7_3"
    }
   ],
   "linker_set_key" : "C2Config::level_t",
   "name" : "C2Config::level_t",
   "referenced_type" : "type-3180",
   "self_type" : "type-3180",
   "size" : 4,
   "source_file" : "/frameworks/av/media/codec2/core/include/C2Config.h",
   "underlying_type" : "type-2",
   "unique_id" : "_ZTSN8C2Config7level_tE"
  },
  {
   "alignment" : 4,
   "enum_fields" :
   [
    {
     "enum_field_value" : 0,
     "name" : "C2Config::ORDINAL"
    },
    {
     "enum_field_value" : 1,
     "name" : "C2Config::TIMESTAMP"
    },
    {
     "enum_field_value" : 2,
     "name" : "C2Config::CUSTOM"
    }
   ],
   "linker_set_key" : "C2Config::ordinal_key_t",
   "name" : "C2Config::ordinal_key_t",
   "referenced_type" : "type-3209",
   "self_type" : "type-3209",
   "size" : 4,
   "source_file" : "/frameworks/av/media/codec2/core/include/C2Config.h",
   "underlying_type" : "type-2",
   "unique_id" : "_ZTSN8C2Config13ordinal_key_tE"
  },
  {
   "alignment" : 4,
   "enum_fields" :
   [
    {
     "enum_field_value" : 0,
     "name" : "C2Config::PCM_16"
    },
    {
     "enum_field_value" : 1,
     "name" : "C2Config::PCM_8"
    },
    {
     "enum_field_value" : 2,
     "name" : "C2Config::PCM_FLOAT"
    }
   ],
   "linker_set_key" : "C2Config::pcm_encoding_t",
   "name" : "C2Config::pcm_encoding_t",
   "referenced_type" : "type-3261",
   "self_type" : "type-3261",
   "size" : 4,
   "source_file" : "/frameworks/av/media/codec2/core/include/C2Config.h",
   "underlying_type" : "type-2",
   "unique_id" : "_ZTSN8C2Config14pcm_encoding_tE"
  },
  {
   "alignment" : 4,
   "enum_fields" :
   [
    {
     "enum_field_value" : 1,
     "name" : "C2Config::SYNC_FRAME"
    },
    {
     "enum_field_value" : 2,
     "name" : "C2Config::I_FRAME"
    },
    {
     "enum_field_value" : 4,
     "name" : "C2Config::P_FRAME"
    },
    {
     "enum_field_value" : 8,
     "name" : "C2Config::B_FRAME"
    }
   ],
   "linker_set_key" : "C2Config::picture_type_t",
   "name" : "C2Config::picture_type_t",
   "referenced_type" : "type-3250",
   "self_type" : "type-3250",
   "size" : 4,
   "source_file" : "/frameworks/av/media/codec2/core/include/C2Config.h",
   "underlying_type" : "type-2",
   "unique_id" : "_ZTSN8C2Config14picture_type_tE"
  },
  {
   "alignment" : 8,
   "linker_set_key" : "C2Config::platform_feature_t",
   "name" : "C2Config::platform_feature_t",
   "referenced_type" : "type-3268",
   "self_type" : "type-3268",
   "size" : 8,
   "source_file" : "/frameworks/av/media/codec2/core/include/C2Config.h",
   "underlying_type" : "type-221",
   "unique_id" : "_ZTSN8C2Config18platform_feature_tE"
  },
  {
   "alignment" : 4,
   "enum_fields" :
   [
    {
     "enum_field_value" : 0,
     "name" : "C2Config::PLATFORM_P"
    }
   ],
   "linker_set_key" : "C2Config::platform_level_t",
   "name" : "C2Config::platform_level_t",
   "referenced_type" : "type-3267",
   "self_type" : "type-3267",
   "size" : 4,
   "source_file" : "/frameworks/av/media/codec2/core/include/C2Config.h",
   "underlying_type" : "type-2",
   "unique_id" : "_ZTSN8C2Config16platform_level_tE"
  },
  {
   "alignment" : 4,
   "enum_fields" :
   [
    {
     "enum_field_value" : 0,
     "name" : "C2Config::PREPEND_HEADER_TO_NONE"
    },
    {
     "enum_field_value" : 1,
     "name" : "C2Config::PREPEND_HEADER_ON_CHANGE"
    },
    {
     "enum_field_value" : 2,
     "name" : "C2Config::PREPEND_HEADER_TO_ALL_SYNC"
    }
   ],
   "linker_set_key" : "C2Config::prepend_header_mode_t",
   "name" : "C2Config::prepend_header_mode_t",
   "referenced_type" : "type-3223",
   "self_type" : "type-3223",
   "size" : 4,
   "source_file" : "/frameworks/av/media/codec2/core/include/C2Config.h",
   "underlying_type" : "type-2",
   "unique_id" : "_ZTSN8C2Config21prepend_header_mode_tE"
  },
  {
   "alignment" : 4,
   "enum_fields" :
   [
    {
     "enum_field_value" : 0,
     "name" : "C2Config::PROFILE_UNUSED"
    },
    {
     "enum_field_value" : 8192,
     "name" : "C2Config::PROFILE_AAC_LC"
    },
    {
     "enum_field_value" : 8193,
     "name" : "C2Config::PROFILE_AAC_MAIN"
    },
    {
     "enum_field_value" : 8194,
     "name" : "C2Config::PROFILE_AAC_SSR"
    },
    {
     "enum_field_value" : 8195,
     "name" : "C2Config::PROFILE_AAC_LTP"
    },
    {
     "enum_field_value" : 8196,
     "name" : "C2Config::PROFILE_AAC_HE"
    },
    {
     "enum_field_value" : 8197,
     "name" : "C2Config::PROFILE_AAC_SCALABLE"
    },
    {
     "enum_field_value" : 8198,
     "name" : "C2Config::PROFILE_AAC_ER_LC"
    },
    {
     "enum_field_value" : 8199,
     "name" : "C2Config::PROFILE_AAC_ER_SCALABLE"
    },
    {
     "enum_field_value" : 8200,
     "name" : "C2Config::PROFILE_AAC_LD"
    },
    {
     "enum_field_value" : 8201,
     "name" : "C2Config::PROFILE_AAC_HE_PS"
    },
    {
     "enum_field_value" : 8202,
     "name" : "C2Config::PROFILE_AAC_ELD"
    },
    {
     "enum_field_value" : 8203,
     "name" : "C2Config::PROFILE_AAC_XHE"
    },
    {
     "enum_field_value" : 4096,
     "name" : "C2Config::PROFILE_MP2V_SIMPLE"
    },
    {
     "enum_field_value" : 4097,
     "name" : "C2Config::PROFILE_MP2V_MAIN"
    },
    {
     "enum_field_value" : 4098,
     "name" : "C2Config::PROFILE_MP2V_SNR_SCALABLE"
    },
    {
     "enum_field_value" : 4099,
     "name" : "C2Config::PROFILE_MP2V_SPATIALLY_SCALABLE"
    },
    {
     "enum_field_value" : 4100,
     "name" : "C2Config::PROFILE_MP2V_HIGH"
    },
    {
     "enum_field_value" : 4101,
     "name" : "C2Config::PROFILE_MP2V_422"
    },
    {
     "enum_field_value" : 4102,
     "name" : "C2Config::PROFILE_MP2V_MULTIVIEW"
    },
    {
     "enum_field_value" : 12288,
     "name" : "C2Config::PROFILE_H263_BASELINE"
    },
    {
     "enum_field_value" : 12289,
     "name" : "C2Config::PROFILE_H263_H320"
    },
    {
     "enum_field_value" : 12290,
     "name" : "C2Config::PROFILE_H263_V1BC"
    },
    {
     "enum_field_value" : 12291,
     "name" : "C2Config::PROFILE_H263_ISWV2"
    },
    {
     "enum_field_value" : 12292,
     "name" : "C2Config::PROFILE_H263_ISWV3"
    },
    {
     "enum_field_value" : 12293,
     "name" : "C2Config::PROFILE_H263_HIGH_COMPRESSION"
    },
    {
     "enum_field_value" : 12294,
     "name" : "C2Config::PROFILE_H263_INTERNET"
    },
    {
     "enum_field_value" : 12295,
     "name" : "C2Config::PROFILE_H263_INTERLACE"
    },
    {
     "enum_field_value" : 12296,
     "name" : "C2Config::PROFILE_H263_HIGH_LATENCY"
    },
    {
     "enum_field_value" : 12297,
     "name" : "C2Config::PROFILE_MP4V_SIMPLE"
    },
    {
     "enum_field_value" : 12298,
     "name" : "C2Config::PROFILE_MP4V_SIMPLE_SCALABLE"
    },
    {
     "enum_field_value" : 12299,
     "name" : "C2Config::PROFILE_MP4V_CORE"
    },
    {
     "enum_field_value" : 12300,
     "name" : "C2Config::PROFILE_MP4V_MAIN"
    },
    {
     "enum_field_value" : 12301,
     "name" : "C2Config::PROFILE_MP4V_NBIT"
    },
    {
     "enum_field_value" : 12302,
     "name" : "C2Config::PROFILE_MP4V_ARTS"
    },
    {
     "enum_field_value" : 12303,
     "name" : "C2Config::PROFILE_MP4V_CORE_SCALABLE"
    },
    {
     "enum_field_value" : 12304,
     "name" : "C2Config::PROFILE_MP4V_ACE"
    },
    {
     "enum_field_value" : 12305,
     "name" : "C2Config::PROFILE_MP4V_ADVANCED_CORE"
    },
    {
     "enum_field_value" : 12306,
     "name" : "C2Config::PROFILE_MP4V_SIMPLE_STUDIO"
    },
    {
     "enum_field_value" : 12307,
     "name" : "C2Config::PROFILE_MP4V_CORE_STUDIO"
    },
    {
     "enum_field_value" : 12308,
     "name" : "C2Config::PROFILE_MP4V_ADVANCED_SIMPLE"
    },
    {
     "enum_field_value" : 12309,
     "name" : "C2Config::PROFILE_MP4V_FGS"
    },
    {
     "enum_field_value" : 20480,
     "name" : "C2Config::PROFILE_AVC_BASELINE"
    },
    {
     "enum_field_value" : 20481,
     "name" : "C2Config::PROFILE_AVC_CONSTRAINED_BASELINE"
    },
    {
     "enum_field_value" : 20482,
     "name" : "C2Config::PROFILE_AVC_MAIN"
    },
    {
     "enum_field_value" : 20483,
     "name" : "C2Config::PROFILE_AVC_EXTENDED"
    },
    {
     "enum_field_value" : 20484,
     "name" : "C2Config::PROFILE_AVC_HIGH"
    },
    {
     "enum_field_value" : 20485,
     "name" : "C2Config::PROFILE_AVC_PROGRESSIVE_HIGH"
    },
    {
     "enum_field_value" : 20486,
     "name" : "C2Config::PROFILE_AVC_CONSTRAINED_HIGH"
    },
    {
     "enum_field_value" : 20487,
     "name" : "C2Config::PROFILE_AVC_HIGH_10"
    },
    {
     "enum_field_value" : 20488,
     "name" : "C2Config::PROFILE_AVC_PROGRESSIVE_HIGH_10"
    },
    {
     "enum_field_value" : 20489,
     "name" : "C2Config::PROFILE_AVC_HIGH_422"
    },
    {
     "enum_field_value" : 20490,
     "name" : "C2Config::PROFILE_AVC_HIGH_444_PREDICTIVE"
    },
    {
     "enum_field_value" : 20491,
     "name" : "C2Config::PROFILE_AVC_HIGH_10_INTRA"
    },
    {
     "enum_field_value" : 20492,
     "name" : "C2Config::PROFILE_AVC_HIGH_422_INTRA"
    },
    {
     "enum_field_value" : 20493,
     "name" : "C2Config::PROFILE_AVC_HIGH_444_INTRA"
    },
    {
     "enum_field_value" : 20494,
     "name" : "C2Config::PROFILE_AVC_CAVLC_444_INTRA"
    },
    {
     "enum_field_value" : 20736,
     "name" : "C2Config::PROFILE_AVC_SCALABLE_BASELINE"
    },
    {
     "enum_field_value" : 20737,
     "name" : "C2Config::PROFILE_AVC_SCALABLE_CONSTRAINED_BASELINE"
    },
    {
     "enum_field_value" : 20738,
     "name" : "C2Config::PROFILE_AVC_SCALABLE_HIGH"
    },
    {
     "enum_field_value" : 20739,
     "name" : "C2Config::PROFILE_AVC_SCALABLE_CONSTRAINED_HIGH"
    },
    {
     "enum_field_value" : 20740,
     "name" : "C2Config::PROFILE_AVC_SCALABLE_HIGH_INTRA"
    },
    {
     "enum_field_value" : 20992,
     "name" : "C2Config::PROFILE_AVC_MULTIVIEW_HIGH"
    },
    {
     "enum_field_value" : 20993,
     "name" : "C2Config::PROFILE_AVC_STEREO_HIGH"
    },
    {
     "enum_field_value" : 20994,
     "name" : "C2Config::PROFILE_AVC_MFC_HIGH"
    },
    {
     "enum_field_value" : 21248,
     "name" : "C2Config::PROFILE_AVC_MULTIVIEW_DEPTH_HIGH"
    },
    {
     "enum_field_value" : 21249,
     "name" : "C2Config::PROFILE_AVC_MFC_DEPTH_HIGH"
    },
    {
     "enum_field_value" : 21504,
     "name" : "C2Config::PROFILE_AVC_ENHANCED_MULTIVIEW_DEPTH_HIGH"
    },
    {
     "enum_field_value" : 24576,
     "name" : "C2Config::PROFILE_HEVC_MAIN"
    },
    {
     "enum_field_value" : 24577,
     "name" : "C2Config::PROFILE_HEVC_MAIN_10"
    },
    {
     "enum_field_value" : 24578,
     "name" : "C2Config::PROFILE_HEVC_MAIN_STILL"
    },
    {
     "enum_field_value" : 24832,
     "name" : "C2Config::PROFILE_HEVC_MONO"
    },
    {
     "enum_field_value" : 24833,
     "name" : "C2Config::PROFILE_HEVC_MONO_12"
    },
    {
     "enum_field_value" : 24834,
     "name" : "C2Config::PROFILE_HEVC_MONO_16"
    },
    {
     "enum_field_value" : 24835,
     "name" : "C2Config::PROFILE_HEVC_MAIN_12"
    },
    {
     "enum_field_value" : 24836,
     "name" : "C2Config::PROFILE_HEVC_MAIN_422_10"
    },
    {
     "enum_field_value" : 24837,
     "name" : "C2Config::PROFILE_HEVC_MAIN_422_12"
    },
    {
     "enum_field_value" : 24838,
     "name" : "C2Config::PROFILE_HEVC_MAIN_444"
    },
    {
     "enum_field_value" : 24839,
     "name" : "C2Config::PROFILE_HEVC_MAIN_444_10"
    },
    {
     "enum_field_value" : 24840,
     "name" : "C2Config::PROFILE_HEVC_MAIN_444_12"
    },
    {
     "enum_field_value" : 24841,
     "name" : "C2Config::PROFILE_HEVC_MAIN_INTRA"
    },
    {
     "enum_field_value" : 24842,
     "name" : "C2Config::PROFILE_HEVC_MAIN_10_INTRA"
    },
    {
     "enum_field_value" : 24843,
     "name" : "C2Config::PROFILE_HEVC_MAIN_12_INTRA"
    },
    {
     "enum_field_value" : 24844,
     "name" : "C2Config::PROFILE_HEVC_MAIN_422_10_INTRA"
    },
    {
     "enum_field_value" : 24845,
     "name" : "C2Config::PROFILE_HEVC_MAIN_422_12_INTRA"
    },
    {
     "enum_field_value" : 24846,
     "name" : "C2Config::PROFILE_HEVC_MAIN_444_INTRA"
    },
    {
     "enum_field_value" : 24847,
     "name" : "C2Config::PROFILE_HEVC_MAIN_444_10_INTRA"
    },
    {
     "enum_field_value" : 24848,
     "name" : "C2Config::PROFILE_HEVC_MAIN_444_12_INTRA"
    },
    {
     "enum_field_value" : 24849,
     "name" : "C2Config::PROFILE_HEVC_MAIN_444_16_INTRA"
    },
    {
     "enum_field_value" : 24850,
     "name" : "C2Config::PROFILE_HEVC_MAIN_444_STILL"
    },
    {
     "enum_field_value" : 24851,
     "name" : "C2Config::PROFILE_HEVC_MAIN_444_16_STILL"
    },
    {
     "enum_field_value" : 25088,
     "name" : "C2Config::PROFILE_HEVC_HIGH_444"
    },
    {
     "enum_field_value" : 25089,
     "name" : "C2Config::PROFILE_HEVC_HIGH_444_10"
    },
    {
     "enum_field_value" : 25090,
     "name" : "C2Config::PROFILE_HEVC_HIGH_444_14"
    },
    {
     "enum_field_value" : 25091,
     "name" : "C2Config::PROFILE_HEVC_HIGH_444_16_INTRA"
    },
    {
     "enum_field_value" : 25344,
     "name" : "C2Config::PROFILE_HEVC_SX_MAIN"
    },
    {
     "enum_field_value" : 25345,
     "name" : "C2Config::PROFILE_HEVC_SX_MAIN_10"
    },
    {
     "enum_field_value" : 25346,
     "name" : "C2Config::PROFILE_HEVC_SX_MAIN_444"
    },
    {
     "enum_field_value" : 25347,
     "name" : "C2Config::PROFILE_HEVC_SX_MAIN_444_10"
    },
    {
     "enum_field_value" : 25348,
     "name" : "C2Config::PROFILE_HEVC_SX_HIGH_444"
    },
    {
     "enum_field_value" : 25349,
     "name" : "C2Config::PROFILE_HEVC_SX_HIGH_444_10"
    },
    {
     "enum_field_value" : 25350,
     "name" : "C2Config::PROFILE_HEVC_SX_HIGH_444_14"
    },
    {
     "enum_field_value" : 25600,
     "name" : "C2Config::PROFILE_HEVC_MULTIVIEW_MAIN"
    },
    {
     "enum_field_value" : 25856,
     "name" : "C2Config::PROFILE_HEVC_SCALABLE_MAIN"
    },
    {
     "enum_field_value" : 25857,
     "name" : "C2Config::PROFILE_HEVC_SCALABLE_MAIN_10"
    },
    {
     "enum_field_value" : 26112,
     "name" : "C2Config::PROFILE_HEVC_SCALABLE_MONO"
    },
    {
     "enum_field_value" : 26113,
     "name" : "C2Config::PROFILE_HEVC_SCALABLE_MONO_12"
    },
    {
     "enum_field_value" : 26114,
     "name" : "C2Config::PROFILE_HEVC_SCALABLE_MONO_16"
    },
    {
     "enum_field_value" : 26115,
     "name" : "C2Config::PROFILE_HEVC_SCALABLE_MAIN_444"
    },
    {
     "enum_field_value" : 26368,
     "name" : "C2Config::PROFILE_HEVC_3D_MAIN"
    },
    {
     "enum_field_value" : 28672,
     "name" : "C2Config::PROFILE_VP9_0"
    },
    {
     "enum_field_value" : 28673,
     "name" : "C2Config::PROFILE_VP9_1"
    },
    {
     "enum_field_value" : 28674,
     "name" : "C2Config::PROFILE_VP9_2"
    },
    {
     "enum_field_value" : 28675,
     "name" : "C2Config::PROFILE_VP9_3"
    },
    {
     "enum_field_value" : 32768,
     "name" : "C2Config::PROFILE_DV_AV_PER"
    },
    {
     "enum_field_value" : 32769,
     "name" : "C2Config::PROFILE_DV_AV_PEN"
    },
    {
     "enum_field_value" : 32770,
     "name" : "C2Config::PROFILE_DV_HE_DER"
    },
    {
     "enum_field_value" : 32771,
     "name" : "C2Config::PROFILE_DV_HE_DEN"
    },
    {
     "enum_field_value" : 32772,
     "name" : "C2Config::PROFILE_DV_HE_04"
    },
    {
     "enum_field_value" : 32773,
     "name" : "C2Config::PROFILE_DV_HE_05"
    },
    {
     "enum_field_value" : 32774,
     "name" : "C2Config::PROFILE_DV_HE_DTH"
    },
    {
     "enum_field_value" : 32775,
     "name" : "C2Config::PROFILE_DV_HE_07"
    },
    {
     "enum_field_value" : 32776,
     "name" : "C2Config::PROFILE_DV_HE_08"
    },
    {
     "enum_field_value" : 32777,
     "name" : "C2Config::PROFILE_DV_AV_09"
    },
    {
     "enum_field_value" : 36864,
     "name" : "C2Config::PROFILE_AV1_0"
    },
    {
     "enum_field_value" : 36865,
     "name" : "C2Config::PROFILE_AV1_1"
    },
    {
     "enum_field_value" : 36866,
     "name" : "C2Config::PROFILE_AV1_2"
    }
   ],
   "linker_set_key" : "C2Config::profile_t",
   "name" : "C2Config::profile_t",
   "referenced_type" : "type-3179",
   "self_type" : "type-3179",
   "size" : 4,
   "source_file" : "/frameworks/av/media/codec2/core/include/C2Config.h",
   "underlying_type" : "type-2",
   "unique_id" : "_ZTSN8C2Config9profile_tE"
  },
  {
   "alignment" : 4,
   "enum_fields" :
   [
    {
     "enum_field_value" : 0,
     "name" : "C2Config::SCALING_ARBITRARY"
    }
   ],
   "linker_set_key" : "C2Config::scaling_method_t",
   "name" : "C2Config::scaling_method_t",
   "referenced_type" : "type-3234",
   "self_type" : "type-3234",
   "size" : 4,
   "source_file" : "/frameworks/av/media/codec2/core/include/C2Config.h",
   "underlying_type" : "type-2",
   "unique_id" : "_ZTSN8C2Config16scaling_method_tE"
  },
  {
   "alignment" : 4,
   "enum_fields" :
   [
    {
     "enum_field_value" : 0,
     "name" : "C2Config::SCAN_LEFT_TO_RIGHT_THEN_DOWN"
    }
   ],
   "linker_set_key" : "C2Config::scan_order_t",
   "name" : "C2Config::scan_order_t",
   "referenced_type" : "type-3258",
   "self_type" : "type-3258",
   "size" : 4,
   "source_file" : "/frameworks/av/media/codec2/core/include/C2Config.h",
   "underlying_type" : "type-2",
   "unique_id" : "_ZTSN8C2Config12scan_order_tE"
  },
  {
   "alignment" : 4,
   "enum_fields" :
   [
    {
     "enum_field_value" : 0,
     "name" : "C2Config::SM_UNPROTECTED"
    },
    {
     "enum_field_value" : 1,
     "name" : "C2Config::SM_READ_PROTECTED"
    }
   ],
   "linker_set_key" : "C2Config::secure_mode_t",
   "name" : "C2Config::secure_mode_t",
   "referenced_type" : "type-3221",
   "self_type" : "type-3221",
   "size" : 4,
   "source_file" : "/frameworks/av/media/codec2/core/include/C2Config.h",
   "underlying_type" : "type-2",
   "unique_id" : "_ZTSN8C2Config13secure_mode_tE"
  },
  {
   "alignment" : 4,
   "enum_fields" :
   [
    {
     "enum_field_value" : 0,
     "name" : "C2Config::INFO_NONE"
    },
    {
     "enum_field_value" : 65536,
     "name" : "C2Config::INFO_PREFIX_SEI_UNIT"
    },
    {
     "enum_field_value" : 131072,
     "name" : "C2Config::INFO_SUFFIX_SEI_UNIT"
    },
    {
     "enum_field_value" : 65540,
     "name" : "C2Config::INFO_SEI_USER_DATA"
    },
    {
     "enum_field_value" : 65673,
     "name" : "C2Config::INFO_SEI_MDCV"
    },
    {
     "enum_field_value" : 131076,
     "name" : "C2Config::INFO_SET_USER_DATA_SFX"
    },
    {
     "enum_field_value" : 1879048192,
     "name" : "C2Config::INFO_VENDOR_START"
    }
   ],
   "linker_set_key" : "C2Config::supplemental_info_t",
   "name" : "C2Config::supplemental_info_t",
   "referenced_type" : "type-3188",
   "self_type" : "type-3188",
   "size" : 4,
   "source_file" : "/frameworks/av/media/codec2/core/include/C2Config.h",
   "underlying_type" : "type-2",
   "unique_id" : "_ZTSN8C2Config19supplemental_info_tE"
  },
  {
   "alignment" : 4,
   "enum_fields" :
   [
    {
     "enum_field_value" : 0,
     "name" : "C2Config::TILING_SEPARATE"
    },
    {
     "enum_field_value" : 1,
     "name" : "C2Config::TILING_CONCATENATE"
    }
   ],
   "linker_set_key" : "C2Config::tiling_mode_t",
   "name" : "C2Config::tiling_mode_t",
   "referenced_type" : "type-3260",
   "self_type" : "type-3260",
   "size" : 4,
   "source_file" : "/frameworks/av/media/codec2/core/include/C2Config.h",
   "underlying_type" : "type-2",
   "unique_id" : "_ZTSN8C2Config13tiling_mode_tE"
  },
  {
   "alignment" : 4,
   "enum_fields" :
   [
    {
     "enum_field_value" : 1,
     "name" : "C2FieldDescriptor::INT32"
    },
    {
     "enum_field_value" : 2,
     "name" : "C2FieldDescriptor::UINT32"
    },
    {
     "enum_field_value" : 3,
     "name" : "C2FieldDescriptor::CNTR32"
    },
    {
     "enum_field_value" : 4,
     "name" : "C2FieldDescriptor::INT64"
    },
    {
     "enum_field_value" : 5,
     "name" : "C2FieldDescriptor::UINT64"
    },
    {
     "enum_field_value" : 6,
     "name" : "C2FieldDescriptor::CNTR64"
    },
    {
     "enum_field_value" : 7,
     "name" : "C2FieldDescriptor::FLOAT"
    },
    {
     "enum_field_value" : 256,
     "name" : "C2FieldDescriptor::STRING"
    },
    {
     "enum_field_value" : 257,
     "name" : "C2FieldDescriptor::BLOB"
    },
    {
     "enum_field_value" : 131072,
     "name" : "C2FieldDescriptor::STRUCT_FLAG"
    }
   ],
   "linker_set_key" : "C2FieldDescriptor::type_t",
   "name" : "C2FieldDescriptor::type_t",
   "referenced_type" : "type-1124",
   "self_type" : "type-1124",
   "size" : 4,
   "source_file" : "/frameworks/av/media/codec2/core/include/C2Param.h",
   "underlying_type" : "type-2",
   "unique_id" : "_ZTSN17C2FieldDescriptor6type_tE"
  },
  {
   "alignment" : 4,
   "enum_fields" :
   [
    {
     "enum_field_value" : 0,
     "name" : "C2FieldSupportedValues::EMPTY"
    },
    {
     "enum_field_value" : 1,
     "name" : "C2FieldSupportedValues::RANGE"
    },
    {
     "enum_field_value" : 2,
     "name" : "C2FieldSupportedValues::VALUES"
    },
    {
     "enum_field_value" : 3,
     "name" : "C2FieldSupportedValues::FLAGS"
    }
   ],
   "linker_set_key" : "C2FieldSupportedValues::type_t",
   "name" : "C2FieldSupportedValues::type_t",
   "referenced_type" : "type-1224",
   "self_type" : "type-1224",
   "size" : 4,
   "source_file" : "/frameworks/av/media/codec2/core/include/C2Param.h",
   "underlying_type" : "type-2",
   "unique_id" : "_ZTSN22C2FieldSupportedValues6type_tE"
  },
  {
   "alignment" : 4,
   "enum_fields" :
   [
    {
     "enum_field_value" : 0,
     "name" : "C2FieldSupportedValuesQuery::POSSIBLE"
    },
    {
     "enum_field_value" : 1,
     "name" : "C2FieldSupportedValuesQuery::CURRENT"
    }
   ],
   "linker_set_key" : "C2FieldSupportedValuesQuery::type_t",
   "name" : "C2FieldSupportedValuesQuery::type_t",
   "referenced_type" : "type-1221",
   "self_type" : "type-1221",
   "size" : 4,
   "source_file" : "/frameworks/av/media/codec2/core/include/C2Component.h",
   "underlying_type" : "type-2",
   "unique_id" : "_ZTSN27C2FieldSupportedValuesQuery6type_tE"
  },
  {
   "alignment" : 4,
   "enum_fields" :
   [
    {
     "enum_field_value" : 1,
     "name" : "C2FrameData::FLAG_DROP_FRAME"
    },
    {
     "enum_field_value" : 2,
     "name" : "C2FrameData::FLAG_END_OF_STREAM"
    },
    {
     "enum_field_value" : 4,
     "name" : "C2FrameData::FLAG_DISCARD_FRAME"
    },
    {
     "enum_field_value" : 8,
     "name" : "C2FrameData::FLAG_INCOMPLETE"
    },
    {
     "enum_field_value" : -2147483648,
     "name" : "C2FrameData::FLAG_CODEC_CONFIG"
    }
   ],
   "linker_set_key" : "C2FrameData::flags_t",
   "name" : "C2FrameData::flags_t",
   "referenced_type" : "type-1649",
   "self_type" : "type-1649",
   "size" : 4,
   "source_file" : "/frameworks/av/media/codec2/core/include/C2Work.h",
   "underlying_type" : "type-2",
   "unique_id" : "_ZTSN11C2FrameData7flags_tE"
  },
  {
   "alignment" : 8,
   "enum_fields" :
   [
    {
     "enum_field_value" : 1,
     "name" : "C2MemoryUsage::CPU_READ"
    },
    {
     "enum_field_value" : 2,
     "name" : "C2MemoryUsage::READ_PROTECTED"
    }
   ],
   "linker_set_key" : "C2MemoryUsage::read_t",
   "name" : "C2MemoryUsage::read_t",
   "referenced_type" : "type-1350",
   "self_type" : "type-1350",
   "size" : 8,
   "source_file" : "/frameworks/av/media/codec2/core/include/C2BufferBase.h",
   "underlying_type" : "type-221",
   "unique_id" : "_ZTSN13C2MemoryUsage6read_tE"
  },
  {
   "alignment" : 8,
   "enum_fields" :
   [
    {
     "enum_field_value" : 4,
     "name" : "C2MemoryUsage::CPU_WRITE"
    },
    {
     "enum_field_value" : 8,
     "name" : "C2MemoryUsage::WRITE_PROTECTED"
    }
   ],
   "linker_set_key" : "C2MemoryUsage::write_t",
   "name" : "C2MemoryUsage::write_t",
   "referenced_type" : "type-1359",
   "self_type" : "type-1359",
   "size" : 8,
   "source_file" : "/frameworks/av/media/codec2/core/include/C2BufferBase.h",
   "underlying_type" : "type-221",
   "unique_id" : "_ZTSN13C2MemoryUsage7write_tE"
  },
  {
   "alignment" : 4,
   "enum_fields" :
   [
    {
     "enum_field_value" : 0,
     "name" : "C2Param::NONE"
    },
    {
     "enum_field_value" : 1,
     "name" : "C2Param::STRUCT"
    },
    {
     "enum_field_value" : 2,
     "name" : "C2Param::INFO"
    },
    {
     "enum_field_value" : 4,
     "name" : "C2Param::SETTING"
    },
    {
     "enum_field_value" : 12,
     "name" : "C2Param::TUNING"
    }
   ],
   "linker_set_key" : "C2Param::kind_t",
   "name" : "C2Param::kind_t",
   "referenced_type" : "type-985",
   "self_type" : "type-985",
   "size" : 4,
   "source_file" : "/frameworks/av/media/codec2/core/include/C2Param.h",
   "underlying_type" : "type-2",
   "unique_id" : "_ZTSN7C2Param6kind_tE"
  },
  {
   "alignment" : 4,
   "enum_fields" :
   [
    {
     "enum_field_value" : 1,
     "name" : "C2ParamDescriptor::IS_REQUIRED"
    },
    {
     "enum_field_value" : 2,
     "name" : "C2ParamDescriptor::IS_PERSISTENT"
    },
    {
     "enum_field_value" : 4,
     "name" : "C2ParamDescriptor::IS_STRICT"
    },
    {
     "enum_field_value" : 8,
     "name" : "C2ParamDescriptor::IS_READ_ONLY"
    },
    {
     "enum_field_value" : 16,
     "name" : "C2ParamDescriptor::IS_HIDDEN"
    },
    {
     "enum_field_value" : 32,
     "name" : "C2ParamDescriptor::IS_INTERNAL"
    },
    {
     "enum_field_value" : 72,
     "name" : "C2ParamDescriptor::IS_CONST"
    }
   ],
   "linker_set_key" : "C2ParamDescriptor::attrib_t",
   "name" : "C2ParamDescriptor::attrib_t",
   "referenced_type" : "type-1311",
   "self_type" : "type-1311",
   "size" : 4,
   "source_file" : "/frameworks/av/media/codec2/core/include/C2Param.h",
   "underlying_type" : "type-2",
   "unique_id" : "_ZTSN17C2ParamDescriptor8attrib_tE"
  },
  {
   "alignment" : 4,
   "enum_fields" :
   [
    {
     "enum_field_value" : 0,
     "name" : "C2PlanarLayout::PLANE_Y"
    },
    {
     "enum_field_value" : 1,
     "name" : "C2PlanarLayout::PLANE_U"
    },
    {
     "enum_field_value" : 2,
     "name" : "C2PlanarLayout::PLANE_V"
    },
    {
     "enum_field_value" : 0,
     "name" : "C2PlanarLayout::PLANE_R"
    },
    {
     "enum_field_value" : 1,
     "name" : "C2PlanarLayout::PLANE_G"
    },
    {
     "enum_field_value" : 2,
     "name" : "C2PlanarLayout::PLANE_B"
    },
    {
     "enum_field_value" : 3,
     "name" : "C2PlanarLayout::PLANE_A"
    },
    {
     "enum_field_value" : 4,
     "name" : "C2PlanarLayout::MAX_NUM_PLANES"
    }
   ],
   "linker_set_key" : "C2PlanarLayout::plane_index_t",
   "name" : "C2PlanarLayout::plane_index_t",
   "referenced_type" : "type-337",
   "self_type" : "type-337",
   "size" : 4,
   "source_file" : "/frameworks/av/media/codec2/core/include/C2Buffer.h",
   "underlying_type" : "type-2",
   "unique_id" : "_ZTSN14C2PlanarLayout13plane_index_tE"
  },
  {
   "alignment" : 4,
   "enum_fields" :
   [
    {
     "enum_field_value" : 0,
     "name" : "C2PlanarLayout::TYPE_UNKNOWN"
    },
    {
     "enum_field_value" : 256,
     "name" : "C2PlanarLayout::TYPE_YUV"
    },
    {
     "enum_field_value" : 257,
     "name" : "C2PlanarLayout::TYPE_YUVA"
    },
    {
     "enum_field_value" : 258,
     "name" : "C2PlanarLayout::TYPE_RGB"
    },
    {
     "enum_field_value" : 259,
     "name" : "C2PlanarLayout::TYPE_RGBA"
    }
   ],
   "linker_set_key" : "C2PlanarLayout::type_t",
   "name" : "C2PlanarLayout::type_t",
   "referenced_type" : "type-261",
   "self_type" : "type-261",
   "size" : 4,
   "source_file" : "/frameworks/av/media/codec2/core/include/C2Buffer.h",
   "underlying_type" : "type-2",
   "unique_id" : "_ZTSN14C2PlanarLayout6type_tE"
  },
  {
   "alignment" : 4,
   "enum_fields" :
   [
    {
     "enum_field_value" : 0,
     "name" : "C2PlaneInfo::CHANNEL_Y"
    },
    {
     "enum_field_value" : 1,
     "name" : "C2PlaneInfo::CHANNEL_R"
    },
    {
     "enum_field_value" : 2,
     "name" : "C2PlaneInfo::CHANNEL_G"
    },
    {
     "enum_field_value" : 3,
     "name" : "C2PlaneInfo::CHANNEL_B"
    },
    {
     "enum_field_value" : 4,
     "name" : "C2PlaneInfo::CHANNEL_A"
    },
    {
     "enum_field_value" : 5,
     "name" : "C2PlaneInfo::CHANNEL_CR"
    },
    {
     "enum_field_value" : 6,
     "name" : "C2PlaneInfo::CHANNEL_CB"
    }
   ],
   "linker_set_key" : "C2PlaneInfo::channel_t",
   "name" : "C2PlaneInfo::channel_t",
   "referenced_type" : "type-63",
   "self_type" : "type-63",
   "size" : 4,
   "source_file" : "/frameworks/av/media/codec2/core/include/C2Buffer.h",
   "underlying_type" : "type-2",
   "unique_id" : "_ZTSN11C2PlaneInfo9channel_tE"
  },
  {
   "alignment" : 4,
   "enum_fields" :
   [
    {
     "enum_field_value" : 0,
     "name" : "C2PlaneInfo::NATIVE"
    },
    {
     "enum_field_value" : 1,
     "name" : "C2PlaneInfo::LITTLE_END"
    },
    {
     "enum_field_value" : 2,
     "name" : "C2PlaneInfo::BIG_END"
    }
   ],
   "linker_set_key" : "C2PlaneInfo::endianness_t",
   "name" : "C2PlaneInfo::endianness_t",
   "referenced_type" : "type-64",
   "self_type" : "type-64",
   "size" : 4,
   "source_file" : "/frameworks/av/media/codec2/core/include/C2Buffer.h",
   "underlying_type" : "type-2",
   "unique_id" : "_ZTSN11C2PlaneInfo12endianness_tE"
  },
  {
   "alignment" : 4,
   "enum_fields" :
   [
    {
     "enum_field_value" : 0,
     "name" : "C2SettingResult::BAD_TYPE"
    },
    {
     "enum_field_value" : 1,
     "name" : "C2SettingResult::BAD_PORT"
    },
    {
     "enum_field_value" : 2,
     "name" : "C2SettingResult::BAD_INDEX"
    },
    {
     "enum_field_value" : 3,
     "name" : "C2SettingResult::READ_ONLY"
    },
    {
     "enum_field_value" : 4,
     "name" : "C2SettingResult::MISMATCH"
    },
    {
     "enum_field_value" : 5,
     "name" : "C2SettingResult::BAD_VALUE"
    },
    {
     "enum_field_value" : 6,
     "name" : "C2SettingResult::CONFLICT"
    },
    {
     "enum_field_value" : 7,
     "name" : "C2SettingResult::UNSUPPORTED"
    },
    {
     "enum_field_value" : 8,
     "name" : "C2SettingResult::INFO_BAD_VALUE"
    },
    {
     "enum_field_value" : 9,
     "name" : "C2SettingResult::INFO_CONFLICT"
    }
   ],
   "linker_set_key" : "C2SettingResult::Failure",
   "name" : "C2SettingResult::Failure",
   "referenced_type" : "type-1202",
   "self_type" : "type-1202",
   "size" : 4,
   "source_file" : "/frameworks/av/media/codec2/core/include/C2Work.h",
   "underlying_type" : "type-2",
   "unique_id" : "_ZTSN15C2SettingResult7FailureE"
  },
  {
   "alignment" : 4,
   "enum_fields" :
   [
    {
     "enum_field_value" : 0,
     "name" : "C2TimestampGapAdjustmentStruct::NONE"
    },
    {
     "enum_field_value" : 1,
     "name" : "C2TimestampGapAdjustmentStruct::MIN_GAP"
    },
    {
     "enum_field_value" : 2,
     "name" : "C2TimestampGapAdjustmentStruct::FIXED_GAP"
    }
   ],
   "linker_set_key" : "C2TimestampGapAdjustmentStruct::mode_t",
   "name" : "C2TimestampGapAdjustmentStruct::mode_t",
   "referenced_type" : "type-3276",
   "self_type" : "type-3276",
   "size" : 4,
   "source_file" : "/frameworks/av/media/codec2/core/include/C2Config.h",
   "underlying_type" : "type-2",
   "unique_id" : "_ZTSN30C2TimestampGapAdjustmentStruct6mode_tE"
  },
  {
   "alignment" : 4,
   "enum_fields" :
   [
    {
     "enum_field_value" : 0,
     "name" : "C2Value::NO_INIT"
    },
    {
     "enum_field_value" : 1,
     "name" : "C2Value::INT32"
    },
    {
     "enum_field_value" : 2,
     "name" : "C2Value::UINT32"
    },
    {
     "enum_field_value" : 3,
     "name" : "C2Value::CNTR32"
    },
    {
     "enum_field_value" : 4,
     "name" : "C2Value::INT64"
    },
    {
     "enum_field_value" : 5,
     "name" : "C2Value::UINT64"
    },
    {
     "enum_field_value" : 6,
     "name" : "C2Value::CNTR64"
    },
    {
     "enum_field_value" : 7,
     "name" : "C2Value::FLOAT"
    }
   ],
   "linker_set_key" : "C2Value::type_t",
   "name" : "C2Value::type_t",
   "referenced_type" : "type-1082",
   "self_type" : "type-1082",
   "size" : 4,
   "source_file" : "/frameworks/av/media/codec2/core/include/C2Param.h",
   "underlying_type" : "type-2",
   "unique_id" : "_ZTSN7C2Value6type_tE"
  },
  {
   "alignment" : 8,
   "enum_fields" :
   [
    {
     "enum_field_value" : 1048576,
     "name" : "android::C2AndroidMemoryUsage::RENDERSCRIPT_READ"
    },
    {
     "enum_field_value" : 256,
     "name" : "android::C2AndroidMemoryUsage::HW_TEXTURE_READ"
    },
    {
     "enum_field_value" : 2048,
     "name" : "android::C2AndroidMemoryUsage::HW_COMPOSER_READ"
    },
    {
     "enum_field_value" : 65536,
     "name" : "android::C2AndroidMemoryUsage::HW_CODEC_READ"
    },
    {
     "enum_field_value" : 16384,
     "name" : "android::C2AndroidMemoryUsage::READ_PROTECTED"
    }
   ],
   "linker_set_key" : "android::C2AndroidMemoryUsage::consumer_t",
   "name" : "android::C2AndroidMemoryUsage::consumer_t",
   "referenced_type" : "type-1622",
   "self_type" : "type-1622",
   "size" : 8,
   "source_file" : "/frameworks/av/media/codec2/core/include/android-C2Buffer.h",
   "underlying_type" : "type-221",
   "unique_id" : "_ZTSN7android20C2AndroidMemoryUsage10consumer_tE"
  },
  {
   "alignment" : 8,
   "enum_fields" :
   [
    {
     "enum_field_value" : 1048576,
     "name" : "android::C2AndroidMemoryUsage::RENDERSCRIPT_WRITE"
    },
    {
     "enum_field_value" : 512,
     "name" : "android::C2AndroidMemoryUsage::HW_TEXTURE_WRITE"
    },
    {
     "enum_field_value" : 2560,
     "name" : "android::C2AndroidMemoryUsage::HW_COMPOSER_WRITE"
    },
    {
     "enum_field_value" : 65536,
     "name" : "android::C2AndroidMemoryUsage::HW_CODEC_WRITE"
    },
    {
     "enum_field_value" : 16384,
     "name" : "android::C2AndroidMemoryUsage::WRITE_PROTECTED"
    }
   ],
   "linker_set_key" : "android::C2AndroidMemoryUsage::producer_t",
   "name" : "android::C2AndroidMemoryUsage::producer_t",
   "referenced_type" : "type-1623",
   "self_type" : "type-1623",
   "size" : 8,
   "source_file" : "/frameworks/av/media/codec2/core/include/android-C2Buffer.h",
   "underlying_type" : "type-221",
   "unique_id" : "_ZTSN7android20C2AndroidMemoryUsage10producer_tE"
  },
  {
   "alignment" : 4,
   "enum_fields" :
   [
    {
     "enum_field_value" : 0,
     "name" : "android::ColorAspects::MatrixUnspecified"
    },
    {
     "enum_field_value" : 1,
     "name" : "android::ColorAspects::MatrixBT709_5"
    },
    {
     "enum_field_value" : 2,
     "name" : "android::ColorAspects::MatrixBT470_6M"
    },
    {
     "enum_field_value" : 3,
     "name" : "android::ColorAspects::MatrixBT601_6"
    },
    {
     "enum_field_value" : 4,
     "name" : "android::ColorAspects::MatrixSMPTE240M"
    },
    {
     "enum_field_value" : 5,
     "name" : "android::ColorAspects::MatrixBT2020"
    },
    {
     "enum_field_value" : 6,
     "name" : "android::ColorAspects::MatrixBT2020Constant"
    },
    {
     "enum_field_value" : 255,
     "name" : "android::ColorAspects::MatrixOther"
    }
   ],
   "linker_set_key" : "android::ColorAspects::MatrixCoeffs",
   "name" : "android::ColorAspects::MatrixCoeffs",
   "referenced_type" : "type-2169",
   "self_type" : "type-2169",
   "size" : 4,
   "source_file" : "/frameworks/native/headers/media_plugin/media/hardware/VideoAPI.h",
   "underlying_type" : "type-2",
   "unique_id" : "_ZTSN7android12ColorAspects12MatrixCoeffsE"
  },
  {
   "alignment" : 4,
   "enum_fields" :
   [
    {
     "enum_field_value" : 0,
     "name" : "android::ColorAspects::PrimariesUnspecified"
    },
    {
     "enum_field_value" : 1,
     "name" : "android::ColorAspects::PrimariesBT709_5"
    },
    {
     "enum_field_value" : 2,
     "name" : "android::ColorAspects::PrimariesBT470_6M"
    },
    {
     "enum_field_value" : 3,
     "name" : "android::ColorAspects::PrimariesBT601_6_625"
    },
    {
     "enum_field_value" : 4,
     "name" : "android::ColorAspects::PrimariesBT601_6_525"
    },
    {
     "enum_field_value" : 5,
     "name" : "android::ColorAspects::PrimariesGenericFilm"
    },
    {
     "enum_field_value" : 6,
     "name" : "android::ColorAspects::PrimariesBT2020"
    },
    {
     "enum_field_value" : 255,
     "name" : "android::ColorAspects::PrimariesOther"
    }
   ],
   "linker_set_key" : "android::ColorAspects::Primaries",
   "name" : "android::ColorAspects::Primaries",
   "referenced_type" : "type-2167",
   "self_type" : "type-2167",
   "size" : 4,
   "source_file" : "/frameworks/native/headers/media_plugin/media/hardware/VideoAPI.h",
   "underlying_type" : "type-2",
   "unique_id" : "_ZTSN7android12ColorAspects9PrimariesE"
  },
  {
   "alignment" : 4,
   "enum_fields" :
   [
    {
     "enum_field_value" : 0,
     "name" : "android::ColorAspects::RangeUnspecified"
    },
    {
     "enum_field_value" : 1,
     "name" : "android::ColorAspects::RangeFull"
    },
    {
     "enum_field_value" : 2,
     "name" : "android::ColorAspects::RangeLimited"
    },
    {
     "enum_field_value" : 255,
     "name" : "android::ColorAspects::RangeOther"
    }
   ],
   "linker_set_key" : "android::ColorAspects::Range",
   "name" : "android::ColorAspects::Range",
   "referenced_type" : "type-2166",
   "self_type" : "type-2166",
   "size" : 4,
   "source_file" : "/frameworks/native/headers/media_plugin/media/hardware/VideoAPI.h",
   "underlying_type" : "type-2",
   "unique_id" : "_ZTSN7android12ColorAspects5RangeE"
  },
  {
   "alignment" : 4,
   "enum_fields" :
   [
    {
     "enum_field_value" : 0,
     "name" : "android::ColorAspects::StandardUnspecified"
    },
    {
     "enum_field_value" : 1,
     "name" : "android::ColorAspects::StandardBT709"
    },
    {
     "enum_field_value" : 2,
     "name" : "android::ColorAspects::StandardBT601_625"
    },
    {
     "enum_field_value" : 3,
     "name" : "android::ColorAspects::StandardBT601_625_Unadjusted"
    },
    {
     "enum_field_value" : 4,
     "name" : "android::ColorAspects::StandardBT601_525"
    },
    {
     "enum_field_value" : 5,
     "name" : "android::ColorAspects::StandardBT601_525_Unadjusted"
    },
    {
     "enum_field_value" : 6,
     "name" : "android::ColorAspects::StandardBT2020"
    },
    {
     "enum_field_value" : 7,
     "name" : "android::ColorAspects::StandardBT2020Constant"
    },
    {
     "enum_field_value" : 8,
     "name" : "android::ColorAspects::StandardBT470M"
    },
    {
     "enum_field_value" : 9,
     "name" : "android::ColorAspects::StandardFilm"
    },
    {
     "enum_field_value" : 255,
     "name" : "android::ColorAspects::StandardOther"
    }
   ],
   "linker_set_key" : "android::ColorAspects::Standard",
   "name" : "android::ColorAspects::Standard",
   "referenced_type" : "type-2170",
   "self_type" : "type-2170",
   "size" : 4,
   "source_file" : "/frameworks/native/headers/media_plugin/media/hardware/VideoAPI.h",
   "underlying_type" : "type-2",
   "unique_id" : "_ZTSN7android12ColorAspects8StandardE"
  },
  {
   "alignment" : 4,
   "enum_fields" :
   [
    {
     "enum_field_value" : 0,
     "name" : "android::ColorAspects::TransferUnspecified"
    },
    {
     "enum_field_value" : 1,
     "name" : "android::ColorAspects::TransferLinear"
    },
    {
     "enum_field_value" : 2,
     "name" : "android::ColorAspects::TransferSRGB"
    },
    {
     "enum_field_value" : 3,
     "name" : "android::ColorAspects::TransferSMPTE170M"
    },
    {
     "enum_field_value" : 4,
     "name" : "android::ColorAspects::TransferGamma22"
    },
    {
     "enum_field_value" : 5,
     "name" : "android::ColorAspects::TransferGamma28"
    },
    {
     "enum_field_value" : 6,
     "name" : "android::ColorAspects::TransferST2084"
    },
    {
     "enum_field_value" : 7,
     "name" : "android::ColorAspects::TransferHLG"
    },
    {
     "enum_field_value" : 64,
     "name" : "android::ColorAspects::TransferSMPTE240M"
    },
    {
     "enum_field_value" : 65,
     "name" : "android::ColorAspects::TransferXvYCC"
    },
    {
     "enum_field_value" : 66,
     "name" : "android::ColorAspects::TransferBT1361"
    },
    {
     "enum_field_value" : 67,
     "name" : "android::ColorAspects::TransferST428"
    },
    {
     "enum_field_value" : 255,
     "name" : "android::ColorAspects::TransferOther"
    }
   ],
   "linker_set_key" : "android::ColorAspects::Transfer",
   "name" : "android::ColorAspects::Transfer",
   "referenced_type" : "type-2168",
   "self_type" : "type-2168",
   "size" : 4,
   "source_file" : "/frameworks/native/headers/media_plugin/media/hardware/VideoAPI.h",
   "underlying_type" : "type-2",
   "unique_id" : "_ZTSN7android12ColorAspects8TransferE"
  },
  {
   "alignment" : 4,
   "enum_fields" :
   [
    {
     "enum_field_value" : 0,
     "name" : "android::Condition::WAKE_UP_ONE"
    },
    {
     "enum_field_value" : 1,
     "name" : "android::Condition::WAKE_UP_ALL"
    }
   ],
   "linker_set_key" : "android::Condition::WakeUpType",
   "name" : "android::Condition::WakeUpType",
   "referenced_type" : "type-2220",
   "self_type" : "type-2220",
   "size" : 4,
   "source_file" : "/system/core/libutils/include/utils/Condition.h",
   "underlying_type" : "type-2",
   "unique_id" : "_ZTSN7android9Condition10WakeUpTypeE"
  },
  {
   "alignment" : 4,
   "enum_fields" :
   [
    {
     "enum_field_value" : 0,
     "name" : "android::Fence::Status::Invalid"
    },
    {
     "enum_field_value" : 1,
     "name" : "android::Fence::Status::Unsignaled"
    },
    {
     "enum_field_value" : 2,
     "name" : "android::Fence::Status::Signaled"
    }
   ],
   "linker_set_key" : "android::Fence::Status",
   "name" : "android::Fence::Status",
   "referenced_type" : "type-2071",
   "self_type" : "type-2071",
   "size" : 4,
   "source_file" : "/frameworks/native/libs/ui/include/ui/Fence.h",
   "underlying_type" : "type-19",
   "unique_id" : "_ZTSN7android5Fence6StatusE"
  },
  {
   "alignment" : 4,
   "enum_fields" :
   [
    {
     "enum_field_value" : 0,
     "name" : "android::FenceTime::Snapshot::State::EMPTY"
    },
    {
     "enum_field_value" : 1,
     "name" : "android::FenceTime::Snapshot::State::FENCE"
    },
    {
     "enum_field_value" : 2,
     "name" : "android::FenceTime::Snapshot::State::SIGNAL_TIME"
    }
   ],
   "linker_set_key" : "android::FenceTime::Snapshot::State",
   "name" : "android::FenceTime::Snapshot::State",
   "referenced_type" : "type-2048",
   "self_type" : "type-2048",
   "size" : 4,
   "source_file" : "/frameworks/native/libs/ui/include/ui/FenceTime.h",
   "underlying_type" : "type-19",
   "unique_id" : "_ZTSN7android9FenceTime8Snapshot5StateE"
  },
  {
   "access" : "private",
   "alignment" : 4,
   "enum_fields" :
   [
    {
     "enum_field_value" : 0,
     "name" : "android::FenceTime::State::VALID"
    },
    {
     "enum_field_value" : 1,
     "name" : "android::FenceTime::State::INVALID"
    },
    {
     "enum_field_value" : 2,
     "name" : "android::FenceTime::State::FORCED_VALID_FOR_TEST"
    }
   ],
   "linker_set_key" : "android::FenceTime::State",
   "name" : "android::FenceTime::State",
   "referenced_type" : "type-2141",
   "self_type" : "type-2141",
   "size" : 4,
   "source_file" : "/frameworks/native/libs/ui/include/ui/FenceTime.h",
   "underlying_type" : "type-19",
   "unique_id" : "_ZTSN7android9FenceTime5StateE"
  },
  {
   "alignment" : 1,
   "enum_fields" :
   [
    {
     "enum_field_value" : 0,
     "name" : "android::GraphicBuffer::WRAP_HANDLE"
    },
    {
     "enum_field_value" : 1,
     "name" : "android::GraphicBuffer::TAKE_HANDLE"
    },
    {
     "enum_field_value" : 2,
     "name" : "android::GraphicBuffer::TAKE_UNREGISTERED_HANDLE"
    },
    {
     "enum_field_value" : 3,
     "name" : "android::GraphicBuffer::CLONE_HANDLE"
    }
   ],
   "linker_set_key" : "android::GraphicBuffer::HandleWrapMethod",
   "name" : "android::GraphicBuffer::HandleWrapMethod",
   "referenced_type" : "type-2129",
   "self_type" : "type-2129",
   "size" : 1,
   "source_file" : "/frameworks/native/libs/ui/include/ui/GraphicBuffer.h",
   "underlying_type" : "type-3",
   "unique_id" : "_ZTSN7android13GraphicBuffer16HandleWrapMethodE"
  },
  {
   "alignment" : 4,
   "enum_fields" :
   [
    {
     "enum_field_value" : 0,
     "name" : "android::GraphicBufferMapper::GRALLOC_2"
    },
    {
     "enum_field_value" : 1,
     "name" : "android::GraphicBufferMapper::GRALLOC_3"
    }
   ],
   "linker_set_key" : "android::GraphicBufferMapper::Version",
   "name" : "android::GraphicBufferMapper::Version",
   "referenced_type" : "type-2033",
   "self_type" : "type-2033",
   "size" : 4,
   "source_file" : "/frameworks/native/libs/ui/include/ui/GraphicBufferMapper.h",
   "underlying_type" : "type-2",
   "unique_id" : "_ZTSN7android19GraphicBufferMapper7VersionE"
  },
  {
   "alignment" : 1,
   "enum_fields" :
   [
    {
     "enum_field_value" : 0,
     "name" : "android::HDRStaticInfo::kType1"
    }
   ],
   "linker_set_key" : "android::HDRStaticInfo::ID",
   "name" : "android::HDRStaticInfo::ID",
   "referenced_type" : "type-2172",
   "self_type" : "type-2172",
   "size" : 1,
   "source_file" : "/frameworks/native/headers/media_plugin/media/hardware/VideoAPI.h",
   "underlying_type" : "type-3",
   "unique_id" : "_ZTSN7android13HDRStaticInfo2IDE"
  },
  {
   "alignment" : 4,
   "enum_fields" :
   [
    {
     "enum_field_value" : 0,
     "name" : "android::MediaImage2::Y"
    },
    {
     "enum_field_value" : 1,
     "name" : "android::MediaImage2::U"
    },
    {
     "enum_field_value" : 2,
     "name" : "android::MediaImage2::V"
    },
    {
     "enum_field_value" : 0,
     "name" : "android::MediaImage2::R"
    },
    {
     "enum_field_value" : 1,
     "name" : "android::MediaImage2::G"
    },
    {
     "enum_field_value" : 2,
     "name" : "android::MediaImage2::B"
    },
    {
     "enum_field_value" : 3,
     "name" : "android::MediaImage2::A"
    },
    {
     "enum_field_value" : 4,
     "name" : "android::MediaImage2::MAX_NUM_PLANES"
    }
   ],
   "linker_set_key" : "android::MediaImage2::PlaneIndex",
   "name" : "android::MediaImage2::PlaneIndex",
   "referenced_type" : "type-2164",
   "self_type" : "type-2164",
   "size" : 4,
   "source_file" : "/frameworks/native/headers/media_plugin/media/hardware/VideoAPI.h",
   "underlying_type" : "type-2",
   "unique_id" : "_ZTSN7android11MediaImage210PlaneIndexE"
  },
  {
   "alignment" : 4,
   "enum_fields" :
   [
    {
     "enum_field_value" : 0,
     "name" : "android::MediaImage2::MEDIA_IMAGE_TYPE_UNKNOWN"
    },
    {
     "enum_field_value" : 1,
     "name" : "android::MediaImage2::MEDIA_IMAGE_TYPE_YUV"
    },
    {
     "enum_field_value" : 2,
     "name" : "android::MediaImage2::MEDIA_IMAGE_TYPE_YUVA"
    },
    {
     "enum_field_value" : 3,
     "name" : "android::MediaImage2::MEDIA_IMAGE_TYPE_RGB"
    },
    {
     "enum_field_value" : 4,
     "name" : "android::MediaImage2::MEDIA_IMAGE_TYPE_RGBA"
    },
    {
     "enum_field_value" : 5,
     "name" : "android::MediaImage2::MEDIA_IMAGE_TYPE_Y"
    }
   ],
   "linker_set_key" : "android::MediaImage2::Type",
   "name" : "android::MediaImage2::Type",
   "referenced_type" : "type-2161",
   "self_type" : "type-2161",
   "size" : 4,
   "source_file" : "/frameworks/native/headers/media_plugin/media/hardware/VideoAPI.h",
   "underlying_type" : "type-2",
   "unique_id" : "_ZTSN7android11MediaImage24TypeE"
  },
  {
   "alignment" : 4,
   "enum_fields" :
   [
    {
     "enum_field_value" : 0,
     "name" : "android::MediaImage::Y"
    },
    {
     "enum_field_value" : 1,
     "name" : "android::MediaImage::U"
    },
    {
     "enum_field_value" : 2,
     "name" : "android::MediaImage::V"
    },
    {
     "enum_field_value" : 3,
     "name" : "android::MediaImage::MAX_NUM_PLANES"
    }
   ],
   "linker_set_key" : "android::MediaImage::PlaneIndex",
   "name" : "android::MediaImage::PlaneIndex",
   "referenced_type" : "type-2159",
   "self_type" : "type-2159",
   "size" : 4,
   "source_file" : "/frameworks/native/headers/media_plugin/media/hardware/VideoAPI.h",
   "underlying_type" : "type-2",
   "unique_id" : "_ZTSN7android10MediaImage10PlaneIndexE"
  },
  {
   "alignment" : 4,
   "enum_fields" :
   [
    {
     "enum_field_value" : 0,
     "name" : "android::MediaImage::MEDIA_IMAGE_TYPE_UNKNOWN"
    },
    {
     "enum_field_value" : 1,
     "name" : "android::MediaImage::MEDIA_IMAGE_TYPE_YUV"
    }
   ],
   "linker_set_key" : "android::MediaImage::Type",
   "name" : "android::MediaImage::Type",
   "referenced_type" : "type-2156",
   "self_type" : "type-2156",
   "size" : 4,
   "source_file" : "/frameworks/native/headers/media_plugin/media/hardware/VideoAPI.h",
   "underlying_type" : "type-2",
   "unique_id" : "_ZTSN7android10MediaImage4TypeE"
  },
  {
   "alignment" : 4,
   "enum_fields" :
   [
    {
     "enum_field_value" : 0,
     "name" : "android::String16::kEmptyString"
    }
   ],
   "linker_set_key" : "android::String16::StaticLinkage",
   "name" : "android::String16::StaticLinkage",
   "referenced_type" : "type-3331",
   "self_type" : "type-3331",
   "size" : 4,
   "source_file" : "/system/core/libutils/include/utils/String16.h",
   "underlying_type" : "type-2",
   "unique_id" : "_ZTSN7android8String1613StaticLinkageE"
  },
  {
   "alignment" : 4,
   "enum_fields" :
   [
    {
     "enum_field_value" : 0,
     "name" : "android::String8::kEmptyString"
    }
   ],
   "linker_set_key" : "android::String8::StaticLinkage",
   "name" : "android::String8::StaticLinkage",
   "referenced_type" : "type-3277",
   "self_type" : "type-3277",
   "size" : 4,
   "source_file" : "/system/core/libutils/include/utils/String8.h",
   "underlying_type" : "type-2",
   "unique_id" : "_ZTSN7android7String813StaticLinkageE"
  },
  {
   "alignment" : 4,
   "enum_fields" :
   [
    {
     "enum_field_value" : 0,
     "name" : "android::base::DEFAULT"
    },
    {
     "enum_field_value" : 1,
     "name" : "android::base::MAIN"
    },
    {
     "enum_field_value" : 2,
     "name" : "android::base::SYSTEM"
    }
   ],
   "linker_set_key" : "android::base::LogId",
   "name" : "android::base::LogId",
   "referenced_type" : "type-4091",
   "self_type" : "type-4091",
   "size" : 4,
   "source_file" : "/system/core/base/include/android-base/logging.h",
   "underlying_type" : "type-2",
   "unique_id" : "_ZTSN7android4base5LogIdE"
  },
  {
   "alignment" : 4,
   "enum_fields" :
   [
    {
     "enum_field_value" : 0,
     "name" : "android::base::VERBOSE"
    },
    {
     "enum_field_value" : 1,
     "name" : "android::base::DEBUG"
    },
    {
     "enum_field_value" : 2,
     "name" : "android::base::INFO"
    },
    {
     "enum_field_value" : 3,
     "name" : "android::base::WARNING"
    },
    {
     "enum_field_value" : 4,
     "name" : "android::base::ERROR"
    },
    {
     "enum_field_value" : 5,
     "name" : "android::base::FATAL_WITHOUT_ABORT"
    },
    {
     "enum_field_value" : 6,
     "name" : "android::base::FATAL"
    }
   ],
   "linker_set_key" : "android::base::LogSeverity",
   "name" : "android::base::LogSeverity",
   "referenced_type" : "type-1",
   "self_type" : "type-1",
   "size" : 4,
   "source_file" : "/system/core/base/include/android-base/logging.h",
   "underlying_type" : "type-2",
   "unique_id" : "_ZTSN7android4base11LogSeverityE"
  },
  {
   "alignment" : 4,
   "enum_fields" :
   [
    {
     "enum_field_value" : 0,
     "name" : "android::hardware::HidlReturnRestriction::NONE"
    },
    {
     "enum_field_value" : 1,
     "name" : "android::hardware::HidlReturnRestriction::ERROR_IF_UNCHECKED"
    },
    {
     "enum_field_value" : 2,
     "name" : "android::hardware::HidlReturnRestriction::FATAL_IF_UNCHECKED"
    }
   ],
   "linker_set_key" : "android::hardware::HidlReturnRestriction",
   "name" : "android::hardware::HidlReturnRestriction",
   "referenced_type" : "type-42",
   "self_type" : "type-42",
   "size" : 4,
   "source_file" : "/system/libhidl/base/include/hidl/Status.h",
   "underlying_type" : "type-19",
   "unique_id" : "_ZTSN7android8hardware21HidlReturnRestrictionE"
  },
  {
   "alignment" : 4,
   "enum_fields" :
   [
    {
     "enum_field_value" : 1,
     "name" : "android::hardware::kSynchronizedReadWrite"
    },
    {
     "enum_field_value" : 2,
     "name" : "android::hardware::kUnsynchronizedWrite"
    }
   ],
   "linker_set_key" : "android::hardware::MQFlavor",
   "name" : "android::hardware::MQFlavor",
   "referenced_type" : "type-802",
   "self_type" : "type-802",
   "size" : 4,
   "source_file" : "/system/libhidl/base/include/hidl/MQDescriptor.h",
   "underlying_type" : "type-2",
   "unique_id" : "_ZTSN7android8hardware8MQFlavorE"
  },
  {
   "access" : "private",
   "alignment" : 4,
   "enum_fields" :
   [
    {
     "enum_field_value" : 1,
     "name" : "android::hardware::MessageQueue<android::hardware::media::bufferpool::V2_0::BufferInvalidationMessage, android::hardware::kUnsynchronizedWrite>::FMQ_NOT_FULL"
    },
    {
     "enum_field_value" : 2,
     "name" : "android::hardware::MessageQueue<android::hardware::media::bufferpool::V2_0::BufferInvalidationMessage, android::hardware::kUnsynchronizedWrite>::FMQ_NOT_EMPTY"
    }
   ],
   "linker_set_key" : "android::hardware::MessageQueue<BufferInvalidationMessage, android::hardware::kUnsynchronizedWrite>::DefaultEventNotification",
   "name" : "android::hardware::MessageQueue<BufferInvalidationMessage, android::hardware::kUnsynchronizedWrite>::DefaultEventNotification",
   "referenced_type" : "type-2104",
   "self_type" : "type-2104",
   "size" : 4,
   "source_file" : "/system/libfmq/include/fmq/MessageQueue.h",
   "underlying_type" : "type-2",
   "unique_id" : "_ZTSN7android8hardware12MessageQueueINS0_5media10bufferpool4V2_025BufferInvalidationMessageELNS0_8MQFlavorE2EE24DefaultEventNotificationE"
  },
  {
   "access" : "private",
   "alignment" : 4,
   "enum_fields" :
   [
    {
     "enum_field_value" : 1,
     "name" : "android::hardware::MessageQueue<android::hardware::media::bufferpool::V2_0::BufferStatusMessage, android::hardware::kSynchronizedReadWrite>::FMQ_NOT_FULL"
    },
    {
     "enum_field_value" : 2,
     "name" : "android::hardware::MessageQueue<android::hardware::media::bufferpool::V2_0::BufferStatusMessage, android::hardware::kSynchronizedReadWrite>::FMQ_NOT_EMPTY"
    }
   ],
   "linker_set_key" : "android::hardware::MessageQueue<BufferStatusMessage, android::hardware::kSynchronizedReadWrite>::DefaultEventNotification",
   "name" : "android::hardware::MessageQueue<BufferStatusMessage, android::hardware::kSynchronizedReadWrite>::DefaultEventNotification",
   "referenced_type" : "type-2064",
   "self_type" : "type-2064",
   "size" : 4,
   "source_file" : "/system/libfmq/include/fmq/MessageQueue.h",
   "underlying_type" : "type-2",
   "unique_id" : "_ZTSN7android8hardware12MessageQueueINS0_5media10bufferpool4V2_019BufferStatusMessageELNS0_8MQFlavorE1EE24DefaultEventNotificationE"
  },
  {
   "alignment" : 4,
   "enum_fields" :
   [
    {
     "enum_field_value" : 0,
     "name" : "android::hardware::Status::EX_NONE"
    },
    {
     "enum_field_value" : -1,
     "name" : "android::hardware::Status::EX_SECURITY"
    },
    {
     "enum_field_value" : -2,
     "name" : "android::hardware::Status::EX_BAD_PARCELABLE"
    },
    {
     "enum_field_value" : -3,
     "name" : "android::hardware::Status::EX_ILLEGAL_ARGUMENT"
    },
    {
     "enum_field_value" : -4,
     "name" : "android::hardware::Status::EX_NULL_POINTER"
    },
    {
     "enum_field_value" : -5,
     "name" : "android::hardware::Status::EX_ILLEGAL_STATE"
    },
    {
     "enum_field_value" : -6,
     "name" : "android::hardware::Status::EX_NETWORK_MAIN_THREAD"
    },
    {
     "enum_field_value" : -7,
     "name" : "android::hardware::Status::EX_UNSUPPORTED_OPERATION"
    },
    {
     "enum_field_value" : -128,
     "name" : "android::hardware::Status::EX_HAS_REPLY_HEADER"
    },
    {
     "enum_field_value" : -129,
     "name" : "android::hardware::Status::EX_TRANSACTION_FAILED"
    }
   ],
   "linker_set_key" : "android::hardware::Status::Exception",
   "name" : "android::hardware::Status::Exception",
   "referenced_type" : "type-4426",
   "self_type" : "type-4426",
   "size" : 4,
   "source_file" : "/system/libhidl/base/include/hidl/Status.h",
   "underlying_type" : "type-19",
   "unique_id" : "_ZTSN7android8hardware6Status9ExceptionE"
  },
  {
   "alignment" : 4,
   "enum_fields" :
   [
    {
     "enum_field_value" : 0,
     "name" : "android::hardware::details::HidlInstrumentor::SERVER_API_ENTRY"
    },
    {
     "enum_field_value" : 1,
     "name" : "android::hardware::details::HidlInstrumentor::SERVER_API_EXIT"
    },
    {
     "enum_field_value" : 2,
     "name" : "android::hardware::details::HidlInstrumentor::CLIENT_API_ENTRY"
    },
    {
     "enum_field_value" : 3,
     "name" : "android::hardware::details::HidlInstrumentor::CLIENT_API_EXIT"
    },
    {
     "enum_field_value" : 4,
     "name" : "android::hardware::details::HidlInstrumentor::SYNC_CALLBACK_ENTRY"
    },
    {
     "enum_field_value" : 5,
     "name" : "android::hardware::details::HidlInstrumentor::SYNC_CALLBACK_EXIT"
    },
    {
     "enum_field_value" : 6,
     "name" : "android::hardware::details::HidlInstrumentor::ASYNC_CALLBACK_ENTRY"
    },
    {
     "enum_field_value" : 7,
     "name" : "android::hardware::details::HidlInstrumentor::ASYNC_CALLBACK_EXIT"
    },
    {
     "enum_field_value" : 8,
     "name" : "android::hardware::details::HidlInstrumentor::PASSTHROUGH_ENTRY"
    },
    {
     "enum_field_value" : 9,
     "name" : "android::hardware::details::HidlInstrumentor::PASSTHROUGH_EXIT"
    }
   ],
   "linker_set_key" : "android::hardware::details::HidlInstrumentor::InstrumentationEvent",
   "name" : "android::hardware::details::HidlInstrumentor::InstrumentationEvent",
   "referenced_type" : "type-4024",
   "self_type" : "type-4024",
   "size" : 4,
   "source_file" : "/system/libhidl/base/include/hidl/HidlInternal.h",
   "underlying_type" : "type-2",
   "unique_id" : "_ZTSN7android8hardware7details16HidlInstrumentor20InstrumentationEventE"
  },
  {
   "alignment" : 4,
   "enum_fields" :
   [
    {
     "enum_field_value" : 0,
     "name" : "android::hardware::graphics::bufferqueue::V1_0::IGraphicBufferProducer::DisconnectMode::API"
    },
    {
     "enum_field_value" : 1,
     "name" : "android::hardware::graphics::bufferqueue::V1_0::IGraphicBufferProducer::DisconnectMode::ALL_LOCAL"
    }
   ],
   "linker_set_key" : "android::hardware::graphics::bufferqueue::V1_0::IGraphicBufferProducer::DisconnectMode",
   "name" : "android::hardware::graphics::bufferqueue::V1_0::IGraphicBufferProducer::DisconnectMode",
   "referenced_type" : "type-2512",
   "self_type" : "type-2512",
   "size" : 4,
   "source_file" : "/out/soong/.intermediates/hardware/interfaces/graphics/bufferqueue/1.0/android.hardware.graphics.bufferqueue@1.0_genc++_headers/gen/android/hardware/graphics/bufferqueue/1.0/IGraphicBufferProducer.h",
   "underlying_type" : "type-19",
   "unique_id" : "_ZTSN7android8hardware8graphics11bufferqueue4V1_022IGraphicBufferProducer14DisconnectModeE"
  },
  {
   "alignment" : 4,
   "enum_fields" :
   [
    {
     "enum_field_value" : 0,
     "name" : "android::hardware::graphics::bufferqueue::V1_0::IGraphicBufferProducer::FenceTimeSnapshot::State::EMPTY"
    },
    {
     "enum_field_value" : 1,
     "name" : "android::hardware::graphics::bufferqueue::V1_0::IGraphicBufferProducer::FenceTimeSnapshot::State::FENCE"
    },
    {
     "enum_field_value" : 2,
     "name" : "android::hardware::graphics::bufferqueue::V1_0::IGraphicBufferProducer::FenceTimeSnapshot::State::SIGNAL_TIME"
    }
   ],
   "linker_set_key" : "android::hardware::graphics::bufferqueue::V1_0::IGraphicBufferProducer::FenceTimeSnapshot::State",
   "name" : "android::hardware::graphics::bufferqueue::V1_0::IGraphicBufferProducer::FenceTimeSnapshot::State",
   "referenced_type" : "type-657",
   "self_type" : "type-657",
   "size" : 4,
   "source_file" : "/out/soong/.intermediates/hardware/interfaces/graphics/bufferqueue/1.0/android.hardware.graphics.bufferqueue@1.0_genc++_headers/gen/android/hardware/graphics/bufferqueue/1.0/IGraphicBufferProducer.h",
   "underlying_type" : "type-19",
   "unique_id" : "_ZTSN7android8hardware8graphics11bufferqueue4V1_022IGraphicBufferProducer17FenceTimeSnapshot5StateE"
  },
  {
   "alignment" : 4,
   "enum_fields" :
   [
    {
     "enum_field_value" : -1,
     "name" : "android::hardware::graphics::bufferqueue::V2_0::ConnectionType::CURRENTLY_CONNECTED"
    },
    {
     "enum_field_value" : 1,
     "name" : "android::hardware::graphics::bufferqueue::V2_0::ConnectionType::EGL"
    },
    {
     "enum_field_value" : 2,
     "name" : "android::hardware::graphics::bufferqueue::V2_0::ConnectionType::CPU"
    },
    {
     "enum_field_value" : 3,
     "name" : "android::hardware::graphics::bufferqueue::V2_0::ConnectionType::MEDIA"
    },
    {
     "enum_field_value" : 4,
     "name" : "android::hardware::graphics::bufferqueue::V2_0::ConnectionType::CAMERA"
    }
   ],
   "linker_set_key" : "android::hardware::graphics::bufferqueue::V2_0::ConnectionType",
   "name" : "android::hardware::graphics::bufferqueue::V2_0::ConnectionType",
   "referenced_type" : "type-2596",
   "self_type" : "type-2596",
   "size" : 4,
   "source_file" : "/out/soong/.intermediates/hardware/interfaces/graphics/bufferqueue/2.0/android.hardware.graphics.bufferqueue@2.0_genc++_headers/gen/android/hardware/graphics/bufferqueue/2.0/types.h",
   "underlying_type" : "type-19",
   "unique_id" : "_ZTSN7android8hardware8graphics11bufferqueue4V2_014ConnectionTypeE"
  },
  {
   "alignment" : 4,
   "enum_fields" :
   [
    {
     "enum_field_value" : -1,
     "name" : "android::hardware::graphics::bufferqueue::V2_0::SlotIndex::INVALID"
    },
    {
     "enum_field_value" : -1,
     "name" : "android::hardware::graphics::bufferqueue::V2_0::SlotIndex::UNSPECIFIED"
    }
   ],
   "linker_set_key" : "android::hardware::graphics::bufferqueue::V2_0::SlotIndex",
   "name" : "android::hardware::graphics::bufferqueue::V2_0::SlotIndex",
   "referenced_type" : "type-2595",
   "self_type" : "type-2595",
   "size" : 4,
   "source_file" : "/out/soong/.intermediates/hardware/interfaces/graphics/bufferqueue/2.0/android.hardware.graphics.bufferqueue@2.0_genc++_headers/gen/android/hardware/graphics/bufferqueue/2.0/types.h",
   "underlying_type" : "type-19",
   "unique_id" : "_ZTSN7android8hardware8graphics11bufferqueue4V2_09SlotIndexE"
  },
  {
   "alignment" : 4,
   "enum_fields" :
   [
    {
     "enum_field_value" : 0,
     "name" : "android::hardware::graphics::bufferqueue::V2_0::Status::OK"
    },
    {
     "enum_field_value" : -12,
     "name" : "android::hardware::graphics::bufferqueue::V2_0::Status::NO_MEMORY"
    },
    {
     "enum_field_value" : -19,
     "name" : "android::hardware::graphics::bufferqueue::V2_0::Status::NO_INIT"
    },
    {
     "enum_field_value" : -22,
     "name" : "android::hardware::graphics::bufferqueue::V2_0::Status::BAD_VALUE"
    },
    {
     "enum_field_value" : -32,
     "name" : "android::hardware::graphics::bufferqueue::V2_0::Status::DEAD_OBJECT"
    },
    {
     "enum_field_value" : -38,
     "name" : "android::hardware::graphics::bufferqueue::V2_0::Status::INVALID_OPERATION"
    },
    {
     "enum_field_value" : -110,
     "name" : "android::hardware::graphics::bufferqueue::V2_0::Status::TIMED_OUT"
    },
    {
     "enum_field_value" : -5,
     "name" : "android::hardware::graphics::bufferqueue::V2_0::Status::WOULD_BLOCK"
    },
    {
     "enum_field_value" : -1,
     "name" : "android::hardware::graphics::bufferqueue::V2_0::Status::UNKNOWN_ERROR"
    }
   ],
   "linker_set_key" : "android::hardware::graphics::bufferqueue::V2_0::Status",
   "name" : "android::hardware::graphics::bufferqueue::V2_0::Status",
   "referenced_type" : "type-2590",
   "self_type" : "type-2590",
   "size" : 4,
   "source_file" : "/out/soong/.intermediates/hardware/interfaces/graphics/bufferqueue/2.0/android.hardware.graphics.bufferqueue@2.0_genc++_headers/gen/android/hardware/graphics/bufferqueue/2.0/types.h",
   "underlying_type" : "type-19",
   "unique_id" : "_ZTSN7android8hardware8graphics11bufferqueue4V2_06StatusE"
  },
  {
   "alignment" : 8,
   "enum_fields" :
   [
    {
     "enum_field_value" : 15,
     "name" : "android::hardware::graphics::common::V1_0::BufferUsage::CPU_READ_MASK"
    },
    {
     "enum_field_value" : 0,
     "name" : "android::hardware::graphics::common::V1_0::BufferUsage::CPU_READ_NEVER"
    },
    {
     "enum_field_value" : 2,
     "name" : "android::hardware::graphics::common::V1_0::BufferUsage::CPU_READ_RARELY"
    },
    {
     "enum_field_value" : 3,
     "name" : "android::hardware::graphics::common::V1_0::BufferUsage::CPU_READ_OFTEN"
    },
    {
     "enum_field_value" : 240,
     "name" : "android::hardware::graphics::common::V1_0::BufferUsage::CPU_WRITE_MASK"
    },
    {
     "enum_field_value" : 0,
     "name" : "android::hardware::graphics::common::V1_0::BufferUsage::CPU_WRITE_NEVER"
    },
    {
     "enum_field_value" : 32,
     "name" : "android::hardware::graphics::common::V1_0::BufferUsage::CPU_WRITE_RARELY"
    },
    {
     "enum_field_value" : 48,
     "name" : "android::hardware::graphics::common::V1_0::BufferUsage::CPU_WRITE_OFTEN"
    },
    {
     "enum_field_value" : 256,
     "name" : "android::hardware::graphics::common::V1_0::BufferUsage::GPU_TEXTURE"
    },
    {
     "enum_field_value" : 512,
     "name" : "android::hardware::graphics::common::V1_0::BufferUsage::GPU_RENDER_TARGET"
    },
    {
     "enum_field_value" : 2048,
     "name" : "android::hardware::graphics::common::V1_0::BufferUsage::COMPOSER_OVERLAY"
    },
    {
     "enum_field_value" : 4096,
     "name" : "android::hardware::graphics::common::V1_0::BufferUsage::COMPOSER_CLIENT_TARGET"
    },
    {
     "enum_field_value" : 16384,
     "name" : "android::hardware::graphics::common::V1_0::BufferUsage::PROTECTED"
    },
    {
     "enum_field_value" : 32768,
     "name" : "android::hardware::graphics::common::V1_0::BufferUsage::COMPOSER_CURSOR"
    },
    {
     "enum_field_value" : 65536,
     "name" : "android::hardware::graphics::common::V1_0::BufferUsage::VIDEO_ENCODER"
    },
    {
     "enum_field_value" : 131072,
     "name" : "android::hardware::graphics::common::V1_0::BufferUsage::CAMERA_OUTPUT"
    },
    {
     "enum_field_value" : 262144,
     "name" : "android::hardware::graphics::common::V1_0::BufferUsage::CAMERA_INPUT"
    },
    {
     "enum_field_value" : 1048576,
     "name" : "android::hardware::graphics::common::V1_0::BufferUsage::RENDERSCRIPT"
    },
    {
     "enum_field_value" : 4194304,
     "name" : "android::hardware::graphics::common::V1_0::BufferUsage::VIDEO_DECODER"
    },
    {
     "enum_field_value" : 8388608,
     "name" : "android::hardware::graphics::common::V1_0::BufferUsage::SENSOR_DIRECT_DATA"
    },
    {
     "enum_field_value" : 16777216,
     "name" : "android::hardware::graphics::common::V1_0::BufferUsage::GPU_DATA_BUFFER"
    },
    {
     "enum_field_value" : -268435456,
     "name" : "android::hardware::graphics::common::V1_0::BufferUsage::VENDOR_MASK"
    },
    {
     "enum_field_value" : 0,
     "name" : "android::hardware::graphics::common::V1_0::BufferUsage::VENDOR_MASK_HI"
    }
   ],
   "linker_set_key" : "android::hardware::graphics::common::V1_0::BufferUsage",
   "name" : "android::hardware::graphics::common::V1_0::BufferUsage",
   "referenced_type" : "type-2274",
   "self_type" : "type-2274",
   "size" : 8,
   "source_file" : "/out/soong/.intermediates/hardware/interfaces/graphics/common/1.0/android.hardware.graphics.common@1.0_genc++_headers/gen/android/hardware/graphics/common/1.0/types.h",
   "underlying_type" : "type-221",
   "unique_id" : "_ZTSN7android8hardware8graphics6common4V1_011BufferUsageE"
  },
  {
   "alignment" : 4,
   "enum_fields" :
   [
    {
     "enum_field_value" : 0,
     "name" : "android::hardware::graphics::common::V1_0::ColorMode::NATIVE"
    },
    {
     "enum_field_value" : 1,
     "name" : "android::hardware::graphics::common::V1_0::ColorMode::STANDARD_BT601_625"
    },
    {
     "enum_field_value" : 2,
     "name" : "android::hardware::graphics::common::V1_0::ColorMode::STANDARD_BT601_625_UNADJUSTED"
    },
    {
     "enum_field_value" : 3,
     "name" : "android::hardware::graphics::common::V1_0::ColorMode::STANDARD_BT601_525"
    },
    {
     "enum_field_value" : 4,
     "name" : "android::hardware::graphics::common::V1_0::ColorMode::STANDARD_BT601_525_UNADJUSTED"
    },
    {
     "enum_field_value" : 5,
     "name" : "android::hardware::graphics::common::V1_0::ColorMode::STANDARD_BT709"
    },
    {
     "enum_field_value" : 6,
     "name" : "android::hardware::graphics::common::V1_0::ColorMode::DCI_P3"
    },
    {
     "enum_field_value" : 7,
     "name" : "android::hardware::graphics::common::V1_0::ColorMode::SRGB"
    },
    {
     "enum_field_value" : 8,
     "name" : "android::hardware::graphics::common::V1_0::ColorMode::ADOBE_RGB"
    },
    {
     "enum_field_value" : 9,
     "name" : "android::hardware::graphics::common::V1_0::ColorMode::DISPLAY_P3"
    }
   ],
   "linker_set_key" : "android::hardware::graphics::common::V1_0::ColorMode",
   "name" : "android::hardware::graphics::common::V1_0::ColorMode",
   "referenced_type" : "type-2303",
   "self_type" : "type-2303",
   "size" : 4,
   "source_file" : "/out/soong/.intermediates/hardware/interfaces/graphics/common/1.0/android.hardware.graphics.common@1.0_genc++_headers/gen/android/hardware/graphics/common/1.0/types.h",
   "underlying_type" : "type-19",
   "unique_id" : "_ZTSN7android8hardware8graphics6common4V1_09ColorModeE"
  },
  {
   "alignment" : 4,
   "enum_fields" :
   [
    {
     "enum_field_value" : 0,
     "name" : "android::hardware::graphics::common::V1_0::ColorTransform::IDENTITY"
    },
    {
     "enum_field_value" : 1,
     "name" : "android::hardware::graphics::common::V1_0::ColorTransform::ARBITRARY_MATRIX"
    },
    {
     "enum_field_value" : 2,
     "name" : "android::hardware::graphics::common::V1_0::ColorTransform::VALUE_INVERSE"
    },
    {
     "enum_field_value" : 3,
     "name" : "android::hardware::graphics::common::V1_0::ColorTransform::GRAYSCALE"
    },
    {
     "enum_field_value" : 4,
     "name" : "android::hardware::graphics::common::V1_0::ColorTransform::CORRECT_PROTANOPIA"
    },
    {
     "enum_field_value" : 5,
     "name" : "android::hardware::graphics::common::V1_0::ColorTransform::CORRECT_DEUTERANOPIA"
    },
    {
     "enum_field_value" : 6,
     "name" : "android::hardware::graphics::common::V1_0::ColorTransform::CORRECT_TRITANOPIA"
    }
   ],
   "linker_set_key" : "android::hardware::graphics::common::V1_0::ColorTransform",
   "name" : "android::hardware::graphics::common::V1_0::ColorTransform",
   "referenced_type" : "type-2306",
   "self_type" : "type-2306",
   "size" : 4,
   "source_file" : "/out/soong/.intermediates/hardware/interfaces/graphics/common/1.0/android.hardware.graphics.common@1.0_genc++_headers/gen/android/hardware/graphics/common/1.0/types.h",
   "underlying_type" : "type-19",
   "unique_id" : "_ZTSN7android8hardware8graphics6common4V1_014ColorTransformE"
  },
  {
   "alignment" : 4,
   "enum_fields" :
   [
    {
     "enum_field_value" : 0,
     "name" : "android::hardware::graphics::common::V1_0::Dataspace::UNKNOWN"
    },
    {
     "enum_field_value" : 1,
     "name" : "android::hardware::graphics::common::V1_0::Dataspace::ARBITRARY"
    },
    {
     "enum_field_value" : 16,
     "name" : "android::hardware::graphics::common::V1_0::Dataspace::STANDARD_SHIFT"
    },
    {
     "enum_field_value" : 4128768,
     "name" : "android::hardware::graphics::common::V1_0::Dataspace::STANDARD_MASK"
    },
    {
     "enum_field_value" : 0,
     "name" : "android::hardware::graphics::common::V1_0::Dataspace::STANDARD_UNSPECIFIED"
    },
    {
     "enum_field_value" : 65536,
     "name" : "android::hardware::graphics::common::V1_0::Dataspace::STANDARD_BT709"
    },
    {
     "enum_field_value" : 131072,
     "name" : "android::hardware::graphics::common::V1_0::Dataspace::STANDARD_BT601_625"
    },
    {
     "enum_field_value" : 196608,
     "name" : "android::hardware::graphics::common::V1_0::Dataspace::STANDARD_BT601_625_UNADJUSTED"
    },
    {
     "enum_field_value" : 262144,
     "name" : "android::hardware::graphics::common::V1_0::Dataspace::STANDARD_BT601_525"
    },
    {
     "enum_field_value" : 327680,
     "name" : "android::hardware::graphics::common::V1_0::Dataspace::STANDARD_BT601_525_UNADJUSTED"
    },
    {
     "enum_field_value" : 393216,
     "name" : "android::hardware::graphics::common::V1_0::Dataspace::STANDARD_BT2020"
    },
    {
     "enum_field_value" : 458752,
     "name" : "android::hardware::graphics::common::V1_0::Dataspace::STANDARD_BT2020_CONSTANT_LUMINANCE"
    },
    {
     "enum_field_value" : 524288,
     "name" : "android::hardware::graphics::common::V1_0::Dataspace::STANDARD_BT470M"
    },
    {
     "enum_field_value" : 589824,
     "name" : "android::hardware::graphics::common::V1_0::Dataspace::STANDARD_FILM"
    },
    {
     "enum_field_value" : 655360,
     "name" : "android::hardware::graphics::common::V1_0::Dataspace::STANDARD_DCI_P3"
    },
    {
     "enum_field_value" : 720896,
     "name" : "android::hardware::graphics::common::V1_0::Dataspace::STANDARD_ADOBE_RGB"
    },
    {
     "enum_field_value" : 22,
     "name" : "android::hardware::graphics::common::V1_0::Dataspace::TRANSFER_SHIFT"
    },
    {
     "enum_field_value" : 130023424,
     "name" : "android::hardware::graphics::common::V1_0::Dataspace::TRANSFER_MASK"
    },
    {
     "enum_field_value" : 0,
     "name" : "android::hardware::graphics::common::V1_0::Dataspace::TRANSFER_UNSPECIFIED"
    },
    {
     "enum_field_value" : 4194304,
     "name" : "android::hardware::graphics::common::V1_0::Dataspace::TRANSFER_LINEAR"
    },
    {
     "enum_field_value" : 8388608,
     "name" : "android::hardware::graphics::common::V1_0::Dataspace::TRANSFER_SRGB"
    },
    {
     "enum_field_value" : 12582912,
     "name" : "android::hardware::graphics::common::V1_0::Dataspace::TRANSFER_SMPTE_170M"
    },
    {
     "enum_field_value" : 16777216,
     "name" : "android::hardware::graphics::common::V1_0::Dataspace::TRANSFER_GAMMA2_2"
    },
    {
     "enum_field_value" : 20971520,
     "name" : "android::hardware::graphics::common::V1_0::Dataspace::TRANSFER_GAMMA2_6"
    },
    {
     "enum_field_value" : 25165824,
     "name" : "android::hardware::graphics::common::V1_0::Dataspace::TRANSFER_GAMMA2_8"
    },
    {
     "enum_field_value" : 29360128,
     "name" : "android::hardware::graphics::common::V1_0::Dataspace::TRANSFER_ST2084"
    },
    {
     "enum_field_value" : 33554432,
     "name" : "android::hardware::graphics::common::V1_0::Dataspace::TRANSFER_HLG"
    },
    {
     "enum_field_value" : 27,
     "name" : "android::hardware::graphics::common::V1_0::Dataspace::RANGE_SHIFT"
    },
    {
     "enum_field_value" : 939524096,
     "name" : "android::hardware::graphics::common::V1_0::Dataspace::RANGE_MASK"
    },
    {
     "enum_field_value" : 0,
     "name" : "android::hardware::graphics::common::V1_0::Dataspace::RANGE_UNSPECIFIED"
    },
    {
     "enum_field_value" : 134217728,
     "name" : "android::hardware::graphics::common::V1_0::Dataspace::RANGE_FULL"
    },
    {
     "enum_field_value" : 268435456,
     "name" : "android::hardware::graphics::common::V1_0::Dataspace::RANGE_LIMITED"
    },
    {
     "enum_field_value" : 402653184,
     "name" : "android::hardware::graphics::common::V1_0::Dataspace::RANGE_EXTENDED"
    },
    {
     "enum_field_value" : 512,
     "name" : "android::hardware::graphics::common::V1_0::Dataspace::SRGB_LINEAR"
    },
    {
     "enum_field_value" : 138477568,
     "name" : "android::hardware::graphics::common::V1_0::Dataspace::V0_SRGB_LINEAR"
    },
    {
     "enum_field_value" : 406913024,
     "name" : "android::hardware::graphics::common::V1_0::Dataspace::V0_SCRGB_LINEAR"
    },
    {
     "enum_field_value" : 513,
     "name" : "android::hardware::graphics::common::V1_0::Dataspace::SRGB"
    },
    {
     "enum_field_value" : 142671872,
     "name" : "android::hardware::graphics::common::V1_0::Dataspace::V0_SRGB"
    },
    {
     "enum_field_value" : 411107328,
     "name" : "android::hardware::graphics::common::V1_0::Dataspace::V0_SCRGB"
    },
    {
     "enum_field_value" : 257,
     "name" : "android::hardware::graphics::common::V1_0::Dataspace::JFIF"
    },
    {
     "enum_field_value" : 146931712,
     "name" : "android::hardware::graphics::common::V1_0::Dataspace::V0_JFIF"
    },
    {
     "enum_field_value" : 258,
     "name" : "android::hardware::graphics::common::V1_0::Dataspace::BT601_625"
    },
    {
     "enum_field_value" : 281149440,
     "name" : "android::hardware::graphics::common::V1_0::Dataspace::V0_BT601_625"
    },
    {
     "enum_field_value" : 259,
     "name" : "android::hardware::graphics::common::V1_0::Dataspace::BT601_525"
    },
    {
     "enum_field_value" : 281280512,
     "name" : "android::hardware::graphics::common::V1_0::Dataspace::V0_BT601_525"
    },
    {
     "enum_field_value" : 260,
     "name" : "android::hardware::graphics::common::V1_0::Dataspace::BT709"
    },
    {
     "enum_field_value" : 281083904,
     "name" : "android::hardware::graphics::common::V1_0::Dataspace::V0_BT709"
    },
    {
     "enum_field_value" : 139067392,
     "name" : "android::hardware::graphics::common::V1_0::Dataspace::DCI_P3_LINEAR"
    },
    {
     "enum_field_value" : 155844608,
     "name" : "android::hardware::graphics::common::V1_0::Dataspace::DCI_P3"
    },
    {
     "enum_field_value" : 139067392,
     "name" : "android::hardware::graphics::common::V1_0::Dataspace::DISPLAY_P3_LINEAR"
    },
    {
     "enum_field_value" : 143261696,
     "name" : "android::hardware::graphics::common::V1_0::Dataspace::DISPLAY_P3"
    },
    {
     "enum_field_value" : 151715840,
     "name" : "android::hardware::graphics::common::V1_0::Dataspace::ADOBE_RGB"
    },
    {
     "enum_field_value" : 138805248,
     "name" : "android::hardware::graphics::common::V1_0::Dataspace::BT2020_LINEAR"
    },
    {
     "enum_field_value" : 147193856,
     "name" : "android::hardware::graphics::common::V1_0::Dataspace::BT2020"
    },
    {
     "enum_field_value" : 163971072,
     "name" : "android::hardware::graphics::common::V1_0::Dataspace::BT2020_PQ"
    },
    {
     "enum_field_value" : 4096,
     "name" : "android::hardware::graphics::common::V1_0::Dataspace::DEPTH"
    },
    {
     "enum_field_value" : 4097,
     "name" : "android::hardware::graphics::common::V1_0::Dataspace::SENSOR"
    }
   ],
   "linker_set_key" : "android::hardware::graphics::common::V1_0::Dataspace",
   "name" : "android::hardware::graphics::common::V1_0::Dataspace",
   "referenced_type" : "type-2295",
   "self_type" : "type-2295",
   "size" : 4,
   "source_file" : "/out/soong/.intermediates/hardware/interfaces/graphics/common/1.0/android.hardware.graphics.common@1.0_genc++_headers/gen/android/hardware/graphics/common/1.0/types.h",
   "underlying_type" : "type-19",
   "unique_id" : "_ZTSN7android8hardware8graphics6common4V1_09DataspaceE"
  },
  {
   "alignment" : 4,
   "enum_fields" :
   [
    {
     "enum_field_value" : 1,
     "name" : "android::hardware::graphics::common::V1_0::Hdr::DOLBY_VISION"
    },
    {
     "enum_field_value" : 2,
     "name" : "android::hardware::graphics::common::V1_0::Hdr::HDR10"
    },
    {
     "enum_field_value" : 3,
     "name" : "android::hardware::graphics::common::V1_0::Hdr::HLG"
    }
   ],
   "linker_set_key" : "android::hardware::graphics::common::V1_0::Hdr",
   "name" : "android::hardware::graphics::common::V1_0::Hdr",
   "referenced_type" : "type-2307",
   "self_type" : "type-2307",
   "size" : 4,
   "source_file" : "/out/soong/.intermediates/hardware/interfaces/graphics/common/1.0/android.hardware.graphics.common@1.0_genc++_headers/gen/android/hardware/graphics/common/1.0/types.h",
   "underlying_type" : "type-19",
   "unique_id" : "_ZTSN7android8hardware8graphics6common4V1_03HdrE"
  },
  {
   "alignment" : 4,
   "enum_fields" :
   [
    {
     "enum_field_value" : 1,
     "name" : "android::hardware::graphics::common::V1_0::PixelFormat::RGBA_8888"
    },
    {
     "enum_field_value" : 2,
     "name" : "android::hardware::graphics::common::V1_0::PixelFormat::RGBX_8888"
    },
    {
     "enum_field_value" : 3,
     "name" : "android::hardware::graphics::common::V1_0::PixelFormat::RGB_888"
    },
    {
     "enum_field_value" : 4,
     "name" : "android::hardware::graphics::common::V1_0::PixelFormat::RGB_565"
    },
    {
     "enum_field_value" : 5,
     "name" : "android::hardware::graphics::common::V1_0::PixelFormat::BGRA_8888"
    },
    {
     "enum_field_value" : 16,
     "name" : "android::hardware::graphics::common::V1_0::PixelFormat::YCBCR_422_SP"
    },
    {
     "enum_field_value" : 17,
     "name" : "android::hardware::graphics::common::V1_0::PixelFormat::YCRCB_420_SP"
    },
    {
     "enum_field_value" : 20,
     "name" : "android::hardware::graphics::common::V1_0::PixelFormat::YCBCR_422_I"
    },
    {
     "enum_field_value" : 22,
     "name" : "android::hardware::graphics::common::V1_0::PixelFormat::RGBA_FP16"
    },
    {
     "enum_field_value" : 32,
     "name" : "android::hardware::graphics::common::V1_0::PixelFormat::RAW16"
    },
    {
     "enum_field_value" : 33,
     "name" : "android::hardware::graphics::common::V1_0::PixelFormat::BLOB"
    },
    {
     "enum_field_value" : 34,
     "name" : "android::hardware::graphics::common::V1_0::PixelFormat::IMPLEMENTATION_DEFINED"
    },
    {
     "enum_field_value" : 35,
     "name" : "android::hardware::graphics::common::V1_0::PixelFormat::YCBCR_420_888"
    },
    {
     "enum_field_value" : 36,
     "name" : "android::hardware::graphics::common::V1_0::PixelFormat::RAW_OPAQUE"
    },
    {
     "enum_field_value" : 37,
     "name" : "android::hardware::graphics::common::V1_0::PixelFormat::RAW10"
    },
    {
     "enum_field_value" : 38,
     "name" : "android::hardware::graphics::common::V1_0::PixelFormat::RAW12"
    },
    {
     "enum_field_value" : 43,
     "name" : "android::hardware::graphics::common::V1_0::PixelFormat::RGBA_1010102"
    },
    {
     "enum_field_value" : 538982489,
     "name" : "android::hardware::graphics::common::V1_0::PixelFormat::Y8"
    },
    {
     "enum_field_value" : 540422489,
     "name" : "android::hardware::graphics::common::V1_0::PixelFormat::Y16"
    },
    {
     "enum_field_value" : 842094169,
     "name" : "android::hardware::graphics::common::V1_0::PixelFormat::YV12"
    }
   ],
   "linker_set_key" : "android::hardware::graphics::common::V1_0::PixelFormat",
   "name" : "android::hardware::graphics::common::V1_0::PixelFormat",
   "referenced_type" : "type-2253",
   "self_type" : "type-2253",
   "size" : 4,
   "source_file" : "/out/soong/.intermediates/hardware/interfaces/graphics/common/1.0/android.hardware.graphics.common@1.0_genc++_headers/gen/android/hardware/graphics/common/1.0/types.h",
   "underlying_type" : "type-19",
   "unique_id" : "_ZTSN7android8hardware8graphics6common4V1_011PixelFormatE"
  },
  {
   "alignment" : 4,
   "enum_fields" :
   [
    {
     "enum_field_value" : 1,
     "name" : "android::hardware::graphics::common::V1_0::Transform::FLIP_H"
    },
    {
     "enum_field_value" : 2,
     "name" : "android::hardware::graphics::common::V1_0::Transform::FLIP_V"
    },
    {
     "enum_field_value" : 4,
     "name" : "android::hardware::graphics::common::V1_0::Transform::ROT_90"
    },
    {
     "enum_field_value" : 3,
     "name" : "android::hardware::graphics::common::V1_0::Transform::ROT_180"
    },
    {
     "enum_field_value" : 7,
     "name" : "android::hardware::graphics::common::V1_0::Transform::ROT_270"
    }
   ],
   "linker_set_key" : "android::hardware::graphics::common::V1_0::Transform",
   "name" : "android::hardware::graphics::common::V1_0::Transform",
   "referenced_type" : "type-2283",
   "self_type" : "type-2283",
   "size" : 4,
   "source_file" : "/out/soong/.intermediates/hardware/interfaces/graphics/common/1.0/android.hardware.graphics.common@1.0_genc++_headers/gen/android/hardware/graphics/common/1.0/types.h",
   "underlying_type" : "type-19",
   "unique_id" : "_ZTSN7android8hardware8graphics6common4V1_09TransformE"
  },
  {
   "alignment" : 8,
   "enum_fields" :
   [
    {
     "enum_field_value" : 15,
     "name" : "android::hardware::graphics::common::V1_1::BufferUsage::CPU_READ_MASK"
    },
    {
     "enum_field_value" : 0,
     "name" : "android::hardware::graphics::common::V1_1::BufferUsage::CPU_READ_NEVER"
    },
    {
     "enum_field_value" : 2,
     "name" : "android::hardware::graphics::common::V1_1::BufferUsage::CPU_READ_RARELY"
    },
    {
     "enum_field_value" : 3,
     "name" : "android::hardware::graphics::common::V1_1::BufferUsage::CPU_READ_OFTEN"
    },
    {
     "enum_field_value" : 240,
     "name" : "android::hardware::graphics::common::V1_1::BufferUsage::CPU_WRITE_MASK"
    },
    {
     "enum_field_value" : 0,
     "name" : "android::hardware::graphics::common::V1_1::BufferUsage::CPU_WRITE_NEVER"
    },
    {
     "enum_field_value" : 32,
     "name" : "android::hardware::graphics::common::V1_1::BufferUsage::CPU_WRITE_RARELY"
    },
    {
     "enum_field_value" : 48,
     "name" : "android::hardware::graphics::common::V1_1::BufferUsage::CPU_WRITE_OFTEN"
    },
    {
     "enum_field_value" : 256,
     "name" : "android::hardware::graphics::common::V1_1::BufferUsage::GPU_TEXTURE"
    },
    {
     "enum_field_value" : 512,
     "name" : "android::hardware::graphics::common::V1_1::BufferUsage::GPU_RENDER_TARGET"
    },
    {
     "enum_field_value" : 2048,
     "name" : "android::hardware::graphics::common::V1_1::BufferUsage::COMPOSER_OVERLAY"
    },
    {
     "enum_field_value" : 4096,
     "name" : "android::hardware::graphics::common::V1_1::BufferUsage::COMPOSER_CLIENT_TARGET"
    },
    {
     "enum_field_value" : 16384,
     "name" : "android::hardware::graphics::common::V1_1::BufferUsage::PROTECTED"
    },
    {
     "enum_field_value" : 32768,
     "name" : "android::hardware::graphics::common::V1_1::BufferUsage::COMPOSER_CURSOR"
    },
    {
     "enum_field_value" : 65536,
     "name" : "android::hardware::graphics::common::V1_1::BufferUsage::VIDEO_ENCODER"
    },
    {
     "enum_field_value" : 131072,
     "name" : "android::hardware::graphics::common::V1_1::BufferUsage::CAMERA_OUTPUT"
    },
    {
     "enum_field_value" : 262144,
     "name" : "android::hardware::graphics::common::V1_1::BufferUsage::CAMERA_INPUT"
    },
    {
     "enum_field_value" : 1048576,
     "name" : "android::hardware::graphics::common::V1_1::BufferUsage::RENDERSCRIPT"
    },
    {
     "enum_field_value" : 4194304,
     "name" : "android::hardware::graphics::common::V1_1::BufferUsage::VIDEO_DECODER"
    },
    {
     "enum_field_value" : 8388608,
     "name" : "android::hardware::graphics::common::V1_1::BufferUsage::SENSOR_DIRECT_DATA"
    },
    {
     "enum_field_value" : 16777216,
     "name" : "android::hardware::graphics::common::V1_1::BufferUsage::GPU_DATA_BUFFER"
    },
    {
     "enum_field_value" : -268435456,
     "name" : "android::hardware::graphics::common::V1_1::BufferUsage::VENDOR_MASK"
    },
    {
     "enum_field_value" : 0,
     "name" : "android::hardware::graphics::common::V1_1::BufferUsage::VENDOR_MASK_HI"
    },
    {
     "enum_field_value" : 33554432,
     "name" : "android::hardware::graphics::common::V1_1::BufferUsage::GPU_CUBE_MAP"
    },
    {
     "enum_field_value" : 67108864,
     "name" : "android::hardware::graphics::common::V1_1::BufferUsage::GPU_MIPMAP_COMPLETE"
    }
   ],
   "linker_set_key" : "android::hardware::graphics::common::V1_1::BufferUsage",
   "name" : "android::hardware::graphics::common::V1_1::BufferUsage",
   "referenced_type" : "type-2634",
   "self_type" : "type-2634",
   "size" : 8,
   "source_file" : "/out/soong/.intermediates/hardware/interfaces/graphics/common/1.1/android.hardware.graphics.common@1.1_genc++_headers/gen/android/hardware/graphics/common/1.1/types.h",
   "underlying_type" : "type-221",
   "unique_id" : "_ZTSN7android8hardware8graphics6common4V1_111BufferUsageE"
  },
  {
   "alignment" : 4,
   "enum_fields" :
   [
    {
     "enum_field_value" : 0,
     "name" : "android::hardware::graphics::common::V1_1::ColorMode::NATIVE"
    },
    {
     "enum_field_value" : 1,
     "name" : "android::hardware::graphics::common::V1_1::ColorMode::STANDARD_BT601_625"
    },
    {
     "enum_field_value" : 2,
     "name" : "android::hardware::graphics::common::V1_1::ColorMode::STANDARD_BT601_625_UNADJUSTED"
    },
    {
     "enum_field_value" : 3,
     "name" : "android::hardware::graphics::common::V1_1::ColorMode::STANDARD_BT601_525"
    },
    {
     "enum_field_value" : 4,
     "name" : "android::hardware::graphics::common::V1_1::ColorMode::STANDARD_BT601_525_UNADJUSTED"
    },
    {
     "enum_field_value" : 5,
     "name" : "android::hardware::graphics::common::V1_1::ColorMode::STANDARD_BT709"
    },
    {
     "enum_field_value" : 6,
     "name" : "android::hardware::graphics::common::V1_1::ColorMode::DCI_P3"
    },
    {
     "enum_field_value" : 7,
     "name" : "android::hardware::graphics::common::V1_1::ColorMode::SRGB"
    },
    {
     "enum_field_value" : 8,
     "name" : "android::hardware::graphics::common::V1_1::ColorMode::ADOBE_RGB"
    },
    {
     "enum_field_value" : 9,
     "name" : "android::hardware::graphics::common::V1_1::ColorMode::DISPLAY_P3"
    },
    {
     "enum_field_value" : 10,
     "name" : "android::hardware::graphics::common::V1_1::ColorMode::BT2020"
    },
    {
     "enum_field_value" : 11,
     "name" : "android::hardware::graphics::common::V1_1::ColorMode::BT2100_PQ"
    },
    {
     "enum_field_value" : 12,
     "name" : "android::hardware::graphics::common::V1_1::ColorMode::BT2100_HLG"
    }
   ],
   "linker_set_key" : "android::hardware::graphics::common::V1_1::ColorMode",
   "name" : "android::hardware::graphics::common::V1_1::ColorMode",
   "referenced_type" : "type-2654",
   "self_type" : "type-2654",
   "size" : 4,
   "source_file" : "/out/soong/.intermediates/hardware/interfaces/graphics/common/1.1/android.hardware.graphics.common@1.1_genc++_headers/gen/android/hardware/graphics/common/1.1/types.h",
   "underlying_type" : "type-19",
   "unique_id" : "_ZTSN7android8hardware8graphics6common4V1_19ColorModeE"
  },
  {
   "alignment" : 4,
   "enum_fields" :
   [
    {
     "enum_field_value" : 0,
     "name" : "android::hardware::graphics::common::V1_1::Dataspace::UNKNOWN"
    },
    {
     "enum_field_value" : 1,
     "name" : "android::hardware::graphics::common::V1_1::Dataspace::ARBITRARY"
    },
    {
     "enum_field_value" : 16,
     "name" : "android::hardware::graphics::common::V1_1::Dataspace::STANDARD_SHIFT"
    },
    {
     "enum_field_value" : 4128768,
     "name" : "android::hardware::graphics::common::V1_1::Dataspace::STANDARD_MASK"
    },
    {
     "enum_field_value" : 0,
     "name" : "android::hardware::graphics::common::V1_1::Dataspace::STANDARD_UNSPECIFIED"
    },
    {
     "enum_field_value" : 65536,
     "name" : "android::hardware::graphics::common::V1_1::Dataspace::STANDARD_BT709"
    },
    {
     "enum_field_value" : 131072,
     "name" : "android::hardware::graphics::common::V1_1::Dataspace::STANDARD_BT601_625"
    },
    {
     "enum_field_value" : 196608,
     "name" : "android::hardware::graphics::common::V1_1::Dataspace::STANDARD_BT601_625_UNADJUSTED"
    },
    {
     "enum_field_value" : 262144,
     "name" : "android::hardware::graphics::common::V1_1::Dataspace::STANDARD_BT601_525"
    },
    {
     "enum_field_value" : 327680,
     "name" : "android::hardware::graphics::common::V1_1::Dataspace::STANDARD_BT601_525_UNADJUSTED"
    },
    {
     "enum_field_value" : 393216,
     "name" : "android::hardware::graphics::common::V1_1::Dataspace::STANDARD_BT2020"
    },
    {
     "enum_field_value" : 458752,
     "name" : "android::hardware::graphics::common::V1_1::Dataspace::STANDARD_BT2020_CONSTANT_LUMINANCE"
    },
    {
     "enum_field_value" : 524288,
     "name" : "android::hardware::graphics::common::V1_1::Dataspace::STANDARD_BT470M"
    },
    {
     "enum_field_value" : 589824,
     "name" : "android::hardware::graphics::common::V1_1::Dataspace::STANDARD_FILM"
    },
    {
     "enum_field_value" : 655360,
     "name" : "android::hardware::graphics::common::V1_1::Dataspace::STANDARD_DCI_P3"
    },
    {
     "enum_field_value" : 720896,
     "name" : "android::hardware::graphics::common::V1_1::Dataspace::STANDARD_ADOBE_RGB"
    },
    {
     "enum_field_value" : 22,
     "name" : "android::hardware::graphics::common::V1_1::Dataspace::TRANSFER_SHIFT"
    },
    {
     "enum_field_value" : 130023424,
     "name" : "android::hardware::graphics::common::V1_1::Dataspace::TRANSFER_MASK"
    },
    {
     "enum_field_value" : 0,
     "name" : "android::hardware::graphics::common::V1_1::Dataspace::TRANSFER_UNSPECIFIED"
    },
    {
     "enum_field_value" : 4194304,
     "name" : "android::hardware::graphics::common::V1_1::Dataspace::TRANSFER_LINEAR"
    },
    {
     "enum_field_value" : 8388608,
     "name" : "android::hardware::graphics::common::V1_1::Dataspace::TRANSFER_SRGB"
    },
    {
     "enum_field_value" : 12582912,
     "name" : "android::hardware::graphics::common::V1_1::Dataspace::TRANSFER_SMPTE_170M"
    },
    {
     "enum_field_value" : 16777216,
     "name" : "android::hardware::graphics::common::V1_1::Dataspace::TRANSFER_GAMMA2_2"
    },
    {
     "enum_field_value" : 20971520,
     "name" : "android::hardware::graphics::common::V1_1::Dataspace::TRANSFER_GAMMA2_6"
    },
    {
     "enum_field_value" : 25165824,
     "name" : "android::hardware::graphics::common::V1_1::Dataspace::TRANSFER_GAMMA2_8"
    },
    {
     "enum_field_value" : 29360128,
     "name" : "android::hardware::graphics::common::V1_1::Dataspace::TRANSFER_ST2084"
    },
    {
     "enum_field_value" : 33554432,
     "name" : "android::hardware::graphics::common::V1_1::Dataspace::TRANSFER_HLG"
    },
    {
     "enum_field_value" : 27,
     "name" : "android::hardware::graphics::common::V1_1::Dataspace::RANGE_SHIFT"
    },
    {
     "enum_field_value" : 939524096,
     "name" : "android::hardware::graphics::common::V1_1::Dataspace::RANGE_MASK"
    },
    {
     "enum_field_value" : 0,
     "name" : "android::hardware::graphics::common::V1_1::Dataspace::RANGE_UNSPECIFIED"
    },
    {
     "enum_field_value" : 134217728,
     "name" : "android::hardware::graphics::common::V1_1::Dataspace::RANGE_FULL"
    },
    {
     "enum_field_value" : 268435456,
     "name" : "android::hardware::graphics::common::V1_1::Dataspace::RANGE_LIMITED"
    },
    {
     "enum_field_value" : 402653184,
     "name" : "android::hardware::graphics::common::V1_1::Dataspace::RANGE_EXTENDED"
    },
    {
     "enum_field_value" : 512,
     "name" : "android::hardware::graphics::common::V1_1::Dataspace::SRGB_LINEAR"
    },
    {
     "enum_field_value" : 138477568,
     "name" : "android::hardware::graphics::common::V1_1::Dataspace::V0_SRGB_LINEAR"
    },
    {
     "enum_field_value" : 406913024,
     "name" : "android::hardware::graphics::common::V1_1::Dataspace::V0_SCRGB_LINEAR"
    },
    {
     "enum_field_value" : 513,
     "name" : "android::hardware::graphics::common::V1_1::Dataspace::SRGB"
    },
    {
     "enum_field_value" : 142671872,
     "name" : "android::hardware::graphics::common::V1_1::Dataspace::V0_SRGB"
    },
    {
     "enum_field_value" : 411107328,
     "name" : "android::hardware::graphics::common::V1_1::Dataspace::V0_SCRGB"
    },
    {
     "enum_field_value" : 257,
     "name" : "android::hardware::graphics::common::V1_1::Dataspace::JFIF"
    },
    {
     "enum_field_value" : 146931712,
     "name" : "android::hardware::graphics::common::V1_1::Dataspace::V0_JFIF"
    },
    {
     "enum_field_value" : 258,
     "name" : "android::hardware::graphics::common::V1_1::Dataspace::BT601_625"
    },
    {
     "enum_field_value" : 281149440,
     "name" : "android::hardware::graphics::common::V1_1::Dataspace::V0_BT601_625"
    },
    {
     "enum_field_value" : 259,
     "name" : "android::hardware::graphics::common::V1_1::Dataspace::BT601_525"
    },
    {
     "enum_field_value" : 281280512,
     "name" : "android::hardware::graphics::common::V1_1::Dataspace::V0_BT601_525"
    },
    {
     "enum_field_value" : 260,
     "name" : "android::hardware::graphics::common::V1_1::Dataspace::BT709"
    },
    {
     "enum_field_value" : 281083904,
     "name" : "android::hardware::graphics::common::V1_1::Dataspace::V0_BT709"
    },
    {
     "enum_field_value" : 139067392,
     "name" : "android::hardware::graphics::common::V1_1::Dataspace::DCI_P3_LINEAR"
    },
    {
     "enum_field_value" : 155844608,
     "name" : "android::hardware::graphics::common::V1_1::Dataspace::DCI_P3"
    },
    {
     "enum_field_value" : 139067392,
     "name" : "android::hardware::graphics::common::V1_1::Dataspace::DISPLAY_P3_LINEAR"
    },
    {
     "enum_field_value" : 143261696,
     "name" : "android::hardware::graphics::common::V1_1::Dataspace::DISPLAY_P3"
    },
    {
     "enum_field_value" : 151715840,
     "name" : "android::hardware::graphics::common::V1_1::Dataspace::ADOBE_RGB"
    },
    {
     "enum_field_value" : 138805248,
     "name" : "android::hardware::graphics::common::V1_1::Dataspace::BT2020_LINEAR"
    },
    {
     "enum_field_value" : 147193856,
     "name" : "android::hardware::graphics::common::V1_1::Dataspace::BT2020"
    },
    {
     "enum_field_value" : 163971072,
     "name" : "android::hardware::graphics::common::V1_1::Dataspace::BT2020_PQ"
    },
    {
     "enum_field_value" : 4096,
     "name" : "android::hardware::graphics::common::V1_1::Dataspace::DEPTH"
    },
    {
     "enum_field_value" : 4097,
     "name" : "android::hardware::graphics::common::V1_1::Dataspace::SENSOR"
    },
    {
     "enum_field_value" : 281411584,
     "name" : "android::hardware::graphics::common::V1_1::Dataspace::BT2020_ITU"
    },
    {
     "enum_field_value" : 298188800,
     "name" : "android::hardware::graphics::common::V1_1::Dataspace::BT2020_ITU_PQ"
    },
    {
     "enum_field_value" : 302383104,
     "name" : "android::hardware::graphics::common::V1_1::Dataspace::BT2020_ITU_HLG"
    },
    {
     "enum_field_value" : 168165376,
     "name" : "android::hardware::graphics::common::V1_1::Dataspace::BT2020_HLG"
    }
   ],
   "linker_set_key" : "android::hardware::graphics::common::V1_1::Dataspace",
   "name" : "android::hardware::graphics::common::V1_1::Dataspace",
   "referenced_type" : "type-2645",
   "self_type" : "type-2645",
   "size" : 4,
   "source_file" : "/out/soong/.intermediates/hardware/interfaces/graphics/common/1.1/android.hardware.graphics.common@1.1_genc++_headers/gen/android/hardware/graphics/common/1.1/types.h",
   "underlying_type" : "type-19",
   "unique_id" : "_ZTSN7android8hardware8graphics6common4V1_19DataspaceE"
  },
  {
   "alignment" : 4,
   "enum_fields" :
   [
    {
     "enum_field_value" : 1,
     "name" : "android::hardware::graphics::common::V1_1::PixelFormat::RGBA_8888"
    },
    {
     "enum_field_value" : 2,
     "name" : "android::hardware::graphics::common::V1_1::PixelFormat::RGBX_8888"
    },
    {
     "enum_field_value" : 3,
     "name" : "android::hardware::graphics::common::V1_1::PixelFormat::RGB_888"
    },
    {
     "enum_field_value" : 4,
     "name" : "android::hardware::graphics::common::V1_1::PixelFormat::RGB_565"
    },
    {
     "enum_field_value" : 5,
     "name" : "android::hardware::graphics::common::V1_1::PixelFormat::BGRA_8888"
    },
    {
     "enum_field_value" : 16,
     "name" : "android::hardware::graphics::common::V1_1::PixelFormat::YCBCR_422_SP"
    },
    {
     "enum_field_value" : 17,
     "name" : "android::hardware::graphics::common::V1_1::PixelFormat::YCRCB_420_SP"
    },
    {
     "enum_field_value" : 20,
     "name" : "android::hardware::graphics::common::V1_1::PixelFormat::YCBCR_422_I"
    },
    {
     "enum_field_value" : 22,
     "name" : "android::hardware::graphics::common::V1_1::PixelFormat::RGBA_FP16"
    },
    {
     "enum_field_value" : 32,
     "name" : "android::hardware::graphics::common::V1_1::PixelFormat::RAW16"
    },
    {
     "enum_field_value" : 33,
     "name" : "android::hardware::graphics::common::V1_1::PixelFormat::BLOB"
    },
    {
     "enum_field_value" : 34,
     "name" : "android::hardware::graphics::common::V1_1::PixelFormat::IMPLEMENTATION_DEFINED"
    },
    {
     "enum_field_value" : 35,
     "name" : "android::hardware::graphics::common::V1_1::PixelFormat::YCBCR_420_888"
    },
    {
     "enum_field_value" : 36,
     "name" : "android::hardware::graphics::common::V1_1::PixelFormat::RAW_OPAQUE"
    },
    {
     "enum_field_value" : 37,
     "name" : "android::hardware::graphics::common::V1_1::PixelFormat::RAW10"
    },
    {
     "enum_field_value" : 38,
     "name" : "android::hardware::graphics::common::V1_1::PixelFormat::RAW12"
    },
    {
     "enum_field_value" : 43,
     "name" : "android::hardware::graphics::common::V1_1::PixelFormat::RGBA_1010102"
    },
    {
     "enum_field_value" : 538982489,
     "name" : "android::hardware::graphics::common::V1_1::PixelFormat::Y8"
    },
    {
     "enum_field_value" : 540422489,
     "name" : "android::hardware::graphics::common::V1_1::PixelFormat::Y16"
    },
    {
     "enum_field_value" : 842094169,
     "name" : "android::hardware::graphics::common::V1_1::PixelFormat::YV12"
    },
    {
     "enum_field_value" : 48,
     "name" : "android::hardware::graphics::common::V1_1::PixelFormat::DEPTH_16"
    },
    {
     "enum_field_value" : 49,
     "name" : "android::hardware::graphics::common::V1_1::PixelFormat::DEPTH_24"
    },
    {
     "enum_field_value" : 50,
     "name" : "android::hardware::graphics::common::V1_1::PixelFormat::DEPTH_24_STENCIL_8"
    },
    {
     "enum_field_value" : 51,
     "name" : "android::hardware::graphics::common::V1_1::PixelFormat::DEPTH_32F"
    },
    {
     "enum_field_value" : 52,
     "name" : "android::hardware::graphics::common::V1_1::PixelFormat::DEPTH_32F_STENCIL_8"
    },
    {
     "enum_field_value" : 53,
     "name" : "android::hardware::graphics::common::V1_1::PixelFormat::STENCIL_8"
    },
    {
     "enum_field_value" : 54,
     "name" : "android::hardware::graphics::common::V1_1::PixelFormat::YCBCR_P010"
    }
   ],
   "linker_set_key" : "android::hardware::graphics::common::V1_1::PixelFormat",
   "name" : "android::hardware::graphics::common::V1_1::PixelFormat",
   "referenced_type" : "type-2628",
   "self_type" : "type-2628",
   "size" : 4,
   "source_file" : "/out/soong/.intermediates/hardware/interfaces/graphics/common/1.1/android.hardware.graphics.common@1.1_genc++_headers/gen/android/hardware/graphics/common/1.1/types.h",
   "underlying_type" : "type-19",
   "unique_id" : "_ZTSN7android8hardware8graphics6common4V1_111PixelFormatE"
  },
  {
   "alignment" : 4,
   "enum_fields" :
   [
    {
     "enum_field_value" : 0,
     "name" : "android::hardware::graphics::common::V1_1::RenderIntent::COLORIMETRIC"
    },
    {
     "enum_field_value" : 1,
     "name" : "android::hardware::graphics::common::V1_1::RenderIntent::ENHANCE"
    },
    {
     "enum_field_value" : 2,
     "name" : "android::hardware::graphics::common::V1_1::RenderIntent::TONE_MAP_COLORIMETRIC"
    },
    {
     "enum_field_value" : 3,
     "name" : "android::hardware::graphics::common::V1_1::RenderIntent::TONE_MAP_ENHANCE"
    }
   ],
   "linker_set_key" : "android::hardware::graphics::common::V1_1::RenderIntent",
   "name" : "android::hardware::graphics::common::V1_1::RenderIntent",
   "referenced_type" : "type-2655",
   "self_type" : "type-2655",
   "size" : 4,
   "source_file" : "/out/soong/.intermediates/hardware/interfaces/graphics/common/1.1/android.hardware.graphics.common@1.1_genc++_headers/gen/android/hardware/graphics/common/1.1/types.h",
   "underlying_type" : "type-19",
   "unique_id" : "_ZTSN7android8hardware8graphics6common4V1_112RenderIntentE"
  },
  {
   "alignment" : 8,
   "enum_fields" :
   [
    {
     "enum_field_value" : 15,
     "name" : "android::hardware::graphics::common::V1_2::BufferUsage::CPU_READ_MASK"
    },
    {
     "enum_field_value" : 0,
     "name" : "android::hardware::graphics::common::V1_2::BufferUsage::CPU_READ_NEVER"
    },
    {
     "enum_field_value" : 2,
     "name" : "android::hardware::graphics::common::V1_2::BufferUsage::CPU_READ_RARELY"
    },
    {
     "enum_field_value" : 3,
     "name" : "android::hardware::graphics::common::V1_2::BufferUsage::CPU_READ_OFTEN"
    },
    {
     "enum_field_value" : 240,
     "name" : "android::hardware::graphics::common::V1_2::BufferUsage::CPU_WRITE_MASK"
    },
    {
     "enum_field_value" : 0,
     "name" : "android::hardware::graphics::common::V1_2::BufferUsage::CPU_WRITE_NEVER"
    },
    {
     "enum_field_value" : 32,
     "name" : "android::hardware::graphics::common::V1_2::BufferUsage::CPU_WRITE_RARELY"
    },
    {
     "enum_field_value" : 48,
     "name" : "android::hardware::graphics::common::V1_2::BufferUsage::CPU_WRITE_OFTEN"
    },
    {
     "enum_field_value" : 256,
     "name" : "android::hardware::graphics::common::V1_2::BufferUsage::GPU_TEXTURE"
    },
    {
     "enum_field_value" : 512,
     "name" : "android::hardware::graphics::common::V1_2::BufferUsage::GPU_RENDER_TARGET"
    },
    {
     "enum_field_value" : 2048,
     "name" : "android::hardware::graphics::common::V1_2::BufferUsage::COMPOSER_OVERLAY"
    },
    {
     "enum_field_value" : 4096,
     "name" : "android::hardware::graphics::common::V1_2::BufferUsage::COMPOSER_CLIENT_TARGET"
    },
    {
     "enum_field_value" : 16384,
     "name" : "android::hardware::graphics::common::V1_2::BufferUsage::PROTECTED"
    },
    {
     "enum_field_value" : 32768,
     "name" : "android::hardware::graphics::common::V1_2::BufferUsage::COMPOSER_CURSOR"
    },
    {
     "enum_field_value" : 65536,
     "name" : "android::hardware::graphics::common::V1_2::BufferUsage::VIDEO_ENCODER"
    },
    {
     "enum_field_value" : 131072,
     "name" : "android::hardware::graphics::common::V1_2::BufferUsage::CAMERA_OUTPUT"
    },
    {
     "enum_field_value" : 262144,
     "name" : "android::hardware::graphics::common::V1_2::BufferUsage::CAMERA_INPUT"
    },
    {
     "enum_field_value" : 1048576,
     "name" : "android::hardware::graphics::common::V1_2::BufferUsage::RENDERSCRIPT"
    },
    {
     "enum_field_value" : 4194304,
     "name" : "android::hardware::graphics::common::V1_2::BufferUsage::VIDEO_DECODER"
    },
    {
     "enum_field_value" : 8388608,
     "name" : "android::hardware::graphics::common::V1_2::BufferUsage::SENSOR_DIRECT_DATA"
    },
    {
     "enum_field_value" : 16777216,
     "name" : "android::hardware::graphics::common::V1_2::BufferUsage::GPU_DATA_BUFFER"
    },
    {
     "enum_field_value" : -268435456,
     "name" : "android::hardware::graphics::common::V1_2::BufferUsage::VENDOR_MASK"
    },
    {
     "enum_field_value" : 0,
     "name" : "android::hardware::graphics::common::V1_2::BufferUsage::VENDOR_MASK_HI"
    },
    {
     "enum_field_value" : 33554432,
     "name" : "android::hardware::graphics::common::V1_2::BufferUsage::GPU_CUBE_MAP"
    },
    {
     "enum_field_value" : 67108864,
     "name" : "android::hardware::graphics::common::V1_2::BufferUsage::GPU_MIPMAP_COMPLETE"
    },
    {
     "enum_field_value" : 134217728,
     "name" : "android::hardware::graphics::common::V1_2::BufferUsage::HW_IMAGE_ENCODER"
    }
   ],
   "linker_set_key" : "android::hardware::graphics::common::V1_2::BufferUsage",
   "name" : "android::hardware::graphics::common::V1_2::BufferUsage",
   "referenced_type" : "type-2712",
   "self_type" : "type-2712",
   "size" : 8,
   "source_file" : "/out/soong/.intermediates/hardware/interfaces/graphics/common/1.2/android.hardware.graphics.common@1.2_genc++_headers/gen/android/hardware/graphics/common/1.2/types.h",
   "underlying_type" : "type-221",
   "unique_id" : "_ZTSN7android8hardware8graphics6common4V1_211BufferUsageE"
  },
  {
   "alignment" : 4,
   "enum_fields" :
   [
    {
     "enum_field_value" : 0,
     "name" : "android::hardware::graphics::common::V1_2::ColorMode::NATIVE"
    },
    {
     "enum_field_value" : 1,
     "name" : "android::hardware::graphics::common::V1_2::ColorMode::STANDARD_BT601_625"
    },
    {
     "enum_field_value" : 2,
     "name" : "android::hardware::graphics::common::V1_2::ColorMode::STANDARD_BT601_625_UNADJUSTED"
    },
    {
     "enum_field_value" : 3,
     "name" : "android::hardware::graphics::common::V1_2::ColorMode::STANDARD_BT601_525"
    },
    {
     "enum_field_value" : 4,
     "name" : "android::hardware::graphics::common::V1_2::ColorMode::STANDARD_BT601_525_UNADJUSTED"
    },
    {
     "enum_field_value" : 5,
     "name" : "android::hardware::graphics::common::V1_2::ColorMode::STANDARD_BT709"
    },
    {
     "enum_field_value" : 6,
     "name" : "android::hardware::graphics::common::V1_2::ColorMode::DCI_P3"
    },
    {
     "enum_field_value" : 7,
     "name" : "android::hardware::graphics::common::V1_2::ColorMode::SRGB"
    },
    {
     "enum_field_value" : 8,
     "name" : "android::hardware::graphics::common::V1_2::ColorMode::ADOBE_RGB"
    },
    {
     "enum_field_value" : 9,
     "name" : "android::hardware::graphics::common::V1_2::ColorMode::DISPLAY_P3"
    },
    {
     "enum_field_value" : 10,
     "name" : "android::hardware::graphics::common::V1_2::ColorMode::BT2020"
    },
    {
     "enum_field_value" : 11,
     "name" : "android::hardware::graphics::common::V1_2::ColorMode::BT2100_PQ"
    },
    {
     "enum_field_value" : 12,
     "name" : "android::hardware::graphics::common::V1_2::ColorMode::BT2100_HLG"
    },
    {
     "enum_field_value" : 13,
     "name" : "android::hardware::graphics::common::V1_2::ColorMode::DISPLAY_BT2020"
    }
   ],
   "linker_set_key" : "android::hardware::graphics::common::V1_2::ColorMode",
   "name" : "android::hardware::graphics::common::V1_2::ColorMode",
   "referenced_type" : "type-2701",
   "self_type" : "type-2701",
   "size" : 4,
   "source_file" : "/out/soong/.intermediates/hardware/interfaces/graphics/common/1.2/android.hardware.graphics.common@1.2_genc++_headers/gen/android/hardware/graphics/common/1.2/types.h",
   "underlying_type" : "type-19",
   "unique_id" : "_ZTSN7android8hardware8graphics6common4V1_29ColorModeE"
  },
  {
   "alignment" : 4,
   "enum_fields" :
   [
    {
     "enum_field_value" : 0,
     "name" : "android::hardware::graphics::common::V1_2::Dataspace::UNKNOWN"
    },
    {
     "enum_field_value" : 1,
     "name" : "android::hardware::graphics::common::V1_2::Dataspace::ARBITRARY"
    },
    {
     "enum_field_value" : 16,
     "name" : "android::hardware::graphics::common::V1_2::Dataspace::STANDARD_SHIFT"
    },
    {
     "enum_field_value" : 4128768,
     "name" : "android::hardware::graphics::common::V1_2::Dataspace::STANDARD_MASK"
    },
    {
     "enum_field_value" : 0,
     "name" : "android::hardware::graphics::common::V1_2::Dataspace::STANDARD_UNSPECIFIED"
    },
    {
     "enum_field_value" : 65536,
     "name" : "android::hardware::graphics::common::V1_2::Dataspace::STANDARD_BT709"
    },
    {
     "enum_field_value" : 131072,
     "name" : "android::hardware::graphics::common::V1_2::Dataspace::STANDARD_BT601_625"
    },
    {
     "enum_field_value" : 196608,
     "name" : "android::hardware::graphics::common::V1_2::Dataspace::STANDARD_BT601_625_UNADJUSTED"
    },
    {
     "enum_field_value" : 262144,
     "name" : "android::hardware::graphics::common::V1_2::Dataspace::STANDARD_BT601_525"
    },
    {
     "enum_field_value" : 327680,
     "name" : "android::hardware::graphics::common::V1_2::Dataspace::STANDARD_BT601_525_UNADJUSTED"
    },
    {
     "enum_field_value" : 393216,
     "name" : "android::hardware::graphics::common::V1_2::Dataspace::STANDARD_BT2020"
    },
    {
     "enum_field_value" : 458752,
     "name" : "android::hardware::graphics::common::V1_2::Dataspace::STANDARD_BT2020_CONSTANT_LUMINANCE"
    },
    {
     "enum_field_value" : 524288,
     "name" : "android::hardware::graphics::common::V1_2::Dataspace::STANDARD_BT470M"
    },
    {
     "enum_field_value" : 589824,
     "name" : "android::hardware::graphics::common::V1_2::Dataspace::STANDARD_FILM"
    },
    {
     "enum_field_value" : 655360,
     "name" : "android::hardware::graphics::common::V1_2::Dataspace::STANDARD_DCI_P3"
    },
    {
     "enum_field_value" : 720896,
     "name" : "android::hardware::graphics::common::V1_2::Dataspace::STANDARD_ADOBE_RGB"
    },
    {
     "enum_field_value" : 22,
     "name" : "android::hardware::graphics::common::V1_2::Dataspace::TRANSFER_SHIFT"
    },
    {
     "enum_field_value" : 130023424,
     "name" : "android::hardware::graphics::common::V1_2::Dataspace::TRANSFER_MASK"
    },
    {
     "enum_field_value" : 0,
     "name" : "android::hardware::graphics::common::V1_2::Dataspace::TRANSFER_UNSPECIFIED"
    },
    {
     "enum_field_value" : 4194304,
     "name" : "android::hardware::graphics::common::V1_2::Dataspace::TRANSFER_LINEAR"
    },
    {
     "enum_field_value" : 8388608,
     "name" : "android::hardware::graphics::common::V1_2::Dataspace::TRANSFER_SRGB"
    },
    {
     "enum_field_value" : 12582912,
     "name" : "android::hardware::graphics::common::V1_2::Dataspace::TRANSFER_SMPTE_170M"
    },
    {
     "enum_field_value" : 16777216,
     "name" : "android::hardware::graphics::common::V1_2::Dataspace::TRANSFER_GAMMA2_2"
    },
    {
     "enum_field_value" : 20971520,
     "name" : "android::hardware::graphics::common::V1_2::Dataspace::TRANSFER_GAMMA2_6"
    },
    {
     "enum_field_value" : 25165824,
     "name" : "android::hardware::graphics::common::V1_2::Dataspace::TRANSFER_GAMMA2_8"
    },
    {
     "enum_field_value" : 29360128,
     "name" : "android::hardware::graphics::common::V1_2::Dataspace::TRANSFER_ST2084"
    },
    {
     "enum_field_value" : 33554432,
     "name" : "android::hardware::graphics::common::V1_2::Dataspace::TRANSFER_HLG"
    },
    {
     "enum_field_value" : 27,
     "name" : "android::hardware::graphics::common::V1_2::Dataspace::RANGE_SHIFT"
    },
    {
     "enum_field_value" : 939524096,
     "name" : "android::hardware::graphics::common::V1_2::Dataspace::RANGE_MASK"
    },
    {
     "enum_field_value" : 0,
     "name" : "android::hardware::graphics::common::V1_2::Dataspace::RANGE_UNSPECIFIED"
    },
    {
     "enum_field_value" : 134217728,
     "name" : "android::hardware::graphics::common::V1_2::Dataspace::RANGE_FULL"
    },
    {
     "enum_field_value" : 268435456,
     "name" : "android::hardware::graphics::common::V1_2::Dataspace::RANGE_LIMITED"
    },
    {
     "enum_field_value" : 402653184,
     "name" : "android::hardware::graphics::common::V1_2::Dataspace::RANGE_EXTENDED"
    },
    {
     "enum_field_value" : 512,
     "name" : "android::hardware::graphics::common::V1_2::Dataspace::SRGB_LINEAR"
    },
    {
     "enum_field_value" : 138477568,
     "name" : "android::hardware::graphics::common::V1_2::Dataspace::V0_SRGB_LINEAR"
    },
    {
     "enum_field_value" : 406913024,
     "name" : "android::hardware::graphics::common::V1_2::Dataspace::V0_SCRGB_LINEAR"
    },
    {
     "enum_field_value" : 513,
     "name" : "android::hardware::graphics::common::V1_2::Dataspace::SRGB"
    },
    {
     "enum_field_value" : 142671872,
     "name" : "android::hardware::graphics::common::V1_2::Dataspace::V0_SRGB"
    },
    {
     "enum_field_value" : 411107328,
     "name" : "android::hardware::graphics::common::V1_2::Dataspace::V0_SCRGB"
    },
    {
     "enum_field_value" : 257,
     "name" : "android::hardware::graphics::common::V1_2::Dataspace::JFIF"
    },
    {
     "enum_field_value" : 146931712,
     "name" : "android::hardware::graphics::common::V1_2::Dataspace::V0_JFIF"
    },
    {
     "enum_field_value" : 258,
     "name" : "android::hardware::graphics::common::V1_2::Dataspace::BT601_625"
    },
    {
     "enum_field_value" : 281149440,
     "name" : "android::hardware::graphics::common::V1_2::Dataspace::V0_BT601_625"
    },
    {
     "enum_field_value" : 259,
     "name" : "android::hardware::graphics::common::V1_2::Dataspace::BT601_525"
    },
    {
     "enum_field_value" : 281280512,
     "name" : "android::hardware::graphics::common::V1_2::Dataspace::V0_BT601_525"
    },
    {
     "enum_field_value" : 260,
     "name" : "android::hardware::graphics::common::V1_2::Dataspace::BT709"
    },
    {
     "enum_field_value" : 281083904,
     "name" : "android::hardware::graphics::common::V1_2::Dataspace::V0_BT709"
    },
    {
     "enum_field_value" : 139067392,
     "name" : "android::hardware::graphics::common::V1_2::Dataspace::DCI_P3_LINEAR"
    },
    {
     "enum_field_value" : 155844608,
     "name" : "android::hardware::graphics::common::V1_2::Dataspace::DCI_P3"
    },
    {
     "enum_field_value" : 139067392,
     "name" : "android::hardware::graphics::common::V1_2::Dataspace::DISPLAY_P3_LINEAR"
    },
    {
     "enum_field_value" : 143261696,
     "name" : "android::hardware::graphics::common::V1_2::Dataspace::DISPLAY_P3"
    },
    {
     "enum_field_value" : 151715840,
     "name" : "android::hardware::graphics::common::V1_2::Dataspace::ADOBE_RGB"
    },
    {
     "enum_field_value" : 138805248,
     "name" : "android::hardware::graphics::common::V1_2::Dataspace::BT2020_LINEAR"
    },
    {
     "enum_field_value" : 147193856,
     "name" : "android::hardware::graphics::common::V1_2::Dataspace::BT2020"
    },
    {
     "enum_field_value" : 163971072,
     "name" : "android::hardware::graphics::common::V1_2::Dataspace::BT2020_PQ"
    },
    {
     "enum_field_value" : 4096,
     "name" : "android::hardware::graphics::common::V1_2::Dataspace::DEPTH"
    },
    {
     "enum_field_value" : 4097,
     "name" : "android::hardware::graphics::common::V1_2::Dataspace::SENSOR"
    },
    {
     "enum_field_value" : 281411584,
     "name" : "android::hardware::graphics::common::V1_2::Dataspace::BT2020_ITU"
    },
    {
     "enum_field_value" : 298188800,
     "name" : "android::hardware::graphics::common::V1_2::Dataspace::BT2020_ITU_PQ"
    },
    {
     "enum_field_value" : 302383104,
     "name" : "android::hardware::graphics::common::V1_2::Dataspace::BT2020_ITU_HLG"
    },
    {
     "enum_field_value" : 168165376,
     "name" : "android::hardware::graphics::common::V1_2::Dataspace::BT2020_HLG"
    },
    {
     "enum_field_value" : 142999552,
     "name" : "android::hardware::graphics::common::V1_2::Dataspace::DISPLAY_BT2020"
    },
    {
     "enum_field_value" : 4098,
     "name" : "android::hardware::graphics::common::V1_2::Dataspace::DYNAMIC_DEPTH"
    },
    {
     "enum_field_value" : 4099,
     "name" : "android::hardware::graphics::common::V1_2::Dataspace::JPEG_APP_SEGMENTS"
    },
    {
     "enum_field_value" : 4100,
     "name" : "android::hardware::graphics::common::V1_2::Dataspace::HEIF"
    }
   ],
   "linker_set_key" : "android::hardware::graphics::common::V1_2::Dataspace",
   "name" : "android::hardware::graphics::common::V1_2::Dataspace",
   "referenced_type" : "type-2697",
   "self_type" : "type-2697",
   "size" : 4,
   "source_file" : "/out/soong/.intermediates/hardware/interfaces/graphics/common/1.2/android.hardware.graphics.common@1.2_genc++_headers/gen/android/hardware/graphics/common/1.2/types.h",
   "underlying_type" : "type-19",
   "unique_id" : "_ZTSN7android8hardware8graphics6common4V1_29DataspaceE"
  },
  {
   "alignment" : 4,
   "enum_fields" :
   [
    {
     "enum_field_value" : 1,
     "name" : "android::hardware::graphics::common::V1_2::Hdr::DOLBY_VISION"
    },
    {
     "enum_field_value" : 2,
     "name" : "android::hardware::graphics::common::V1_2::Hdr::HDR10"
    },
    {
     "enum_field_value" : 3,
     "name" : "android::hardware::graphics::common::V1_2::Hdr::HLG"
    },
    {
     "enum_field_value" : 4,
     "name" : "android::hardware::graphics::common::V1_2::Hdr::HDR10_PLUS"
    }
   ],
   "linker_set_key" : "android::hardware::graphics::common::V1_2::Hdr",
   "name" : "android::hardware::graphics::common::V1_2::Hdr",
   "referenced_type" : "type-2694",
   "self_type" : "type-2694",
   "size" : 4,
   "source_file" : "/out/soong/.intermediates/hardware/interfaces/graphics/common/1.2/android.hardware.graphics.common@1.2_genc++_headers/gen/android/hardware/graphics/common/1.2/types.h",
   "underlying_type" : "type-19",
   "unique_id" : "_ZTSN7android8hardware8graphics6common4V1_23HdrE"
  },
  {
   "alignment" : 4,
   "enum_fields" :
   [
    {
     "enum_field_value" : 1,
     "name" : "android::hardware::graphics::common::V1_2::PixelFormat::RGBA_8888"
    },
    {
     "enum_field_value" : 2,
     "name" : "android::hardware::graphics::common::V1_2::PixelFormat::RGBX_8888"
    },
    {
     "enum_field_value" : 3,
     "name" : "android::hardware::graphics::common::V1_2::PixelFormat::RGB_888"
    },
    {
     "enum_field_value" : 4,
     "name" : "android::hardware::graphics::common::V1_2::PixelFormat::RGB_565"
    },
    {
     "enum_field_value" : 5,
     "name" : "android::hardware::graphics::common::V1_2::PixelFormat::BGRA_8888"
    },
    {
     "enum_field_value" : 16,
     "name" : "android::hardware::graphics::common::V1_2::PixelFormat::YCBCR_422_SP"
    },
    {
     "enum_field_value" : 17,
     "name" : "android::hardware::graphics::common::V1_2::PixelFormat::YCRCB_420_SP"
    },
    {
     "enum_field_value" : 20,
     "name" : "android::hardware::graphics::common::V1_2::PixelFormat::YCBCR_422_I"
    },
    {
     "enum_field_value" : 22,
     "name" : "android::hardware::graphics::common::V1_2::PixelFormat::RGBA_FP16"
    },
    {
     "enum_field_value" : 32,
     "name" : "android::hardware::graphics::common::V1_2::PixelFormat::RAW16"
    },
    {
     "enum_field_value" : 33,
     "name" : "android::hardware::graphics::common::V1_2::PixelFormat::BLOB"
    },
    {
     "enum_field_value" : 34,
     "name" : "android::hardware::graphics::common::V1_2::PixelFormat::IMPLEMENTATION_DEFINED"
    },
    {
     "enum_field_value" : 35,
     "name" : "android::hardware::graphics::common::V1_2::PixelFormat::YCBCR_420_888"
    },
    {
     "enum_field_value" : 36,
     "name" : "android::hardware::graphics::common::V1_2::PixelFormat::RAW_OPAQUE"
    },
    {
     "enum_field_value" : 37,
     "name" : "android::hardware::graphics::common::V1_2::PixelFormat::RAW10"
    },
    {
     "enum_field_value" : 38,
     "name" : "android::hardware::graphics::common::V1_2::PixelFormat::RAW12"
    },
    {
     "enum_field_value" : 43,
     "name" : "android::hardware::graphics::common::V1_2::PixelFormat::RGBA_1010102"
    },
    {
     "enum_field_value" : 538982489,
     "name" : "android::hardware::graphics::common::V1_2::PixelFormat::Y8"
    },
    {
     "enum_field_value" : 540422489,
     "name" : "android::hardware::graphics::common::V1_2::PixelFormat::Y16"
    },
    {
     "enum_field_value" : 842094169,
     "name" : "android::hardware::graphics::common::V1_2::PixelFormat::YV12"
    },
    {
     "enum_field_value" : 48,
     "name" : "android::hardware::graphics::common::V1_2::PixelFormat::DEPTH_16"
    },
    {
     "enum_field_value" : 49,
     "name" : "android::hardware::graphics::common::V1_2::PixelFormat::DEPTH_24"
    },
    {
     "enum_field_value" : 50,
     "name" : "android::hardware::graphics::common::V1_2::PixelFormat::DEPTH_24_STENCIL_8"
    },
    {
     "enum_field_value" : 51,
     "name" : "android::hardware::graphics::common::V1_2::PixelFormat::DEPTH_32F"
    },
    {
     "enum_field_value" : 52,
     "name" : "android::hardware::graphics::common::V1_2::PixelFormat::DEPTH_32F_STENCIL_8"
    },
    {
     "enum_field_value" : 53,
     "name" : "android::hardware::graphics::common::V1_2::PixelFormat::STENCIL_8"
    },
    {
     "enum_field_value" : 54,
     "name" : "android::hardware::graphics::common::V1_2::PixelFormat::YCBCR_P010"
    },
    {
     "enum_field_value" : 55,
     "name" : "android::hardware::graphics::common::V1_2::PixelFormat::HSV_888"
    }
   ],
   "linker_set_key" : "android::hardware::graphics::common::V1_2::PixelFormat",
   "name" : "android::hardware::graphics::common::V1_2::PixelFormat",
   "referenced_type" : "type-2716",
   "self_type" : "type-2716",
   "size" : 4,
   "source_file" : "/out/soong/.intermediates/hardware/interfaces/graphics/common/1.2/android.hardware.graphics.common@1.2_genc++_headers/gen/android/hardware/graphics/common/1.2/types.h",
   "underlying_type" : "type-19",
   "unique_id" : "_ZTSN7android8hardware8graphics6common4V1_211PixelFormatE"
  },
  {
   "alignment" : 4,
   "enum_fields" :
   [
    {
     "enum_field_value" : 0,
     "name" : "android::hardware::media::bufferpool::V2_0::BufferStatus::NOT_USED"
    },
    {
     "enum_field_value" : 1,
     "name" : "android::hardware::media::bufferpool::V2_0::BufferStatus::USED"
    },
    {
     "enum_field_value" : 2,
     "name" : "android::hardware::media::bufferpool::V2_0::BufferStatus::TRANSFER_TO"
    },
    {
     "enum_field_value" : 3,
     "name" : "android::hardware::media::bufferpool::V2_0::BufferStatus::TRANSFER_FROM"
    },
    {
     "enum_field_value" : 4,
     "name" : "android::hardware::media::bufferpool::V2_0::BufferStatus::TRANSFER_TIMEOUT"
    },
    {
     "enum_field_value" : 5,
     "name" : "android::hardware::media::bufferpool::V2_0::BufferStatus::TRANSFER_LOST"
    },
    {
     "enum_field_value" : 6,
     "name" : "android::hardware::media::bufferpool::V2_0::BufferStatus::TRANSFER_FETCH"
    },
    {
     "enum_field_value" : 7,
     "name" : "android::hardware::media::bufferpool::V2_0::BufferStatus::TRANSFER_OK"
    },
    {
     "enum_field_value" : 8,
     "name" : "android::hardware::media::bufferpool::V2_0::BufferStatus::TRANSFER_ERROR"
    },
    {
     "enum_field_value" : 9,
     "name" : "android::hardware::media::bufferpool::V2_0::BufferStatus::INVALIDATION_ACK"
    }
   ],
   "linker_set_key" : "android::hardware::media::bufferpool::V2_0::BufferStatus",
   "name" : "android::hardware::media::bufferpool::V2_0::BufferStatus",
   "referenced_type" : "type-629",
   "self_type" : "type-629",
   "size" : 4,
   "source_file" : "/out/soong/.intermediates/hardware/interfaces/media/bufferpool/2.0/android.hardware.media.bufferpool@2.0_genc++_headers/gen/android/hardware/media/bufferpool/2.0/types.h",
   "underlying_type" : "type-19",
   "unique_id" : "_ZTSN7android8hardware5media10bufferpool4V2_012BufferStatusE"
  },
  {
   "alignment" : 4,
   "enum_fields" :
   [
    {
     "enum_field_value" : 0,
     "name" : "android::hardware::media::bufferpool::V2_0::ResultStatus::OK"
    },
    {
     "enum_field_value" : 1,
     "name" : "android::hardware::media::bufferpool::V2_0::ResultStatus::NO_MEMORY"
    },
    {
     "enum_field_value" : 2,
     "name" : "android::hardware::media::bufferpool::V2_0::ResultStatus::ALREADY_EXISTS"
    },
    {
     "enum_field_value" : 3,
     "name" : "android::hardware::media::bufferpool::V2_0::ResultStatus::NOT_FOUND"
    },
    {
     "enum_field_value" : 4,
     "name" : "android::hardware::media::bufferpool::V2_0::ResultStatus::CRITICAL_ERROR"
    }
   ],
   "linker_set_key" : "android::hardware::media::bufferpool::V2_0::ResultStatus",
   "name" : "android::hardware::media::bufferpool::V2_0::ResultStatus",
   "referenced_type" : "type-815",
   "self_type" : "type-815",
   "size" : 4,
   "source_file" : "/out/soong/.intermediates/hardware/interfaces/media/bufferpool/2.0/android.hardware.media.bufferpool@2.0_genc++_headers/gen/android/hardware/media/bufferpool/2.0/types.h",
   "underlying_type" : "type-19",
   "unique_id" : "_ZTSN7android8hardware5media10bufferpool4V2_012ResultStatusE"
  },
  {
   "alignment" : 1,
   "enum_fields" :
   [
    {
     "enum_field_value" : 0,
     "name" : "android::hardware::media::c2::V1_0::BaseBlock::hidl_discriminator::nativeBlock"
    },
    {
     "enum_field_value" : 1,
     "name" : "android::hardware::media::c2::V1_0::BaseBlock::hidl_discriminator::pooledBlock"
    }
   ],
   "linker_set_key" : "android::hardware::media::c2::V1_0::BaseBlock::hidl_discriminator",
   "name" : "android::hardware::media::c2::V1_0::BaseBlock::hidl_discriminator",
   "referenced_type" : "type-626",
   "self_type" : "type-626",
   "size" : 1,
   "source_file" : "/out/soong/.intermediates/hardware/interfaces/media/c2/1.0/android.hardware.media.c2@1.0_genc++_headers/gen/android/hardware/media/c2/1.0/types.h",
   "underlying_type" : "type-3",
   "unique_id" : "_ZTSN7android8hardware5media2c24V1_09BaseBlock18hidl_discriminatorE"
  },
  {
   "alignment" : 4,
   "enum_fields" :
   [
    {
     "enum_field_value" : 0,
     "name" : "android::hardware::media::c2::V1_0::FieldDescriptor::Type::NO_INIT"
    },
    {
     "enum_field_value" : 1,
     "name" : "android::hardware::media::c2::V1_0::FieldDescriptor::Type::INT32"
    },
    {
     "enum_field_value" : 2,
     "name" : "android::hardware::media::c2::V1_0::FieldDescriptor::Type::UINT32"
    },
    {
     "enum_field_value" : 3,
     "name" : "android::hardware::media::c2::V1_0::FieldDescriptor::Type::CNTR32"
    },
    {
     "enum_field_value" : 4,
     "name" : "android::hardware::media::c2::V1_0::FieldDescriptor::Type::INT64"
    },
    {
     "enum_field_value" : 5,
     "name" : "android::hardware::media::c2::V1_0::FieldDescriptor::Type::UINT64"
    },
    {
     "enum_field_value" : 6,
     "name" : "android::hardware::media::c2::V1_0::FieldDescriptor::Type::CNTR64"
    },
    {
     "enum_field_value" : 7,
     "name" : "android::hardware::media::c2::V1_0::FieldDescriptor::Type::FLOAT"
    },
    {
     "enum_field_value" : 256,
     "name" : "android::hardware::media::c2::V1_0::FieldDescriptor::Type::STRING"
    },
    {
     "enum_field_value" : 257,
     "name" : "android::hardware::media::c2::V1_0::FieldDescriptor::Type::BLOB"
    },
    {
     "enum_field_value" : 131072,
     "name" : "android::hardware::media::c2::V1_0::FieldDescriptor::Type::STRUCT"
    }
   ],
   "linker_set_key" : "android::hardware::media::c2::V1_0::FieldDescriptor::Type",
   "name" : "android::hardware::media::c2::V1_0::FieldDescriptor::Type",
   "referenced_type" : "type-862",
   "self_type" : "type-862",
   "size" : 4,
   "source_file" : "/out/soong/.intermediates/hardware/interfaces/media/c2/1.0/android.hardware.media.c2@1.0_genc++_headers/gen/android/hardware/media/c2/1.0/types.h",
   "underlying_type" : "type-2",
   "unique_id" : "_ZTSN7android8hardware5media2c24V1_015FieldDescriptor4TypeE"
  },
  {
   "alignment" : 1,
   "enum_fields" :
   [
    {
     "enum_field_value" : 0,
     "name" : "android::hardware::media::c2::V1_0::FieldSupportedValues::hidl_discriminator::empty"
    },
    {
     "enum_field_value" : 1,
     "name" : "android::hardware::media::c2::V1_0::FieldSupportedValues::hidl_discriminator::range"
    },
    {
     "enum_field_value" : 2,
     "name" : "android::hardware::media::c2::V1_0::FieldSupportedValues::hidl_discriminator::values"
    },
    {
     "enum_field_value" : 3,
     "name" : "android::hardware::media::c2::V1_0::FieldSupportedValues::hidl_discriminator::flags"
    }
   ],
   "linker_set_key" : "android::hardware::media::c2::V1_0::FieldSupportedValues::hidl_discriminator",
   "name" : "android::hardware::media::c2::V1_0::FieldSupportedValues::hidl_discriminator",
   "referenced_type" : "type-438",
   "self_type" : "type-438",
   "size" : 1,
   "source_file" : "/out/soong/.intermediates/hardware/interfaces/media/c2/1.0/android.hardware.media.c2@1.0_genc++_headers/gen/android/hardware/media/c2/1.0/types.h",
   "underlying_type" : "type-3",
   "unique_id" : "_ZTSN7android8hardware5media2c24V1_020FieldSupportedValues18hidl_discriminatorE"
  },
  {
   "alignment" : 4,
   "enum_fields" :
   [
    {
     "enum_field_value" : 0,
     "name" : "android::hardware::media::c2::V1_0::FieldSupportedValuesQuery::Type::POSSIBLE"
    },
    {
     "enum_field_value" : 1,
     "name" : "android::hardware::media::c2::V1_0::FieldSupportedValuesQuery::Type::CURRENT"
    }
   ],
   "linker_set_key" : "android::hardware::media::c2::V1_0::FieldSupportedValuesQuery::Type",
   "name" : "android::hardware::media::c2::V1_0::FieldSupportedValuesQuery::Type",
   "referenced_type" : "type-889",
   "self_type" : "type-889",
   "size" : 4,
   "source_file" : "/out/soong/.intermediates/hardware/interfaces/media/c2/1.0/android.hardware.media.c2@1.0_genc++_headers/gen/android/hardware/media/c2/1.0/types.h",
   "underlying_type" : "type-2",
   "unique_id" : "_ZTSN7android8hardware5media2c24V1_025FieldSupportedValuesQuery4TypeE"
  },
  {
   "alignment" : 4,
   "enum_fields" :
   [
    {
     "enum_field_value" : 1,
     "name" : "android::hardware::media::c2::V1_0::FrameData::Flags::DROP_FRAME"
    },
    {
     "enum_field_value" : 2,
     "name" : "android::hardware::media::c2::V1_0::FrameData::Flags::END_OF_STREAM"
    },
    {
     "enum_field_value" : 4,
     "name" : "android::hardware::media::c2::V1_0::FrameData::Flags::DISCARD_FRAME"
    },
    {
     "enum_field_value" : 8,
     "name" : "android::hardware::media::c2::V1_0::FrameData::Flags::FLAG_INCOMPLETE"
    },
    {
     "enum_field_value" : -2147483648,
     "name" : "android::hardware::media::c2::V1_0::FrameData::Flags::CODEC_CONFIG"
    }
   ],
   "linker_set_key" : "android::hardware::media::c2::V1_0::FrameData::Flags",
   "name" : "android::hardware::media::c2::V1_0::FrameData::Flags",
   "referenced_type" : "type-885",
   "self_type" : "type-885",
   "size" : 4,
   "source_file" : "/out/soong/.intermediates/hardware/interfaces/media/c2/1.0/android.hardware.media.c2@1.0_genc++_headers/gen/android/hardware/media/c2/1.0/types.h",
   "underlying_type" : "type-2",
   "unique_id" : "_ZTSN7android8hardware5media2c24V1_09FrameData5FlagsE"
  },
  {
   "alignment" : 4,
   "enum_fields" :
   [
    {
     "enum_field_value" : 0,
     "name" : "android::hardware::media::c2::V1_0::IComponentStore::ComponentTraits::Domain::OTHER"
    },
    {
     "enum_field_value" : 1,
     "name" : "android::hardware::media::c2::V1_0::IComponentStore::ComponentTraits::Domain::VIDEO"
    },
    {
     "enum_field_value" : 2,
     "name" : "android::hardware::media::c2::V1_0::IComponentStore::ComponentTraits::Domain::AUDIO"
    },
    {
     "enum_field_value" : 3,
     "name" : "android::hardware::media::c2::V1_0::IComponentStore::ComponentTraits::Domain::IMAGE"
    }
   ],
   "linker_set_key" : "android::hardware::media::c2::V1_0::IComponentStore::ComponentTraits::Domain",
   "name" : "android::hardware::media::c2::V1_0::IComponentStore::ComponentTraits::Domain",
   "referenced_type" : "type-1242",
   "self_type" : "type-1242",
   "size" : 4,
   "source_file" : "/out/soong/.intermediates/hardware/interfaces/media/c2/1.0/android.hardware.media.c2@1.0_genc++_headers/gen/android/hardware/media/c2/1.0/IComponentStore.h",
   "underlying_type" : "type-2",
   "unique_id" : "_ZTSN7android8hardware5media2c24V1_015IComponentStore15ComponentTraits6DomainE"
  },
  {
   "alignment" : 4,
   "enum_fields" :
   [
    {
     "enum_field_value" : 0,
     "name" : "android::hardware::media::c2::V1_0::IComponentStore::ComponentTraits::Kind::OTHER"
    },
    {
     "enum_field_value" : 1,
     "name" : "android::hardware::media::c2::V1_0::IComponentStore::ComponentTraits::Kind::DECODER"
    },
    {
     "enum_field_value" : 2,
     "name" : "android::hardware::media::c2::V1_0::IComponentStore::ComponentTraits::Kind::ENCODER"
    }
   ],
   "linker_set_key" : "android::hardware::media::c2::V1_0::IComponentStore::ComponentTraits::Kind",
   "name" : "android::hardware::media::c2::V1_0::IComponentStore::ComponentTraits::Kind",
   "referenced_type" : "type-1243",
   "self_type" : "type-1243",
   "size" : 4,
   "source_file" : "/out/soong/.intermediates/hardware/interfaces/media/c2/1.0/android.hardware.media.c2@1.0_genc++_headers/gen/android/hardware/media/c2/1.0/IComponentStore.h",
   "underlying_type" : "type-2",
   "unique_id" : "_ZTSN7android8hardware5media2c24V1_015IComponentStore15ComponentTraits4KindE"
  },
  {
   "alignment" : 4,
   "enum_fields" :
   [
    {
     "enum_field_value" : 1,
     "name" : "android::hardware::media::c2::V1_0::ParamDescriptor::Attrib::REQUIRED"
    },
    {
     "enum_field_value" : 2,
     "name" : "android::hardware::media::c2::V1_0::ParamDescriptor::Attrib::PERSISTENT"
    },
    {
     "enum_field_value" : 4,
     "name" : "android::hardware::media::c2::V1_0::ParamDescriptor::Attrib::STRICT"
    },
    {
     "enum_field_value" : 8,
     "name" : "android::hardware::media::c2::V1_0::ParamDescriptor::Attrib::READ_ONLY"
    },
    {
     "enum_field_value" : 16,
     "name" : "android::hardware::media::c2::V1_0::ParamDescriptor::Attrib::HIDDEN"
    },
    {
     "enum_field_value" : 32,
     "name" : "android::hardware::media::c2::V1_0::ParamDescriptor::Attrib::INTERNAL"
    },
    {
     "enum_field_value" : 64,
     "name" : "android::hardware::media::c2::V1_0::ParamDescriptor::Attrib::CONST"
    }
   ],
   "linker_set_key" : "android::hardware::media::c2::V1_0::ParamDescriptor::Attrib",
   "name" : "android::hardware::media::c2::V1_0::ParamDescriptor::Attrib",
   "referenced_type" : "type-849",
   "self_type" : "type-849",
   "size" : 4,
   "source_file" : "/out/soong/.intermediates/hardware/interfaces/media/c2/1.0/android.hardware.media.c2@1.0_genc++_headers/gen/android/hardware/media/c2/1.0/types.h",
   "underlying_type" : "type-2",
   "unique_id" : "_ZTSN7android8hardware5media2c24V1_015ParamDescriptor6AttribE"
  },
  {
   "alignment" : 4,
   "enum_fields" :
   [
    {
     "enum_field_value" : 0,
     "name" : "android::hardware::media::c2::V1_0::SettingResult::Failure::BAD_TYPE"
    },
    {
     "enum_field_value" : 1,
     "name" : "android::hardware::media::c2::V1_0::SettingResult::Failure::BAD_PORT"
    },
    {
     "enum_field_value" : 2,
     "name" : "android::hardware::media::c2::V1_0::SettingResult::Failure::BAD_INDEX"
    },
    {
     "enum_field_value" : 3,
     "name" : "android::hardware::media::c2::V1_0::SettingResult::Failure::READ_ONLY"
    },
    {
     "enum_field_value" : 4,
     "name" : "android::hardware::media::c2::V1_0::SettingResult::Failure::MISMATCH"
    },
    {
     "enum_field_value" : 5,
     "name" : "android::hardware::media::c2::V1_0::SettingResult::Failure::BAD_VALUE"
    },
    {
     "enum_field_value" : 6,
     "name" : "android::hardware::media::c2::V1_0::SettingResult::Failure::CONFLICT"
    },
    {
     "enum_field_value" : 7,
     "name" : "android::hardware::media::c2::V1_0::SettingResult::Failure::UNSUPPORTED"
    },
    {
     "enum_field_value" : 8,
     "name" : "android::hardware::media::c2::V1_0::SettingResult::Failure::INFO_BAD_VALUE"
    },
    {
     "enum_field_value" : 9,
     "name" : "android::hardware::media::c2::V1_0::SettingResult::Failure::INFO_CONFLICT"
    }
   ],
   "linker_set_key" : "android::hardware::media::c2::V1_0::SettingResult::Failure",
   "name" : "android::hardware::media::c2::V1_0::SettingResult::Failure",
   "referenced_type" : "type-587",
   "self_type" : "type-587",
   "size" : 4,
   "source_file" : "/out/soong/.intermediates/hardware/interfaces/media/c2/1.0/android.hardware.media.c2@1.0_genc++_headers/gen/android/hardware/media/c2/1.0/types.h",
   "underlying_type" : "type-2",
   "unique_id" : "_ZTSN7android8hardware5media2c24V1_013SettingResult7FailureE"
  },
  {
   "alignment" : 4,
   "enum_fields" :
   [
    {
     "enum_field_value" : 0,
     "name" : "android::hardware::media::c2::V1_0::Status::OK"
    },
    {
     "enum_field_value" : -22,
     "name" : "android::hardware::media::c2::V1_0::Status::BAD_VALUE"
    },
    {
     "enum_field_value" : -75,
     "name" : "android::hardware::media::c2::V1_0::Status::BAD_INDEX"
    },
    {
     "enum_field_value" : -2147483646,
     "name" : "android::hardware::media::c2::V1_0::Status::CANNOT_DO"
    },
    {
     "enum_field_value" : -17,
     "name" : "android::hardware::media::c2::V1_0::Status::DUPLICATE"
    },
    {
     "enum_field_value" : -2,
     "name" : "android::hardware::media::c2::V1_0::Status::NOT_FOUND"
    },
    {
     "enum_field_value" : -38,
     "name" : "android::hardware::media::c2::V1_0::Status::BAD_STATE"
    },
    {
     "enum_field_value" : -9930,
     "name" : "android::hardware::media::c2::V1_0::Status::BLOCKING"
    },
    {
     "enum_field_value" : -12,
     "name" : "android::hardware::media::c2::V1_0::Status::NO_MEMORY"
    },
    {
     "enum_field_value" : -1,
     "name" : "android::hardware::media::c2::V1_0::Status::REFUSED"
    },
    {
     "enum_field_value" : -110,
     "name" : "android::hardware::media::c2::V1_0::Status::TIMED_OUT"
    },
    {
     "enum_field_value" : -74,
     "name" : "android::hardware::media::c2::V1_0::Status::OMITTED"
    },
    {
     "enum_field_value" : -2147483648,
     "name" : "android::hardware::media::c2::V1_0::Status::CORRUPTED"
    },
    {
     "enum_field_value" : -19,
     "name" : "android::hardware::media::c2::V1_0::Status::NO_INIT"
    }
   ],
   "linker_set_key" : "android::hardware::media::c2::V1_0::Status",
   "name" : "android::hardware::media::c2::V1_0::Status",
   "referenced_type" : "type-608",
   "self_type" : "type-608",
   "size" : 4,
   "source_file" : "/out/soong/.intermediates/hardware/interfaces/media/c2/1.0/android.hardware.media.c2@1.0_genc++_headers/gen/android/hardware/media/c2/1.0/types.h",
   "underlying_type" : "type-19",
   "unique_id" : "_ZTSN7android8hardware5media2c24V1_06StatusE"
  },
  {
   "alignment" : 4,
   "enum_fields" :
   [
    {
     "enum_field_value" : 0,
     "name" : "android::hardware::media::omx::V1_0::CodecBuffer::Type::INVALID"
    },
    {
     "enum_field_value" : 1,
     "name" : "android::hardware::media::omx::V1_0::CodecBuffer::Type::PRESET"
    },
    {
     "enum_field_value" : 2,
     "name" : "android::hardware::media::omx::V1_0::CodecBuffer::Type::SHARED_MEM"
    },
    {
     "enum_field_value" : 3,
     "name" : "android::hardware::media::omx::V1_0::CodecBuffer::Type::ANW_BUFFER"
    },
    {
     "enum_field_value" : 4,
     "name" : "android::hardware::media::omx::V1_0::CodecBuffer::Type::NATIVE_HANDLE"
    }
   ],
   "linker_set_key" : "android::hardware::media::omx::V1_0::CodecBuffer::Type",
   "name" : "android::hardware::media::omx::V1_0::CodecBuffer::Type",
   "referenced_type" : "type-2911",
   "self_type" : "type-2911",
   "size" : 4,
   "source_file" : "/out/soong/.intermediates/hardware/interfaces/media/omx/1.0/android.hardware.media.omx@1.0_genc++_headers/gen/android/hardware/media/omx/1.0/types.h",
   "underlying_type" : "type-19",
   "unique_id" : "_ZTSN7android8hardware5media3omx4V1_011CodecBuffer4TypeE"
  },
  {
   "alignment" : 4,
   "enum_fields" :
   [
    {
     "enum_field_value" : 0,
     "name" : "android::hardware::media::omx::V1_0::ColorAspects::MatrixCoeffs::UNSPECIFIED"
    },
    {
     "enum_field_value" : 1,
     "name" : "android::hardware::media::omx::V1_0::ColorAspects::MatrixCoeffs::BT709_5"
    },
    {
     "enum_field_value" : 2,
     "name" : "android::hardware::media::omx::V1_0::ColorAspects::MatrixCoeffs::BT470_6M"
    },
    {
     "enum_field_value" : 3,
     "name" : "android::hardware::media::omx::V1_0::ColorAspects::MatrixCoeffs::BT601_6"
    },
    {
     "enum_field_value" : 4,
     "name" : "android::hardware::media::omx::V1_0::ColorAspects::MatrixCoeffs::SMPTE240M"
    },
    {
     "enum_field_value" : 5,
     "name" : "android::hardware::media::omx::V1_0::ColorAspects::MatrixCoeffs::BT2020"
    },
    {
     "enum_field_value" : 6,
     "name" : "android::hardware::media::omx::V1_0::ColorAspects::MatrixCoeffs::BT2020CONSTANT"
    },
    {
     "enum_field_value" : 255,
     "name" : "android::hardware::media::omx::V1_0::ColorAspects::MatrixCoeffs::OTHER"
    }
   ],
   "linker_set_key" : "android::hardware::media::omx::V1_0::ColorAspects::MatrixCoeffs",
   "name" : "android::hardware::media::omx::V1_0::ColorAspects::MatrixCoeffs",
   "referenced_type" : "type-2919",
   "self_type" : "type-2919",
   "size" : 4,
   "source_file" : "/out/soong/.intermediates/hardware/interfaces/media/omx/1.0/android.hardware.media.omx@1.0_genc++_headers/gen/android/hardware/media/omx/1.0/types.h",
   "underlying_type" : "type-2",
   "unique_id" : "_ZTSN7android8hardware5media3omx4V1_012ColorAspects12MatrixCoeffsE"
  },
  {
   "alignment" : 4,
   "enum_fields" :
   [
    {
     "enum_field_value" : 0,
     "name" : "android::hardware::media::omx::V1_0::ColorAspects::Primaries::UNSPECIFIED"
    },
    {
     "enum_field_value" : 1,
     "name" : "android::hardware::media::omx::V1_0::ColorAspects::Primaries::BT709_5"
    },
    {
     "enum_field_value" : 2,
     "name" : "android::hardware::media::omx::V1_0::ColorAspects::Primaries::BT470_6M"
    },
    {
     "enum_field_value" : 3,
     "name" : "android::hardware::media::omx::V1_0::ColorAspects::Primaries::BT601_6_625"
    },
    {
     "enum_field_value" : 4,
     "name" : "android::hardware::media::omx::V1_0::ColorAspects::Primaries::BT601_6_525"
    },
    {
     "enum_field_value" : 5,
     "name" : "android::hardware::media::omx::V1_0::ColorAspects::Primaries::GENERIC_FILM"
    },
    {
     "enum_field_value" : 6,
     "name" : "android::hardware::media::omx::V1_0::ColorAspects::Primaries::BT2020"
    },
    {
     "enum_field_value" : 255,
     "name" : "android::hardware::media::omx::V1_0::ColorAspects::Primaries::OTHER"
    }
   ],
   "linker_set_key" : "android::hardware::media::omx::V1_0::ColorAspects::Primaries",
   "name" : "android::hardware::media::omx::V1_0::ColorAspects::Primaries",
   "referenced_type" : "type-2917",
   "self_type" : "type-2917",
   "size" : 4,
   "source_file" : "/out/soong/.intermediates/hardware/interfaces/media/omx/1.0/android.hardware.media.omx@1.0_genc++_headers/gen/android/hardware/media/omx/1.0/types.h",
   "underlying_type" : "type-2",
   "unique_id" : "_ZTSN7android8hardware5media3omx4V1_012ColorAspects9PrimariesE"
  },
  {
   "alignment" : 4,
   "enum_fields" :
   [
    {
     "enum_field_value" : 0,
     "name" : "android::hardware::media::omx::V1_0::ColorAspects::Range::UNSPECIFIED"
    },
    {
     "enum_field_value" : 1,
     "name" : "android::hardware::media::omx::V1_0::ColorAspects::Range::FULL"
    },
    {
     "enum_field_value" : 2,
     "name" : "android::hardware::media::omx::V1_0::ColorAspects::Range::LIMITED"
    },
    {
     "enum_field_value" : 255,
     "name" : "android::hardware::media::omx::V1_0::ColorAspects::Range::OTHER"
    }
   ],
   "linker_set_key" : "android::hardware::media::omx::V1_0::ColorAspects::Range",
   "name" : "android::hardware::media::omx::V1_0::ColorAspects::Range",
   "referenced_type" : "type-2916",
   "self_type" : "type-2916",
   "size" : 4,
   "source_file" : "/out/soong/.intermediates/hardware/interfaces/media/omx/1.0/android.hardware.media.omx@1.0_genc++_headers/gen/android/hardware/media/omx/1.0/types.h",
   "underlying_type" : "type-2",
   "unique_id" : "_ZTSN7android8hardware5media3omx4V1_012ColorAspects5RangeE"
  },
  {
   "alignment" : 4,
   "enum_fields" :
   [
    {
     "enum_field_value" : 0,
     "name" : "android::hardware::media::omx::V1_0::ColorAspects::Transfer::UNSPECIFIED"
    },
    {
     "enum_field_value" : 1,
     "name" : "android::hardware::media::omx::V1_0::ColorAspects::Transfer::LINEAR"
    },
    {
     "enum_field_value" : 2,
     "name" : "android::hardware::media::omx::V1_0::ColorAspects::Transfer::SRGB"
    },
    {
     "enum_field_value" : 3,
     "name" : "android::hardware::media::omx::V1_0::ColorAspects::Transfer::SMPTE170M"
    },
    {
     "enum_field_value" : 4,
     "name" : "android::hardware::media::omx::V1_0::ColorAspects::Transfer::GAMMA22"
    },
    {
     "enum_field_value" : 5,
     "name" : "android::hardware::media::omx::V1_0::ColorAspects::Transfer::GAMMA28"
    },
    {
     "enum_field_value" : 6,
     "name" : "android::hardware::media::omx::V1_0::ColorAspects::Transfer::ST2084"
    },
    {
     "enum_field_value" : 7,
     "name" : "android::hardware::media::omx::V1_0::ColorAspects::Transfer::HLG"
    },
    {
     "enum_field_value" : 64,
     "name" : "android::hardware::media::omx::V1_0::ColorAspects::Transfer::SMPTE240M"
    },
    {
     "enum_field_value" : 65,
     "name" : "android::hardware::media::omx::V1_0::ColorAspects::Transfer::XVYCC"
    },
    {
     "enum_field_value" : 66,
     "name" : "android::hardware::media::omx::V1_0::ColorAspects::Transfer::BT1361"
    },
    {
     "enum_field_value" : 67,
     "name" : "android::hardware::media::omx::V1_0::ColorAspects::Transfer::ST428"
    },
    {
     "enum_field_value" : 255,
     "name" : "android::hardware::media::omx::V1_0::ColorAspects::Transfer::OTHER"
    }
   ],
   "linker_set_key" : "android::hardware::media::omx::V1_0::ColorAspects::Transfer",
   "name" : "android::hardware::media::omx::V1_0::ColorAspects::Transfer",
   "referenced_type" : "type-2918",
   "self_type" : "type-2918",
   "size" : 4,
   "source_file" : "/out/soong/.intermediates/hardware/interfaces/media/omx/1.0/android.hardware.media.omx@1.0_genc++_headers/gen/android/hardware/media/omx/1.0/types.h",
   "underlying_type" : "type-2",
   "unique_id" : "_ZTSN7android8hardware5media3omx4V1_012ColorAspects8TransferE"
  },
  {
   "alignment" : 4,
   "enum_fields" :
   [
    {
     "enum_field_value" : 0,
     "name" : "android::hardware::media::omx::V1_0::Message::Type::EVENT"
    },
    {
     "enum_field_value" : 1,
     "name" : "android::hardware::media::omx::V1_0::Message::Type::EMPTY_BUFFER_DONE"
    },
    {
     "enum_field_value" : 2,
     "name" : "android::hardware::media::omx::V1_0::Message::Type::FILL_BUFFER_DONE"
    },
    {
     "enum_field_value" : 3,
     "name" : "android::hardware::media::omx::V1_0::Message::Type::FRAME_RENDERED"
    }
   ],
   "linker_set_key" : "android::hardware::media::omx::V1_0::Message::Type",
   "name" : "android::hardware::media::omx::V1_0::Message::Type",
   "referenced_type" : "type-2899",
   "self_type" : "type-2899",
   "size" : 4,
   "source_file" : "/out/soong/.intermediates/hardware/interfaces/media/omx/1.0/android.hardware.media.omx@1.0_genc++_headers/gen/android/hardware/media/omx/1.0/types.h",
   "underlying_type" : "type-2",
   "unique_id" : "_ZTSN7android8hardware5media3omx4V1_07Message4TypeE"
  },
  {
   "alignment" : 4,
   "enum_fields" :
   [
    {
     "enum_field_value" : 0,
     "name" : "android::hardware::media::omx::V1_0::PortMode::PRESET_START"
    },
    {
     "enum_field_value" : 1,
     "name" : "android::hardware::media::omx::V1_0::PortMode::PRESET_BYTE_BUFFER"
    },
    {
     "enum_field_value" : 2,
     "name" : "android::hardware::media::omx::V1_0::PortMode::PRESET_ANW_BUFFER"
    },
    {
     "enum_field_value" : 3,
     "name" : "android::hardware::media::omx::V1_0::PortMode::PRESET_SECURE_BUFFER"
    },
    {
     "enum_field_value" : 4,
     "name" : "android::hardware::media::omx::V1_0::PortMode::PRESET_END"
    },
    {
     "enum_field_value" : 100,
     "name" : "android::hardware::media::omx::V1_0::PortMode::DYNAMIC_START"
    },
    {
     "enum_field_value" : 101,
     "name" : "android::hardware::media::omx::V1_0::PortMode::DYNAMIC_ANW_BUFFER"
    },
    {
     "enum_field_value" : 102,
     "name" : "android::hardware::media::omx::V1_0::PortMode::DYNAMIC_NATIVE_HANDLE"
    },
    {
     "enum_field_value" : 103,
     "name" : "android::hardware::media::omx::V1_0::PortMode::DYNAMIC_END"
    }
   ],
   "linker_set_key" : "android::hardware::media::omx::V1_0::PortMode",
   "name" : "android::hardware::media::omx::V1_0::PortMode",
   "referenced_type" : "type-2914",
   "self_type" : "type-2914",
   "size" : 4,
   "source_file" : "/out/soong/.intermediates/hardware/interfaces/media/omx/1.0/android.hardware.media.omx@1.0_genc++_headers/gen/android/hardware/media/omx/1.0/types.h",
   "underlying_type" : "type-19",
   "unique_id" : "_ZTSN7android8hardware5media3omx4V1_08PortModeE"
  },
  {
   "alignment" : 4,
   "enum_fields" :
   [
    {
     "enum_field_value" : 0,
     "name" : "android::hardware::media::omx::V1_0::Status::OK"
    },
    {
     "enum_field_value" : 0,
     "name" : "android::hardware::media::omx::V1_0::Status::NO_ERROR"
    },
    {
     "enum_field_value" : -2,
     "name" : "android::hardware::media::omx::V1_0::Status::NAME_NOT_FOUND"
    },
    {
     "enum_field_value" : -11,
     "name" : "android::hardware::media::omx::V1_0::Status::WOULD_BLOCK"
    },
    {
     "enum_field_value" : -12,
     "name" : "android::hardware::media::omx::V1_0::Status::NO_MEMORY"
    },
    {
     "enum_field_value" : -17,
     "name" : "android::hardware::media::omx::V1_0::Status::ALREADY_EXISTS"
    },
    {
     "enum_field_value" : -19,
     "name" : "android::hardware::media::omx::V1_0::Status::NO_INIT"
    },
    {
     "enum_field_value" : -22,
     "name" : "android::hardware::media::omx::V1_0::Status::BAD_VALUE"
    },
    {
     "enum_field_value" : -32,
     "name" : "android::hardware::media::omx::V1_0::Status::DEAD_OBJECT"
    },
    {
     "enum_field_value" : -38,
     "name" : "android::hardware::media::omx::V1_0::Status::INVALID_OPERATION"
    },
    {
     "enum_field_value" : -110,
     "name" : "android::hardware::media::omx::V1_0::Status::TIMED_OUT"
    },
    {
     "enum_field_value" : -1010,
     "name" : "android::hardware::media::omx::V1_0::Status::ERROR_UNSUPPORTED"
    },
    {
     "enum_field_value" : -2147483648,
     "name" : "android::hardware::media::omx::V1_0::Status::UNKNOWN_ERROR"
    },
    {
     "enum_field_value" : 1,
     "name" : "android::hardware::media::omx::V1_0::Status::BUFFER_NEEDS_REALLOCATION"
    },
    {
     "enum_field_value" : 2,
     "name" : "android::hardware::media::omx::V1_0::Status::RELEASE_ALL_BUFFERS"
    }
   ],
   "linker_set_key" : "android::hardware::media::omx::V1_0::Status",
   "name" : "android::hardware::media::omx::V1_0::Status",
   "referenced_type" : "type-2888",
   "self_type" : "type-2888",
   "size" : 4,
   "source_file" : "/out/soong/.intermediates/hardware/interfaces/media/omx/1.0/android.hardware.media.omx@1.0_genc++_headers/gen/android/hardware/media/omx/1.0/types.h",
   "underlying_type" : "type-19",
   "unique_id" : "_ZTSN7android8hardware5media3omx4V1_06StatusE"
  },
  {
   "alignment" : 4,
   "enum_fields" :
   [
    {
     "enum_field_value" : 0,
     "name" : "android::hidl::base::V1_0::DebugInfo::Architecture::UNKNOWN"
    },
    {
     "enum_field_value" : 1,
     "name" : "android::hidl::base::V1_0::DebugInfo::Architecture::IS_64BIT"
    },
    {
     "enum_field_value" : 2,
     "name" : "android::hidl::base::V1_0::DebugInfo::Architecture::IS_32BIT"
    }
   ],
   "linker_set_key" : "android::hidl::base::V1_0::DebugInfo::Architecture",
   "name" : "android::hidl::base::V1_0::DebugInfo::Architecture",
   "referenced_type" : "type-950",
   "self_type" : "type-950",
   "size" : 4,
   "source_file" : "/out/soong/.intermediates/system/libhidl/transport/base/1.0/android.hidl.base@1.0_genc++_headers/gen/android/hidl/base/1.0/types.h",
   "underlying_type" : "type-19",
   "unique_id" : "_ZTSN7android4hidl4base4V1_09DebugInfo12ArchitectureE"
  },
  {
   "alignment" : 4,
   "enum_fields" :
   [
    {
     "enum_field_value" : 0,
     "name" : "ANDROID_LOG_UNKNOWN"
    },
    {
     "enum_field_value" : 1,
     "name" : "ANDROID_LOG_DEFAULT"
    },
    {
     "enum_field_value" : 2,
     "name" : "ANDROID_LOG_VERBOSE"
    },
    {
     "enum_field_value" : 3,
     "name" : "ANDROID_LOG_DEBUG"
    },
    {
     "enum_field_value" : 4,
     "name" : "ANDROID_LOG_INFO"
    },
    {
     "enum_field_value" : 5,
     "name" : "ANDROID_LOG_WARN"
    },
    {
     "enum_field_value" : 6,
     "name" : "ANDROID_LOG_ERROR"
    },
    {
     "enum_field_value" : 7,
     "name" : "ANDROID_LOG_FATAL"
    },
    {
     "enum_field_value" : 8,
     "name" : "ANDROID_LOG_SILENT"
    }
   ],
   "linker_set_key" : "android_LogPriority",
   "name" : "android_LogPriority",
   "referenced_type" : "type-1868",
   "self_type" : "type-1868",
   "size" : 4,
   "source_file" : "/system/core/liblog/include/android/log.h",
   "underlying_type" : "type-2",
   "unique_id" : "android_LogPriority"
  },
  {
   "alignment" : 4,
   "enum_fields" :
   [
    {
     "enum_field_value" : 0,
     "name" : "HAL_COLOR_MODE_NATIVE"
    },
    {
     "enum_field_value" : 1,
     "name" : "HAL_COLOR_MODE_STANDARD_BT601_625"
    },
    {
     "enum_field_value" : 2,
     "name" : "HAL_COLOR_MODE_STANDARD_BT601_625_UNADJUSTED"
    },
    {
     "enum_field_value" : 3,
     "name" : "HAL_COLOR_MODE_STANDARD_BT601_525"
    },
    {
     "enum_field_value" : 4,
     "name" : "HAL_COLOR_MODE_STANDARD_BT601_525_UNADJUSTED"
    },
    {
     "enum_field_value" : 5,
     "name" : "HAL_COLOR_MODE_STANDARD_BT709"
    },
    {
     "enum_field_value" : 6,
     "name" : "HAL_COLOR_MODE_DCI_P3"
    },
    {
     "enum_field_value" : 7,
     "name" : "HAL_COLOR_MODE_SRGB"
    },
    {
     "enum_field_value" : 8,
     "name" : "HAL_COLOR_MODE_ADOBE_RGB"
    },
    {
     "enum_field_value" : 9,
     "name" : "HAL_COLOR_MODE_DISPLAY_P3"
    }
   ],
   "linker_set_key" : "android_color_mode_t",
   "name" : "android_color_mode_t",
   "referenced_type" : "type-1396",
   "self_type" : "type-1396",
   "size" : 4,
   "source_file" : "/system/core/libsystem/include/system/graphics-base-v1.0.h",
   "underlying_type" : "type-2",
   "unique_id" : "android_color_mode_t"
  },
  {
   "alignment" : 4,
   "enum_fields" :
   [
    {
     "enum_field_value" : 10,
     "name" : "HAL_COLOR_MODE_BT2020"
    },
    {
     "enum_field_value" : 11,
     "name" : "HAL_COLOR_MODE_BT2100_PQ"
    },
    {
     "enum_field_value" : 12,
     "name" : "HAL_COLOR_MODE_BT2100_HLG"
    }
   ],
   "linker_set_key" : "android_color_mode_v1_1_t",
   "name" : "android_color_mode_v1_1_t",
   "referenced_type" : "type-1446",
   "self_type" : "type-1446",
   "size" : 4,
   "source_file" : "/system/core/libsystem/include/system/graphics-base-v1.1.h",
   "underlying_type" : "type-2",
   "unique_id" : "android_color_mode_v1_1_t"
  },
  {
   "alignment" : 4,
   "enum_fields" :
   [
    {
     "enum_field_value" : 0,
     "name" : "HAL_COLOR_TRANSFORM_IDENTITY"
    },
    {
     "enum_field_value" : 1,
     "name" : "HAL_COLOR_TRANSFORM_ARBITRARY_MATRIX"
    },
    {
     "enum_field_value" : 2,
     "name" : "HAL_COLOR_TRANSFORM_VALUE_INVERSE"
    },
    {
     "enum_field_value" : 3,
     "name" : "HAL_COLOR_TRANSFORM_GRAYSCALE"
    },
    {
     "enum_field_value" : 4,
     "name" : "HAL_COLOR_TRANSFORM_CORRECT_PROTANOPIA"
    },
    {
     "enum_field_value" : 5,
     "name" : "HAL_COLOR_TRANSFORM_CORRECT_DEUTERANOPIA"
    },
    {
     "enum_field_value" : 6,
     "name" : "HAL_COLOR_TRANSFORM_CORRECT_TRITANOPIA"
    }
   ],
   "linker_set_key" : "android_color_transform_t",
   "name" : "android_color_transform_t",
   "referenced_type" : "type-1411",
   "self_type" : "type-1411",
   "size" : 4,
   "source_file" : "/system/core/libsystem/include/system/graphics-base-v1.0.h",
   "underlying_type" : "type-2",
   "unique_id" : "android_color_transform_t"
  },
  {
   "alignment" : 4,
   "enum_fields" :
   [
    {
     "enum_field_value" : 0,
     "name" : "HAL_DATASPACE_UNKNOWN"
    },
    {
     "enum_field_value" : 1,
     "name" : "HAL_DATASPACE_ARBITRARY"
    },
    {
     "enum_field_value" : 16,
     "name" : "HAL_DATASPACE_STANDARD_SHIFT"
    },
    {
     "enum_field_value" : 4128768,
     "name" : "HAL_DATASPACE_STANDARD_MASK"
    },
    {
     "enum_field_value" : 0,
     "name" : "HAL_DATASPACE_STANDARD_UNSPECIFIED"
    },
    {
     "enum_field_value" : 65536,
     "name" : "HAL_DATASPACE_STANDARD_BT709"
    },
    {
     "enum_field_value" : 131072,
     "name" : "HAL_DATASPACE_STANDARD_BT601_625"
    },
    {
     "enum_field_value" : 196608,
     "name" : "HAL_DATASPACE_STANDARD_BT601_625_UNADJUSTED"
    },
    {
     "enum_field_value" : 262144,
     "name" : "HAL_DATASPACE_STANDARD_BT601_525"
    },
    {
     "enum_field_value" : 327680,
     "name" : "HAL_DATASPACE_STANDARD_BT601_525_UNADJUSTED"
    },
    {
     "enum_field_value" : 393216,
     "name" : "HAL_DATASPACE_STANDARD_BT2020"
    },
    {
     "enum_field_value" : 458752,
     "name" : "HAL_DATASPACE_STANDARD_BT2020_CONSTANT_LUMINANCE"
    },
    {
     "enum_field_value" : 524288,
     "name" : "HAL_DATASPACE_STANDARD_BT470M"
    },
    {
     "enum_field_value" : 589824,
     "name" : "HAL_DATASPACE_STANDARD_FILM"
    },
    {
     "enum_field_value" : 655360,
     "name" : "HAL_DATASPACE_STANDARD_DCI_P3"
    },
    {
     "enum_field_value" : 720896,
     "name" : "HAL_DATASPACE_STANDARD_ADOBE_RGB"
    },
    {
     "enum_field_value" : 22,
     "name" : "HAL_DATASPACE_TRANSFER_SHIFT"
    },
    {
     "enum_field_value" : 130023424,
     "name" : "HAL_DATASPACE_TRANSFER_MASK"
    },
    {
     "enum_field_value" : 0,
     "name" : "HAL_DATASPACE_TRANSFER_UNSPECIFIED"
    },
    {
     "enum_field_value" : 4194304,
     "name" : "HAL_DATASPACE_TRANSFER_LINEAR"
    },
    {
     "enum_field_value" : 8388608,
     "name" : "HAL_DATASPACE_TRANSFER_SRGB"
    },
    {
     "enum_field_value" : 12582912,
     "name" : "HAL_DATASPACE_TRANSFER_SMPTE_170M"
    },
    {
     "enum_field_value" : 16777216,
     "name" : "HAL_DATASPACE_TRANSFER_GAMMA2_2"
    },
    {
     "enum_field_value" : 20971520,
     "name" : "HAL_DATASPACE_TRANSFER_GAMMA2_6"
    },
    {
     "enum_field_value" : 25165824,
     "name" : "HAL_DATASPACE_TRANSFER_GAMMA2_8"
    },
    {
     "enum_field_value" : 29360128,
     "name" : "HAL_DATASPACE_TRANSFER_ST2084"
    },
    {
     "enum_field_value" : 33554432,
     "name" : "HAL_DATASPACE_TRANSFER_HLG"
    },
    {
     "enum_field_value" : 27,
     "name" : "HAL_DATASPACE_RANGE_SHIFT"
    },
    {
     "enum_field_value" : 939524096,
     "name" : "HAL_DATASPACE_RANGE_MASK"
    },
    {
     "enum_field_value" : 0,
     "name" : "HAL_DATASPACE_RANGE_UNSPECIFIED"
    },
    {
     "enum_field_value" : 134217728,
     "name" : "HAL_DATASPACE_RANGE_FULL"
    },
    {
     "enum_field_value" : 268435456,
     "name" : "HAL_DATASPACE_RANGE_LIMITED"
    },
    {
     "enum_field_value" : 402653184,
     "name" : "HAL_DATASPACE_RANGE_EXTENDED"
    },
    {
     "enum_field_value" : 512,
     "name" : "HAL_DATASPACE_SRGB_LINEAR"
    },
    {
     "enum_field_value" : 138477568,
     "name" : "HAL_DATASPACE_V0_SRGB_LINEAR"
    },
    {
     "enum_field_value" : 406913024,
     "name" : "HAL_DATASPACE_V0_SCRGB_LINEAR"
    },
    {
     "enum_field_value" : 513,
     "name" : "HAL_DATASPACE_SRGB"
    },
    {
     "enum_field_value" : 142671872,
     "name" : "HAL_DATASPACE_V0_SRGB"
    },
    {
     "enum_field_value" : 411107328,
     "name" : "HAL_DATASPACE_V0_SCRGB"
    },
    {
     "enum_field_value" : 257,
     "name" : "HAL_DATASPACE_JFIF"
    },
    {
     "enum_field_value" : 146931712,
     "name" : "HAL_DATASPACE_V0_JFIF"
    },
    {
     "enum_field_value" : 258,
     "name" : "HAL_DATASPACE_BT601_625"
    },
    {
     "enum_field_value" : 281149440,
     "name" : "HAL_DATASPACE_V0_BT601_625"
    },
    {
     "enum_field_value" : 259,
     "name" : "HAL_DATASPACE_BT601_525"
    },
    {
     "enum_field_value" : 281280512,
     "name" : "HAL_DATASPACE_V0_BT601_525"
    },
    {
     "enum_field_value" : 260,
     "name" : "HAL_DATASPACE_BT709"
    },
    {
     "enum_field_value" : 281083904,
     "name" : "HAL_DATASPACE_V0_BT709"
    },
    {
     "enum_field_value" : 139067392,
     "name" : "HAL_DATASPACE_DCI_P3_LINEAR"
    },
    {
     "enum_field_value" : 155844608,
     "name" : "HAL_DATASPACE_DCI_P3"
    },
    {
     "enum_field_value" : 139067392,
     "name" : "HAL_DATASPACE_DISPLAY_P3_LINEAR"
    },
    {
     "enum_field_value" : 143261696,
     "name" : "HAL_DATASPACE_DISPLAY_P3"
    },
    {
     "enum_field_value" : 151715840,
     "name" : "HAL_DATASPACE_ADOBE_RGB"
    },
    {
     "enum_field_value" : 138805248,
     "name" : "HAL_DATASPACE_BT2020_LINEAR"
    },
    {
     "enum_field_value" : 147193856,
     "name" : "HAL_DATASPACE_BT2020"
    },
    {
     "enum_field_value" : 163971072,
     "name" : "HAL_DATASPACE_BT2020_PQ"
    },
    {
     "enum_field_value" : 4096,
     "name" : "HAL_DATASPACE_DEPTH"
    },
    {
     "enum_field_value" : 4097,
     "name" : "HAL_DATASPACE_SENSOR"
    }
   ],
   "linker_set_key" : "android_dataspace_t",
   "name" : "android_dataspace_t",
   "referenced_type" : "type-1388",
   "self_type" : "type-1388",
   "size" : 4,
   "source_file" : "/system/core/libsystem/include/system/graphics-base-v1.0.h",
   "underlying_type" : "type-2",
   "unique_id" : "android_dataspace_t"
  },
  {
   "alignment" : 4,
   "enum_fields" :
   [
    {
     "enum_field_value" : 281411584,
     "name" : "HAL_DATASPACE_BT2020_ITU"
    },
    {
     "enum_field_value" : 298188800,
     "name" : "HAL_DATASPACE_BT2020_ITU_PQ"
    },
    {
     "enum_field_value" : 302383104,
     "name" : "HAL_DATASPACE_BT2020_ITU_HLG"
    },
    {
     "enum_field_value" : 168165376,
     "name" : "HAL_DATASPACE_BT2020_HLG"
    }
   ],
   "linker_set_key" : "android_dataspace_v1_1_t",
   "name" : "android_dataspace_v1_1_t",
   "referenced_type" : "type-1436",
   "self_type" : "type-1436",
   "size" : 4,
   "source_file" : "/system/core/libsystem/include/system/graphics-base-v1.1.h",
   "underlying_type" : "type-2",
   "unique_id" : "android_dataspace_v1_1_t"
  },
  {
   "alignment" : 4,
   "enum_fields" :
   [
    {
     "enum_field_value" : 142999552,
     "name" : "HAL_DATASPACE_DISPLAY_BT2020"
    },
    {
     "enum_field_value" : 4098,
     "name" : "HAL_DATASPACE_DYNAMIC_DEPTH"
    },
    {
     "enum_field_value" : 4099,
     "name" : "HAL_DATASPACE_JPEG_APP_SEGMENTS"
    },
    {
     "enum_field_value" : 4100,
     "name" : "HAL_DATASPACE_HEIF"
    }
   ],
   "linker_set_key" : "android_dataspace_v1_2_t",
   "name" : "android_dataspace_v1_2_t",
   "referenced_type" : "type-1449",
   "self_type" : "type-1449",
   "size" : 4,
   "source_file" : "/system/core/libsystem/include/system/graphics-base-v1.2.h",
   "underlying_type" : "type-2",
   "unique_id" : "android_dataspace_v1_2_t"
  },
  {
   "alignment" : 4,
   "enum_fields" :
   [
    {
     "enum_field_value" : 1,
     "name" : "FLEX_COMPONENT_Y"
    },
    {
     "enum_field_value" : 2,
     "name" : "FLEX_COMPONENT_Cb"
    },
    {
     "enum_field_value" : 4,
     "name" : "FLEX_COMPONENT_Cr"
    },
    {
     "enum_field_value" : 1024,
     "name" : "FLEX_COMPONENT_R"
    },
    {
     "enum_field_value" : 2048,
     "name" : "FLEX_COMPONENT_G"
    },
    {
     "enum_field_value" : 4096,
     "name" : "FLEX_COMPONENT_B"
    },
    {
     "enum_field_value" : 1073741824,
     "name" : "FLEX_COMPONENT_A"
    }
   ],
   "linker_set_key" : "android_flex_component",
   "name" : "android_flex_component",
   "referenced_type" : "type-1483",
   "self_type" : "type-1483",
   "size" : 4,
   "source_file" : "/system/core/libsystem/include/system/graphics.h",
   "underlying_type" : "type-2",
   "unique_id" : "android_flex_component"
  },
  {
   "alignment" : 4,
   "enum_fields" :
   [
    {
     "enum_field_value" : 0,
     "name" : "FLEX_FORMAT_INVALID"
    },
    {
     "enum_field_value" : 1,
     "name" : "FLEX_FORMAT_Y"
    },
    {
     "enum_field_value" : 7,
     "name" : "FLEX_FORMAT_YCbCr"
    },
    {
     "enum_field_value" : 1073741831,
     "name" : "FLEX_FORMAT_YCbCrA"
    },
    {
     "enum_field_value" : 7168,
     "name" : "FLEX_FORMAT_RGB"
    },
    {
     "enum_field_value" : 1073748992,
     "name" : "FLEX_FORMAT_RGBA"
    }
   ],
   "linker_set_key" : "android_flex_format",
   "name" : "android_flex_format",
   "referenced_type" : "type-1495",
   "self_type" : "type-1495",
   "size" : 4,
   "source_file" : "/system/core/libsystem/include/system/graphics.h",
   "underlying_type" : "type-2",
   "unique_id" : "android_flex_format"
  },
  {
   "alignment" : 4,
   "enum_fields" :
   [
    {
     "enum_field_value" : 1,
     "name" : "HAL_HDR_DOLBY_VISION"
    },
    {
     "enum_field_value" : 2,
     "name" : "HAL_HDR_HDR10"
    },
    {
     "enum_field_value" : 3,
     "name" : "HAL_HDR_HLG"
    }
   ],
   "linker_set_key" : "android_hdr_t",
   "name" : "android_hdr_t",
   "referenced_type" : "type-1417",
   "self_type" : "type-1417",
   "size" : 4,
   "source_file" : "/system/core/libsystem/include/system/graphics-base-v1.0.h",
   "underlying_type" : "type-2",
   "unique_id" : "android_hdr_t"
  },
  {
   "alignment" : 4,
   "enum_fields" :
   [
    {
     "enum_field_value" : 4,
     "name" : "HAL_HDR_HDR10_PLUS"
    }
   ],
   "linker_set_key" : "android_hdr_v1_2_t",
   "name" : "android_hdr_v1_2_t",
   "referenced_type" : "type-1448",
   "self_type" : "type-1448",
   "size" : 4,
   "source_file" : "/system/core/libsystem/include/system/graphics-base-v1.2.h",
   "underlying_type" : "type-2",
   "unique_id" : "android_hdr_v1_2_t"
  },
  {
   "alignment" : 4,
   "enum_fields" :
   [
    {
     "enum_field_value" : 39,
     "name" : "HAL_PIXEL_FORMAT_YCBCR_422_888"
    },
    {
     "enum_field_value" : 40,
     "name" : "HAL_PIXEL_FORMAT_YCBCR_444_888"
    },
    {
     "enum_field_value" : 41,
     "name" : "HAL_PIXEL_FORMAT_FLEX_RGB_888"
    },
    {
     "enum_field_value" : 42,
     "name" : "HAL_PIXEL_FORMAT_FLEX_RGBA_8888"
    }
   ],
   "linker_set_key" : "android_pixel_format_sw_t",
   "name" : "android_pixel_format_sw_t",
   "referenced_type" : "type-1457",
   "self_type" : "type-1457",
   "size" : 4,
   "source_file" : "/system/core/libsystem/include/system/graphics-sw.h",
   "underlying_type" : "type-2",
   "unique_id" : "_ZTS25android_pixel_format_sw_t"
  },
  {
   "alignment" : 4,
   "enum_fields" :
   [
    {
     "enum_field_value" : 1,
     "name" : "HAL_PIXEL_FORMAT_RGBA_8888"
    },
    {
     "enum_field_value" : 2,
     "name" : "HAL_PIXEL_FORMAT_RGBX_8888"
    },
    {
     "enum_field_value" : 3,
     "name" : "HAL_PIXEL_FORMAT_RGB_888"
    },
    {
     "enum_field_value" : 4,
     "name" : "HAL_PIXEL_FORMAT_RGB_565"
    },
    {
     "enum_field_value" : 5,
     "name" : "HAL_PIXEL_FORMAT_BGRA_8888"
    },
    {
     "enum_field_value" : 16,
     "name" : "HAL_PIXEL_FORMAT_YCBCR_422_SP"
    },
    {
     "enum_field_value" : 17,
     "name" : "HAL_PIXEL_FORMAT_YCRCB_420_SP"
    },
    {
     "enum_field_value" : 20,
     "name" : "HAL_PIXEL_FORMAT_YCBCR_422_I"
    },
    {
     "enum_field_value" : 22,
     "name" : "HAL_PIXEL_FORMAT_RGBA_FP16"
    },
    {
     "enum_field_value" : 32,
     "name" : "HAL_PIXEL_FORMAT_RAW16"
    },
    {
     "enum_field_value" : 33,
     "name" : "HAL_PIXEL_FORMAT_BLOB"
    },
    {
     "enum_field_value" : 34,
     "name" : "HAL_PIXEL_FORMAT_IMPLEMENTATION_DEFINED"
    },
    {
     "enum_field_value" : 35,
     "name" : "HAL_PIXEL_FORMAT_YCBCR_420_888"
    },
    {
     "enum_field_value" : 36,
     "name" : "HAL_PIXEL_FORMAT_RAW_OPAQUE"
    },
    {
     "enum_field_value" : 37,
     "name" : "HAL_PIXEL_FORMAT_RAW10"
    },
    {
     "enum_field_value" : 38,
     "name" : "HAL_PIXEL_FORMAT_RAW12"
    },
    {
     "enum_field_value" : 43,
     "name" : "HAL_PIXEL_FORMAT_RGBA_1010102"
    },
    {
     "enum_field_value" : 538982489,
     "name" : "HAL_PIXEL_FORMAT_Y8"
    },
    {
     "enum_field_value" : 540422489,
     "name" : "HAL_PIXEL_FORMAT_Y16"
    },
    {
     "enum_field_value" : 842094169,
     "name" : "HAL_PIXEL_FORMAT_YV12"
    }
   ],
   "linker_set_key" : "android_pixel_format_t",
   "name" : "android_pixel_format_t",
   "referenced_type" : "type-1371",
   "self_type" : "type-1371",
   "size" : 4,
   "source_file" : "/system/core/libsystem/include/system/graphics-base-v1.0.h",
   "underlying_type" : "type-2",
   "unique_id" : "android_pixel_format_t"
  },
  {
   "alignment" : 4,
   "enum_fields" :
   [
    {
     "enum_field_value" : 48,
     "name" : "HAL_PIXEL_FORMAT_DEPTH_16"
    },
    {
     "enum_field_value" : 49,
     "name" : "HAL_PIXEL_FORMAT_DEPTH_24"
    },
    {
     "enum_field_value" : 50,
     "name" : "HAL_PIXEL_FORMAT_DEPTH_24_STENCIL_8"
    },
    {
     "enum_field_value" : 51,
     "name" : "HAL_PIXEL_FORMAT_DEPTH_32F"
    },
    {
     "enum_field_value" : 52,
     "name" : "HAL_PIXEL_FORMAT_DEPTH_32F_STENCIL_8"
    },
    {
     "enum_field_value" : 53,
     "name" : "HAL_PIXEL_FORMAT_STENCIL_8"
    },
    {
     "enum_field_value" : 54,
     "name" : "HAL_PIXEL_FORMAT_YCBCR_P010"
    }
   ],
   "linker_set_key" : "android_pixel_format_v1_1_t",
   "name" : "android_pixel_format_v1_1_t",
   "referenced_type" : "type-1425",
   "self_type" : "type-1425",
   "size" : 4,
   "source_file" : "/system/core/libsystem/include/system/graphics-base-v1.1.h",
   "underlying_type" : "type-2",
   "unique_id" : "android_pixel_format_v1_1_t"
  },
  {
   "alignment" : 4,
   "enum_fields" :
   [
    {
     "enum_field_value" : 55,
     "name" : "HAL_PIXEL_FORMAT_HSV_888"
    }
   ],
   "linker_set_key" : "android_pixel_format_v1_2_t",
   "name" : "android_pixel_format_v1_2_t",
   "referenced_type" : "type-1454",
   "self_type" : "type-1454",
   "size" : 4,
   "source_file" : "/system/core/libsystem/include/system/graphics-base-v1.2.h",
   "underlying_type" : "type-2",
   "unique_id" : "android_pixel_format_v1_2_t"
  },
  {
   "alignment" : 4,
   "enum_fields" :
   [
    {
     "enum_field_value" : 0,
     "name" : "HAL_RENDER_INTENT_COLORIMETRIC"
    },
    {
     "enum_field_value" : 1,
     "name" : "HAL_RENDER_INTENT_ENHANCE"
    },
    {
     "enum_field_value" : 2,
     "name" : "HAL_RENDER_INTENT_TONE_MAP_COLORIMETRIC"
    },
    {
     "enum_field_value" : 3,
     "name" : "HAL_RENDER_INTENT_TONE_MAP_ENHANCE"
    }
   ],
   "linker_set_key" : "android_render_intent_v1_1_t",
   "name" : "android_render_intent_v1_1_t",
   "referenced_type" : "type-1447",
   "self_type" : "type-1447",
   "size" : 4,
   "source_file" : "/system/core/libsystem/include/system/graphics-base-v1.1.h",
   "underlying_type" : "type-2",
   "unique_id" : "android_render_intent_v1_1_t"
  },
  {
   "alignment" : 4,
   "enum_fields" :
   [
    {
     "enum_field_value" : 1,
     "name" : "HAL_TRANSFORM_FLIP_H"
    },
    {
     "enum_field_value" : 2,
     "name" : "HAL_TRANSFORM_FLIP_V"
    },
    {
     "enum_field_value" : 4,
     "name" : "HAL_TRANSFORM_ROT_90"
    },
    {
     "enum_field_value" : 3,
     "name" : "HAL_TRANSFORM_ROT_180"
    },
    {
     "enum_field_value" : 7,
     "name" : "HAL_TRANSFORM_ROT_270"
    }
   ],
   "linker_set_key" : "android_transform_t",
   "name" : "android_transform_t",
   "referenced_type" : "type-1380",
   "self_type" : "type-1380",
   "size" : 4,
   "source_file" : "/system/core/libsystem/include/system/graphics-base-v1.0.h",
   "underlying_type" : "type-2",
   "unique_id" : "android_transform_t"
  },
  {
   "alignment" : 4,
   "enum_fields" :
   [
    {
     "enum_field_value" : 0,
     "name" : "C2_DONT_BLOCK"
    },
    {
     "enum_field_value" : 1,
     "name" : "C2_MAY_BLOCK"
    }
   ],
   "linker_set_key" : "c2_blocking_t",
   "name" : "c2_blocking_t",
   "referenced_type" : "type-974",
   "self_type" : "type-974",
   "size" : 4,
   "source_file" : "/frameworks/av/media/codec2/core/include/C2.h",
   "underlying_type" : "type-19",
   "unique_id" : "_ZTS13c2_blocking_t"
  },
  {
   "alignment" : 4,
   "enum_fields" :
   [
    {
     "enum_field_value" : 0,
     "name" : "C2_FALSE"
    },
    {
     "enum_field_value" : 1,
     "name" : "C2_TRUE"
    }
   ],
   "linker_set_key" : "c2_bool_t",
   "name" : "c2_bool_t",
   "referenced_type" : "type-3119",
   "self_type" : "type-3119",
   "size" : 4,
   "source_file" : "/frameworks/av/media/codec2/core/include/C2Config.h",
   "underlying_type" : "type-2",
   "unique_id" : "_ZTS9c2_bool_t"
  },
  {
   "alignment" : 4,
   "enum_fields" :
   [
    {
     "enum_field_value" : 0,
     "name" : "C2_UNSET"
    },
    {
     "enum_field_value" : 1,
     "name" : "C2_SET"
    },
    {
     "enum_field_value" : 2,
     "name" : "C2_DEFAULT"
    }
   ],
   "linker_set_key" : "c2_set_t",
   "name" : "c2_set_t",
   "referenced_type" : "type-3161",
   "self_type" : "type-3161",
   "size" : 4,
   "source_file" : "/frameworks/av/media/codec2/core/include/C2Config.h",
   "underlying_type" : "type-2",
   "unique_id" : "_ZTS8c2_set_t"
  },
  {
   "alignment" : 4,
   "enum_fields" :
   [
    {
     "enum_field_value" : 0,
     "name" : "C2_OK"
    },
    {
     "enum_field_value" : 22,
     "name" : "C2_BAD_VALUE"
    },
    {
     "enum_field_value" : 6,
     "name" : "C2_BAD_INDEX"
    },
    {
     "enum_field_value" : 95,
     "name" : "C2_CANNOT_DO"
    },
    {
     "enum_field_value" : 17,
     "name" : "C2_DUPLICATE"
    },
    {
     "enum_field_value" : 2,
     "name" : "C2_NOT_FOUND"
    },
    {
     "enum_field_value" : 1,
     "name" : "C2_BAD_STATE"
    },
    {
     "enum_field_value" : 11,
     "name" : "C2_BLOCKING"
    },
    {
     "enum_field_value" : 4,
     "name" : "C2_CANCELED"
    },
    {
     "enum_field_value" : 12,
     "name" : "C2_NO_MEMORY"
    },
    {
     "enum_field_value" : 13,
     "name" : "C2_REFUSED"
    },
    {
     "enum_field_value" : 110,
     "name" : "C2_TIMED_OUT"
    },
    {
     "enum_field_value" : 38,
     "name" : "C2_OMITTED"
    },
    {
     "enum_field_value" : 14,
     "name" : "C2_CORRUPTED"
    },
    {
     "enum_field_value" : 19,
     "name" : "C2_NO_INIT"
    }
   ],
   "linker_set_key" : "c2_status_t",
   "name" : "c2_status_t",
   "referenced_type" : "type-1222",
   "self_type" : "type-1222",
   "size" : 4,
   "source_file" : "/frameworks/av/media/codec2/core/include/C2.h",
   "underlying_type" : "type-19",
   "unique_id" : "_ZTS11c2_status_t"
  },
  {
   "alignment" : 4,
   "enum_fields" :
   [
    {
     "enum_field_value" : 0,
     "name" : "LOG_ID_MIN"
    },
    {
     "enum_field_value" : 0,
     "name" : "LOG_ID_MAIN"
    },
    {
     "enum_field_value" : 1,
     "name" : "LOG_ID_RADIO"
    },
    {
     "enum_field_value" : 2,
     "name" : "LOG_ID_EVENTS"
    },
    {
     "enum_field_value" : 3,
     "name" : "LOG_ID_SYSTEM"
    },
    {
     "enum_field_value" : 4,
     "name" : "LOG_ID_CRASH"
    },
    {
     "enum_field_value" : 5,
     "name" : "LOG_ID_STATS"
    },
    {
     "enum_field_value" : 6,
     "name" : "LOG_ID_SECURITY"
    },
    {
     "enum_field_value" : 7,
     "name" : "LOG_ID_KERNEL"
    },
    {
     "enum_field_value" : 8,
     "name" : "LOG_ID_MAX"
    }
   ],
   "linker_set_key" : "log_id",
   "name" : "log_id",
   "referenced_type" : "type-1874",
   "self_type" : "type-1874",
   "size" : 4,
   "source_file" : "/system/core/liblog/include/android/log.h",
   "underlying_type" : "type-2",
   "unique_id" : "log_id"
  }
 ],
 "function_types" :
 [
  {
   "alignment" : 4,
   "linker_set_key" : "int (alloc_device_t *, const native_handle *)",
   "name" : "int (alloc_device_t *, const native_handle *)",
   "parameters" :
   [
    {
     "referenced_type" : "type-1609"
    },
    {
     "referenced_type" : "type-343"
    }
   ],
   "referenced_type" : "type-1612",
   "return_type" : "type-19",
   "self_type" : "type-1612",
   "source_file" : "/hardware/libhardware/include/hardware/gralloc.h"
  },
  {
   "alignment" : 4,
   "linker_set_key" : "int (alloc_device_t *, int, int, int, int, const native_handle **, int *)",
   "name" : "int (alloc_device_t *, int, int, int, int, const native_handle **, int *)",
   "parameters" :
   [
    {
     "referenced_type" : "type-1609"
    },
    {
     "referenced_type" : "type-19"
    },
    {
     "referenced_type" : "type-19"
    },
    {
     "referenced_type" : "type-19"
    },
    {
     "referenced_type" : "type-19"
    },
    {
     "referenced_type" : "type-1610"
    },
    {
     "referenced_type" : "type-1170"
    }
   ],
   "referenced_type" : "type-1608",
   "return_type" : "type-19",
   "self_type" : "type-1608",
   "source_file" : "/hardware/libhardware/include/hardware/gralloc.h"
  },
  {
   "alignment" : 4,
   "linker_set_key" : "int (const gralloc_module_t *, const native_handle *)",
   "name" : "int (const gralloc_module_t *, const native_handle *)",
   "parameters" :
   [
    {
     "referenced_type" : "type-1588"
    },
    {
     "referenced_type" : "type-343"
    }
   ],
   "referenced_type" : "type-1587",
   "return_type" : "type-19",
   "self_type" : "type-1587",
   "source_file" : "/hardware/libhardware/include/hardware/gralloc.h"
  },
  {
   "alignment" : 4,
   "linker_set_key" : "int (const gralloc_module_t *, const native_handle *, int *)",
   "name" : "int (const gralloc_module_t *, const native_handle *, int *)",
   "parameters" :
   [
    {
     "referenced_type" : "type-1588"
    },
    {
     "referenced_type" : "type-343"
    },
    {
     "referenced_type" : "type-1170"
    }
   ],
   "referenced_type" : "type-1601",
   "return_type" : "type-19",
   "self_type" : "type-1601",
   "source_file" : "/hardware/libhardware/include/hardware/gralloc.h"
  },
  {
   "alignment" : 4,
   "linker_set_key" : "int (const gralloc_module_t *, const native_handle *, int, int, int, int, int, android_ycbcr *)",
   "name" : "int (const gralloc_module_t *, const native_handle *, int, int, int, int, int, android_ycbcr *)",
   "parameters" :
   [
    {
     "referenced_type" : "type-1588"
    },
    {
     "referenced_type" : "type-343"
    },
    {
     "referenced_type" : "type-19"
    },
    {
     "referenced_type" : "type-19"
    },
    {
     "referenced_type" : "type-19"
    },
    {
     "referenced_type" : "type-19"
    },
    {
     "referenced_type" : "type-19"
    },
    {
     "referenced_type" : "type-1597"
    }
   ],
   "referenced_type" : "type-1596",
   "return_type" : "type-19",
   "self_type" : "type-1596",
   "source_file" : "/hardware/libhardware/include/hardware/gralloc.h"
  },
  {
   "alignment" : 4,
   "linker_set_key" : "int (const gralloc_module_t *, const native_handle *, int, int, int, int, int, android_ycbcr *, int)",
   "name" : "int (const gralloc_module_t *, const native_handle *, int, int, int, int, int, android_ycbcr *, int)",
   "parameters" :
   [
    {
     "referenced_type" : "type-1588"
    },
    {
     "referenced_type" : "type-343"
    },
    {
     "referenced_type" : "type-19"
    },
    {
     "referenced_type" : "type-19"
    },
    {
     "referenced_type" : "type-19"
    },
    {
     "referenced_type" : "type-19"
    },
    {
     "referenced_type" : "type-19"
    },
    {
     "referenced_type" : "type-1597"
    },
    {
     "referenced_type" : "type-19"
    }
   ],
   "referenced_type" : "type-1603",
   "return_type" : "type-19",
   "self_type" : "type-1603",
   "source_file" : "/hardware/libhardware/include/hardware/gralloc.h"
  },
  {
   "alignment" : 4,
   "linker_set_key" : "int (const gralloc_module_t *, const native_handle *, int, int, int, int, int, void **)",
   "name" : "int (const gralloc_module_t *, const native_handle *, int, int, int, int, int, void **)",
   "parameters" :
   [
    {
     "referenced_type" : "type-1588"
    },
    {
     "referenced_type" : "type-343"
    },
    {
     "referenced_type" : "type-19"
    },
    {
     "referenced_type" : "type-19"
    },
    {
     "referenced_type" : "type-19"
    },
    {
     "referenced_type" : "type-19"
    },
    {
     "referenced_type" : "type-19"
    },
    {
     "referenced_type" : "type-1592"
    }
   ],
   "referenced_type" : "type-1591",
   "return_type" : "type-19",
   "self_type" : "type-1591",
   "source_file" : "/hardware/libhardware/include/hardware/gralloc.h"
  },
  {
   "alignment" : 4,
   "linker_set_key" : "int (const gralloc_module_t *, const native_handle *, int, int, int, int, int, void **, int)",
   "name" : "int (const gralloc_module_t *, const native_handle *, int, int, int, int, int, void **, int)",
   "parameters" :
   [
    {
     "referenced_type" : "type-1588"
    },
    {
     "referenced_type" : "type-343"
    },
    {
     "referenced_type" : "type-19"
    },
    {
     "referenced_type" : "type-19"
    },
    {
     "referenced_type" : "type-19"
    },
    {
     "referenced_type" : "type-19"
    },
    {
     "referenced_type" : "type-19"
    },
    {
     "referenced_type" : "type-1592"
    },
    {
     "referenced_type" : "type-19"
    }
   ],
   "referenced_type" : "type-1599",
   "return_type" : "type-19",
   "self_type" : "type-1599",
   "source_file" : "/hardware/libhardware/include/hardware/gralloc.h"
  },
  {
   "alignment" : 4,
   "linker_set_key" : "int (const gralloc_module_t *, int, ...)",
   "name" : "int (const gralloc_module_t *, int, ...)",
   "parameters" :
   [
    {
     "referenced_type" : "type-1588"
    },
    {
     "referenced_type" : "type-19"
    }
   ],
   "referenced_type" : "type-1594",
   "return_type" : "type-19",
   "self_type" : "type-1594",
   "source_file" : "/hardware/libhardware/include/hardware/gralloc.h"
  },
  {
   "alignment" : 4,
   "linker_set_key" : "int (const hw_module_t *, const char *, hw_device_t **)",
   "name" : "int (const hw_module_t *, const char *, hw_device_t **)",
   "parameters" :
   [
    {
     "referenced_type" : "type-1549"
    },
    {
     "referenced_type" : "type-348"
    },
    {
     "referenced_type" : "type-1551"
    }
   ],
   "referenced_type" : "type-1548",
   "return_type" : "type-19",
   "self_type" : "type-1548",
   "source_file" : "/hardware/libhardware/include/hardware/hardware.h"
  },
  {
   "alignment" : 4,
   "linker_set_key" : "int (framebuffer_device_t *)",
   "name" : "int (framebuffer_device_t *)",
   "parameters" :
   [
    {
     "referenced_type" : "type-1572"
    }
   ],
   "referenced_type" : "type-1578",
   "return_type" : "type-19",
   "self_type" : "type-1578",
   "source_file" : "/hardware/libhardware/include/hardware/fb.h"
  },
  {
   "alignment" : 4,
   "linker_set_key" : "int (framebuffer_device_t *, const native_handle *)",
   "name" : "int (framebuffer_device_t *, const native_handle *)",
   "parameters" :
   [
    {
     "referenced_type" : "type-1572"
    },
    {
     "referenced_type" : "type-343"
    }
   ],
   "referenced_type" : "type-1576",
   "return_type" : "type-19",
   "self_type" : "type-1576",
   "source_file" : "/hardware/libhardware/include/hardware/fb.h"
  },
  {
   "alignment" : 4,
   "linker_set_key" : "int (framebuffer_device_t *, int)",
   "name" : "int (framebuffer_device_t *, int)",
   "parameters" :
   [
    {
     "referenced_type" : "type-1572"
    },
    {
     "referenced_type" : "type-19"
    }
   ],
   "referenced_type" : "type-1571",
   "return_type" : "type-19",
   "self_type" : "type-1571",
   "source_file" : "/hardware/libhardware/include/hardware/fb.h"
  },
  {
   "alignment" : 4,
   "linker_set_key" : "int (framebuffer_device_t *, int, int, int, int)",
   "name" : "int (framebuffer_device_t *, int, int, int, int)",
   "parameters" :
   [
    {
     "referenced_type" : "type-1572"
    },
    {
     "referenced_type" : "type-19"
    },
    {
     "referenced_type" : "type-19"
    },
    {
     "referenced_type" : "type-19"
    },
    {
     "referenced_type" : "type-19"
    }
   ],
   "referenced_type" : "type-1574",
   "return_type" : "type-19",
   "self_type" : "type-1574",
   "source_file" : "/hardware/libhardware/include/hardware/fb.h"
  },
  {
   "alignment" : 4,
   "linker_set_key" : "int (hw_device_t *)",
   "name" : "int (hw_device_t *)",
   "parameters" :
   [
    {
     "referenced_type" : "type-1552"
    }
   ],
   "referenced_type" : "type-1557",
   "return_type" : "type-19",
   "self_type" : "type-1557",
   "source_file" : "/hardware/libhardware/include/hardware/hardware.h"
  },
  {
   "alignment" : 4,
   "linker_set_key" : "int (void *)",
   "name" : "int (void *)",
   "parameters" :
   [
    {
     "referenced_type" : "type-1467"
    }
   ],
   "referenced_type" : "type-2215",
   "return_type" : "type-19",
   "self_type" : "type-2215",
   "source_file" : "/system/core/libutils/include/utils/AndroidThreads.h"
  },
  {
   "alignment" : 4,
   "linker_set_key" : "void (alloc_device_t *, char *, int)",
   "name" : "void (alloc_device_t *, char *, int)",
   "parameters" :
   [
    {
     "referenced_type" : "type-1609"
    },
    {
     "referenced_type" : "type-1581"
    },
    {
     "referenced_type" : "type-19"
    }
   ],
   "referenced_type" : "type-1614",
   "return_type" : "type-27",
   "self_type" : "type-1614",
   "source_file" : "/hardware/libhardware/include/hardware/gralloc.h"
  },
  {
   "alignment" : 4,
   "linker_set_key" : "void (android::hardware::Parcel *, const unsigned char *, unsigned long, const unsigned long long *, unsigned long, void *)",
   "name" : "void (android::hardware::Parcel *, const unsigned char *, unsigned long, const unsigned long long *, unsigned long, void *)",
   "parameters" :
   [
    {
     "referenced_type" : "type-3729"
    },
    {
     "referenced_type" : "type-3730"
    },
    {
     "referenced_type" : "type-221"
    },
    {
     "referenced_type" : "type-3731"
    },
    {
     "referenced_type" : "type-221"
    },
    {
     "referenced_type" : "type-1467"
    }
   ],
   "referenced_type" : "type-3728",
   "return_type" : "type-27",
   "self_type" : "type-3728",
   "source_file" : "/system/libhwbinder/include/hwbinder/Parcel.h"
  },
  {
   "alignment" : 4,
   "linker_set_key" : "void (android_native_base_t *)",
   "name" : "void (android_native_base_t *)",
   "parameters" :
   [
    {
     "referenced_type" : "type-2043"
    }
   ],
   "referenced_type" : "type-2042",
   "return_type" : "type-27",
   "self_type" : "type-2042",
   "source_file" : "/frameworks/native/libs/nativebase/include/nativebase/nativebase.h"
  },
  {
   "alignment" : 4,
   "linker_set_key" : "void (framebuffer_device_t *, char *, int)",
   "name" : "void (framebuffer_device_t *, char *, int)",
   "parameters" :
   [
    {
     "referenced_type" : "type-1572"
    },
    {
     "referenced_type" : "type-1581"
    },
    {
     "referenced_type" : "type-19"
    }
   ],
   "referenced_type" : "type-1580",
   "return_type" : "type-27",
   "self_type" : "type-1580",
   "source_file" : "/hardware/libhardware/include/hardware/fb.h"
  }
 ],
 "functions" :
 [
  {
   "function_name" : "android::hardware::media::c2::V1_0::utils::toC2Status",
   "linker_set_key" : "_ZN7android8hardware5media2c24V1_05utils10toC2StatusENS1_10bufferpool4V2_012ResultStatusE",
   "parameters" :
   [
    {
     "referenced_type" : "type-815"
    }
   ],
   "return_type" : "type-1222",
   "source_file" : "/frameworks/av/media/codec2/hidl/1.0/utils/include/codec2/hidl/1.0/types.h"
  },
  {
   "function_name" : "android::hardware::media::c2::V1_0::utils::InputSurface::getConfigurable",
   "linker_set_key" : "_ZN7android8hardware5media2c24V1_05utils12InputSurface15getConfigurableEv",
   "parameters" :
   [
    {
     "is_this_ptr" : true,
     "referenced_type" : "type-2319"
    }
   ],
   "return_type" : "type-4436",
   "source_file" : "/frameworks/av/media/codec2/hidl/1.0/utils/include/codec2/hidl/1.0/InputSurface.h"
  },
  {
   "function_name" : "android::hardware::media::c2::V1_0::utils::InputSurface::getGraphicBufferProducer",
   "linker_set_key" : "_ZN7android8hardware5media2c24V1_05utils12InputSurface24getGraphicBufferProducerEv",
   "parameters" :
   [
    {
     "is_this_ptr" : true,
     "referenced_type" : "type-2319"
    }
   ],
   "return_type" : "type-3358",
   "source_file" : "/frameworks/av/media/codec2/hidl/1.0/utils/include/codec2/hidl/1.0/InputSurface.h"
  },
  {
   "function_name" : "android::hardware::media::c2::V1_0::utils::InputSurface::connect",
   "linker_set_key" : "_ZN7android8hardware5media2c24V1_05utils12InputSurface7connectERKNS_2spINS3_10IInputSinkEEENSt3__18functionIFvNS3_6StatusERKNS6_INS3_23IInputSurfaceConnectionEEEEEE",
   "parameters" :
   [
    {
     "is_this_ptr" : true,
     "referenced_type" : "type-2319"
    },
    {
     "referenced_type" : "type-4273"
    },
    {
     "referenced_type" : "type-4555"
    }
   ],
   "return_type" : "type-43",
   "source_file" : "/frameworks/av/media/codec2/hidl/1.0/utils/include/codec2/hidl/1.0/InputSurface.h"
  },
  {
   "access" : "protected",
   "function_name" : "android::hardware::media::c2::V1_0::utils::InputSurface::InputSurface",
   "linker_set_key" : "_ZN7android8hardware5media2c24V1_05utils12InputSurfaceC1ERKNS_2spINS4_14ComponentStoreEEERKNSt3__110shared_ptrI17C2ReflectorHelperEERKNS6_INS0_8graphics11bufferqueue4V2_022IGraphicBufferProducerEEERKNS6_INS_19GraphicBufferSourceEEE",
   "parameters" :
   [
    {
     "is_this_ptr" : true,
     "referenced_type" : "type-2319"
    },
    {
     "referenced_type" : "type-4378"
    },
    {
     "referenced_type" : "type-3160"
    },
    {
     "referenced_type" : "type-3555"
    },
    {
     "referenced_type" : "type-3301"
    }
   ],
   "return_type" : "type-27",
   "source_file" : "/frameworks/av/media/codec2/hidl/1.0/utils/include/codec2/hidl/1.0/InputSurface.h"
  },
  {
   "access" : "protected",
   "function_name" : "android::hardware::media::c2::V1_0::utils::InputSurface::InputSurface",
   "linker_set_key" : "_ZN7android8hardware5media2c24V1_05utils12InputSurfaceC2ERKNS_2spINS4_14ComponentStoreEEERKNSt3__110shared_ptrI17C2ReflectorHelperEERKNS6_INS0_8graphics11bufferqueue4V2_022IGraphicBufferProducerEEERKNS6_INS_19GraphicBufferSourceEEE",
   "parameters" :
   [
    {
     "is_this_ptr" : true,
     "referenced_type" : "type-2319"
    },
    {
     "referenced_type" : "type-4378"
    },
    {
     "referenced_type" : "type-3160"
    },
    {
     "referenced_type" : "type-3555"
    },
    {
     "referenced_type" : "type-3301"
    }
   ],
   "return_type" : "type-27",
   "source_file" : "/frameworks/av/media/codec2/hidl/1.0/utils/include/codec2/hidl/1.0/InputSurface.h"
  },
  {
   "function_name" : "android::hardware::media::c2::V1_0::utils::ComponentStore::copyBuffer",
   "linker_set_key" : "_ZN7android8hardware5media2c24V1_05utils14ComponentStore10copyBufferERKNS3_6BufferES8_",
   "parameters" :
   [
    {
     "is_this_ptr" : true,
     "referenced_type" : "type-2322"
    },
    {
     "referenced_type" : "type-3847"
    },
    {
     "referenced_type" : "type-3847"
    }
   ],
   "return_type" : "type-3625",
   "source_file" : "/frameworks/av/media/codec2/hidl/1.0/utils/include/codec2/hidl/1.0/ComponentStore.h"
  },
  {
   "function_name" : "android::hardware::media::c2::V1_0::utils::ComponentStore::listComponents",
   "linker_set_key" : "_ZN7android8hardware5media2c24V1_05utils14ComponentStore14listComponentsENSt3__18functionIFvNS3_6StatusERKNS0_8hidl_vecINS3_15IComponentStore15ComponentTraitsEEEEEE",
   "parameters" :
   [
    {
     "is_this_ptr" : true,
     "referenced_type" : "type-2322"
    },
    {
     "referenced_type" : "type-4556"
    }
   ],
   "return_type" : "type-43",
   "source_file" : "/frameworks/av/media/codec2/hidl/1.0/utils/include/codec2/hidl/1.0/ComponentStore.h"
  },
  {
   "function_name" : "android::hardware::media::c2::V1_0::utils::ComponentStore::createComponent",
   "linker_set_key" : "_ZN7android8hardware5media2c24V1_05utils14ComponentStore15createComponentERKNS0_11hidl_stringERKNS_2spINS3_18IComponentListenerEEERKNS9_INS1_10bufferpool4V2_014IClientManagerEEENSt3__18functionIFvNS3_6StatusERKNS9_INS3_10IComponentEEEEEE",
   "parameters" :
   [
    {
     "is_this_ptr" : true,
     "referenced_type" : "type-2322"
    },
    {
     "referenced_type" : "type-3945"
    },
    {
     "referenced_type" : "type-4047"
    },
    {
     "referenced_type" : "type-3379"
    },
    {
     "referenced_type" : "type-4557"
    }
   ],
   "return_type" : "type-43",
   "source_file" : "/frameworks/av/media/codec2/hidl/1.0/utils/include/codec2/hidl/1.0/ComponentStore.h"
  },
  {
   "function_name" : "android::hardware::media::c2::V1_0::utils::ComponentStore::createInterface",
   "linker_set_key" : "_ZN7android8hardware5media2c24V1_05utils14ComponentStore15createInterfaceERKNS0_11hidl_stringENSt3__18functionIFvNS3_6StatusERKNS_2spINS3_19IComponentInterfaceEEEEEE",
   "parameters" :
   [
    {
     "is_this_ptr" : true,
     "referenced_type" : "type-2322"
    },
    {
     "referenced_type" : "type-3945"
    },
    {
     "referenced_type" : "type-4558"
    }
   ],
   "return_type" : "type-43",
   "source_file" : "/frameworks/av/media/codec2/hidl/1.0/utils/include/codec2/hidl/1.0/ComponentStore.h"
  },
  {
   "function_name" : "android::hardware::media::c2::V1_0::utils::ComponentStore::getConfigurable",
   "linker_set_key" : "_ZN7android8hardware5media2c24V1_05utils14ComponentStore15getConfigurableEv",
   "parameters" :
   [
    {
     "is_this_ptr" : true,
     "referenced_type" : "type-2322"
    }
   ],
   "return_type" : "type-4436",
   "source_file" : "/frameworks/av/media/codec2/hidl/1.0/utils/include/codec2/hidl/1.0/ComponentStore.h"
  },
  {
   "access" : "protected",
   "function_name" : "android::hardware::media::c2::V1_0::utils::ComponentStore::onInterfaceLoaded",
   "linker_set_key" : "_ZN7android8hardware5media2c24V1_05utils14ComponentStore17onInterfaceLoadedERKNSt3__110shared_ptrI20C2ComponentInterfaceEE",
   "parameters" :
   [
    {
     "is_this_ptr" : true,
     "referenced_type" : "type-2322"
    },
    {
     "referenced_type" : "type-1978"
    }
   ],
   "return_type" : "type-27",
   "source_file" : "/frameworks/av/media/codec2/hidl/1.0/utils/include/codec2/hidl/1.0/ComponentStore.h"
  },
  {
   "function_name" : "android::hardware::media::c2::V1_0::utils::ComponentStore::createInputSurface",
   "linker_set_key" : "_ZN7android8hardware5media2c24V1_05utils14ComponentStore18createInputSurfaceENSt3__18functionIFvNS3_6StatusERKNS_2spINS3_13IInputSurfaceEEEEEE",
   "parameters" :
   [
    {
     "is_this_ptr" : true,
     "referenced_type" : "type-2322"
    },
    {
     "referenced_type" : "type-4559"
    }
   ],
   "return_type" : "type-43",
   "source_file" : "/frameworks/av/media/codec2/hidl/1.0/utils/include/codec2/hidl/1.0/ComponentStore.h"
  },
  {
   "function_name" : "android::hardware::media::c2::V1_0::utils::ComponentStore::getPoolClientManager",
   "linker_set_key" : "_ZN7android8hardware5media2c24V1_05utils14ComponentStore20getPoolClientManagerEv",
   "parameters" :
   [
    {
     "is_this_ptr" : true,
     "referenced_type" : "type-2322"
    }
   ],
   "return_type" : "type-2423",
   "source_file" : "/frameworks/av/media/codec2/hidl/1.0/utils/include/codec2/hidl/1.0/ComponentStore.h"
  },
  {
   "function_name" : "android::hardware::media::c2::V1_0::utils::ComponentStore::getStructDescriptors",
   "linker_set_key" : "_ZN7android8hardware5media2c24V1_05utils14ComponentStore20getStructDescriptorsERKNS0_8hidl_vecIjEENSt3__18functionIFvNS3_6StatusERKNS6_INS3_16StructDescriptorEEEEEE",
   "parameters" :
   [
    {
     "is_this_ptr" : true,
     "referenced_type" : "type-2322"
    },
    {
     "referenced_type" : "type-418"
    },
    {
     "referenced_type" : "type-4560"
    }
   ],
   "return_type" : "type-43",
   "source_file" : "/frameworks/av/media/codec2/hidl/1.0/utils/include/codec2/hidl/1.0/ComponentStore.h"
  },
  {
   "access" : "protected",
   "function_name" : "android::hardware::media::c2::V1_0::utils::ComponentStore::reportComponentBirth",
   "linker_set_key" : "_ZN7android8hardware5media2c24V1_05utils14ComponentStore20reportComponentBirthEPNS4_9ComponentE",
   "parameters" :
   [
    {
     "is_this_ptr" : true,
     "referenced_type" : "type-2322"
    },
    {
     "referenced_type" : "type-2344"
    }
   ],
   "return_type" : "type-27",
   "source_file" : "/frameworks/av/media/codec2/hidl/1.0/utils/include/codec2/hidl/1.0/ComponentStore.h"
  },
  {
   "access" : "protected",
   "function_name" : "android::hardware::media::c2::V1_0::utils::ComponentStore::reportComponentDeath",
   "linker_set_key" : "_ZN7android8hardware5media2c24V1_05utils14ComponentStore20reportComponentDeathEPNS4_9ComponentE",
   "parameters" :
   [
    {
     "is_this_ptr" : true,
     "referenced_type" : "type-2322"
    },
    {
     "referenced_type" : "type-2344"
    }
   ],
   "return_type" : "type-27",
   "source_file" : "/frameworks/av/media/codec2/hidl/1.0/utils/include/codec2/hidl/1.0/ComponentStore.h"
  },
  {
   "function_name" : "android::hardware::media::c2::V1_0::utils::ComponentStore::validateSupportedParams",
   "linker_set_key" : "_ZN7android8hardware5media2c24V1_05utils14ComponentStore23validateSupportedParamsERKNSt3__16vectorINS6_10shared_ptrI17C2ParamDescriptorEENS6_9allocatorISA_EEEE",
   "parameters" :
   [
    {
     "is_this_ptr" : true,
     "referenced_type" : "type-2322"
    },
    {
     "referenced_type" : "type-1975"
    }
   ],
   "return_type" : "type-1222",
   "source_file" : "/frameworks/av/media/codec2/hidl/1.0/utils/include/codec2/hidl/1.0/ComponentStore.h"
  },
  {
   "access" : "protected",
   "function_name" : "android::hardware::media::c2::V1_0::utils::ComponentStore::dump",
   "linker_set_key" : "_ZN7android8hardware5media2c24V1_05utils14ComponentStore4dumpERNSt3__113basic_ostreamIcNS6_11char_traitsIcEEEERKNS6_10shared_ptrIKN11C2Component6TraitsEEE",
   "parameters" :
   [
    {
     "is_this_ptr" : true,
     "referenced_type" : "type-2322"
    },
    {
     "referenced_type" : "type-2441"
    },
    {
     "referenced_type" : "type-1981"
    }
   ],
   "return_type" : "type-2441",
   "source_file" : "/frameworks/av/media/codec2/hidl/1.0/utils/include/codec2/hidl/1.0/ComponentStore.h"
  },
  {
   "access" : "protected",
   "function_name" : "android::hardware::media::c2::V1_0::utils::ComponentStore::dump",
   "linker_set_key" : "_ZN7android8hardware5media2c24V1_05utils14ComponentStore4dumpERNSt3__113basic_ostreamIcNS6_11char_traitsIcEEEERNS5_15ComponentStatusE",
   "parameters" :
   [
    {
     "is_this_ptr" : true,
     "referenced_type" : "type-2322"
    },
    {
     "referenced_type" : "type-2441"
    },
    {
     "referenced_type" : "type-1982"
    }
   ],
   "return_type" : "type-2441",
   "source_file" : "/frameworks/av/media/codec2/hidl/1.0/utils/include/codec2/hidl/1.0/ComponentStore.h"
  },
  {
   "function_name" : "android::hardware::media::c2::V1_0::utils::ComponentStore::debug",
   "linker_set_key" : "_ZN7android8hardware5media2c24V1_05utils14ComponentStore5debugERKNS0_11hidl_handleERKNS0_8hidl_vecINS0_11hidl_stringEEE",
   "parameters" :
   [
    {
     "is_this_ptr" : true,
     "referenced_type" : "type-2322"
    },
    {
     "referenced_type" : "type-794"
    },
    {
     "referenced_type" : "type-642"
    }
   ],
   "return_type" : "type-43",
   "source_file" : "/frameworks/av/media/codec2/hidl/1.0/utils/include/codec2/hidl/1.0/ComponentStore.h"
  },
  {
   "function_name" : "android::hardware::media::c2::V1_0::utils::ComponentStore::ComponentStore",
   "linker_set_key" : "_ZN7android8hardware5media2c24V1_05utils14ComponentStoreC1ERKNSt3__110shared_ptrI16C2ComponentStoreEE",
   "parameters" :
   [
    {
     "is_this_ptr" : true,
     "referenced_type" : "type-2322"
    },
    {
     "referenced_type" : "type-1960"
    }
   ],
   "return_type" : "type-27",
   "source_file" : "/frameworks/av/media/codec2/hidl/1.0/utils/include/codec2/hidl/1.0/ComponentStore.h"
  },
  {
   "function_name" : "android::hardware::media::c2::V1_0::utils::ComponentStore::ComponentStore",
   "linker_set_key" : "_ZN7android8hardware5media2c24V1_05utils14ComponentStoreC2ERKNSt3__110shared_ptrI16C2ComponentStoreEE",
   "parameters" :
   [
    {
     "is_this_ptr" : true,
     "referenced_type" : "type-2322"
    },
    {
     "referenced_type" : "type-1960"
    }
   ],
   "return_type" : "type-27",
   "source_file" : "/frameworks/av/media/codec2/hidl/1.0/utils/include/codec2/hidl/1.0/ComponentStore.h"
  },
  {
   "function_name" : "android::hardware::media::c2::V1_0::utils::parseParamsBlob",
   "linker_set_key" : "_ZN7android8hardware5media2c24V1_05utils15parseParamsBlobEPNSt3__16vectorIP7C2ParamNS5_9allocatorIS8_EEEERKNS0_8hidl_vecIhEE",
   "parameters" :
   [
    {
     "referenced_type" : "type-1280"
    },
    {
     "referenced_type" : "type-759"
    }
   ],
   "return_type" : "type-21",
   "source_file" : "/frameworks/av/media/codec2/hidl/1.0/utils/include/codec2/hidl/1.0/types.h"
  },
  {
   "function_name" : "android::hardware::media::c2::V1_0::utils::createParamsBlob",
   "linker_set_key" : "_ZN7android8hardware5media2c24V1_05utils16createParamsBlobEPNS0_8hidl_vecIhEERKNSt3__16vectorINS8_10shared_ptrIK6C2InfoEENS8_9allocatorISD_EEEE",
   "parameters" :
   [
    {
     "referenced_type" : "type-394"
    },
    {
     "referenced_type" : "type-1290"
    }
   ],
   "return_type" : "type-21",
   "source_file" : "/frameworks/av/media/codec2/hidl/1.0/utils/include/codec2/hidl/1.0/types.h"
  },
  {
   "function_name" : "android::hardware::media::c2::V1_0::utils::createParamsBlob",
   "linker_set_key" : "_ZN7android8hardware5media2c24V1_05utils16createParamsBlobEPNS0_8hidl_vecIhEERKNSt3__16vectorINS8_10unique_ptrI7C2ParamNS8_14default_deleteISB_EEEENS8_9allocatorISE_EEEE",
   "parameters" :
   [
    {
     "referenced_type" : "type-394"
    },
    {
     "referenced_type" : "type-1287"
    }
   ],
   "return_type" : "type-21",
   "source_file" : "/frameworks/av/media/codec2/hidl/1.0/utils/include/codec2/hidl/1.0/types.h"
  },
  {
   "function_name" : "android::hardware::media::c2::V1_0::utils::createParamsBlob",
   "linker_set_key" : "_ZN7android8hardware5media2c24V1_05utils16createParamsBlobEPNS0_8hidl_vecIhEERKNSt3__16vectorINS8_10unique_ptrI8C2TuningNS8_14default_deleteISB_EEEENS8_9allocatorISE_EEEE",
   "parameters" :
   [
    {
     "referenced_type" : "type-394"
    },
    {
     "referenced_type" : "type-1293"
    }
   ],
   "return_type" : "type-21",
   "source_file" : "/frameworks/av/media/codec2/hidl/1.0/utils/include/codec2/hidl/1.0/types.h"
  },
  {
   "function_name" : "android::hardware::media::c2::V1_0::utils::createParamsBlob",
   "linker_set_key" : "_ZN7android8hardware5media2c24V1_05utils16createParamsBlobEPNS0_8hidl_vecIhEERKNSt3__16vectorIP7C2ParamNS8_9allocatorISB_EEEE",
   "parameters" :
   [
    {
     "referenced_type" : "type-394"
    },
    {
     "referenced_type" : "type-1284"
    }
   ],
   "return_type" : "type-21",
   "source_file" : "/frameworks/av/media/codec2/hidl/1.0/utils/include/codec2/hidl/1.0/types.h"
  },
  {
   "function_name" : "android::hardware::media::c2::V1_0::utils::CachedConfigurable::querySupportedParams",
   "linker_set_key" : "_ZN7android8hardware5media2c24V1_05utils18CachedConfigurable20querySupportedParamsEjjNSt3__18functionIFvNS3_6StatusERKNS0_8hidl_vecINS3_15ParamDescriptorEEEEEE",
   "parameters" :
   [
    {
     "is_this_ptr" : true,
     "referenced_type" : "type-1733"
    },
    {
     "referenced_type" : "type-2"
    },
    {
     "referenced_type" : "type-2"
    },
    {
     "referenced_type" : "type-4561"
    }
   ],
   "return_type" : "type-43",
   "source_file" : "/frameworks/av/media/codec2/hidl/1.0/utils/include/codec2/hidl/1.0/Configurable.h"
  },
  {
   "function_name" : "android::hardware::media::c2::V1_0::utils::CachedConfigurable::querySupportedValues",
   "linker_set_key" : "_ZN7android8hardware5media2c24V1_05utils18CachedConfigurable20querySupportedValuesERKNS0_8hidl_vecINS3_25FieldSupportedValuesQueryEEEbNSt3__18functionIFvNS3_6StatusERKNS6_INS3_31FieldSupportedValuesQueryResultEEEEEE",
   "parameters" :
   [
    {
     "is_this_ptr" : true,
     "referenced_type" : "type-1733"
    },
    {
     "referenced_type" : "type-2527"
    },
    {
     "referenced_type" : "type-21"
    },
    {
     "referenced_type" : "type-4562"
    }
   ],
   "return_type" : "type-43",
   "source_file" : "/frameworks/av/media/codec2/hidl/1.0/utils/include/codec2/hidl/1.0/Configurable.h"
  },
  {
   "function_name" : "android::hardware::media::c2::V1_0::utils::CachedConfigurable::init",
   "linker_set_key" : "_ZN7android8hardware5media2c24V1_05utils18CachedConfigurable4initEPNS4_14ComponentStoreE",
   "parameters" :
   [
    {
     "is_this_ptr" : true,
     "referenced_type" : "type-1733"
    },
    {
     "referenced_type" : "type-2322"
    }
   ],
   "return_type" : "type-1222",
   "source_file" : "/frameworks/av/media/codec2/hidl/1.0/utils/include/codec2/hidl/1.0/Configurable.h"
  },
  {
   "function_name" : "android::hardware::media::c2::V1_0::utils::CachedConfigurable::getId",
   "linker_set_key" : "_ZN7android8hardware5media2c24V1_05utils18CachedConfigurable5getIdEv",
   "parameters" :
   [
    {
     "is_this_ptr" : true,
     "referenced_type" : "type-1733"
    }
   ],
   "return_type" : "type-2669",
   "source_file" : "/frameworks/av/media/codec2/hidl/1.0/utils/include/codec2/hidl/1.0/Configurable.h"
  },
  {
   "function_name" : "android::hardware::media::c2::V1_0::utils::CachedConfigurable::query",
   "linker_set_key" : "_ZN7android8hardware5media2c24V1_05utils18CachedConfigurable5queryERKNS0_8hidl_vecIjEEbNSt3__18functionIFvNS3_6StatusERKNS6_IhEEEEE",
   "parameters" :
   [
    {
     "is_this_ptr" : true,
     "referenced_type" : "type-1733"
    },
    {
     "referenced_type" : "type-418"
    },
    {
     "referenced_type" : "type-21"
    },
    {
     "referenced_type" : "type-4563"
    }
   ],
   "return_type" : "type-43",
   "source_file" : "/frameworks/av/media/codec2/hidl/1.0/utils/include/codec2/hidl/1.0/Configurable.h"
  },
  {
   "function_name" : "android::hardware::media::c2::V1_0::utils::CachedConfigurable::config",
   "linker_set_key" : "_ZN7android8hardware5media2c24V1_05utils18CachedConfigurable6configERKNS0_8hidl_vecIhEEbNSt3__18functionIFvNS3_6StatusERKNS6_INS3_13SettingResultEEES9_EEE",
   "parameters" :
   [
    {
     "is_this_ptr" : true,
     "referenced_type" : "type-1733"
    },
    {
     "referenced_type" : "type-759"
    },
    {
     "referenced_type" : "type-21"
    },
    {
     "referenced_type" : "type-4564"
    }
   ],
   "return_type" : "type-43",
   "source_file" : "/frameworks/av/media/codec2/hidl/1.0/utils/include/codec2/hidl/1.0/Configurable.h"
  },
  {
   "function_name" : "android::hardware::media::c2::V1_0::utils::CachedConfigurable::getName",
   "linker_set_key" : "_ZN7android8hardware5media2c24V1_05utils18CachedConfigurable7getNameENSt3__18functionIFvRKNS0_11hidl_stringEEEE",
   "parameters" :
   [
    {
     "is_this_ptr" : true,
     "referenced_type" : "type-1733"
    },
    {
     "referenced_type" : "type-4565"
    }
   ],
   "return_type" : "type-43",
   "source_file" : "/frameworks/av/media/codec2/hidl/1.0/utils/include/codec2/hidl/1.0/Configurable.h"
  },
  {
   "function_name" : "android::hardware::media::c2::V1_0::utils::CachedConfigurable::CachedConfigurable",
   "linker_set_key" : "_ZN7android8hardware5media2c24V1_05utils18CachedConfigurableC1EONSt3__110unique_ptrINS4_18ConfigurableC2IntfENS6_14default_deleteIS8_EEEE",
   "parameters" :
   [
    {
     "is_this_ptr" : true,
     "referenced_type" : "type-1733"
    },
    {
     "referenced_type" : "type-2525"
    }
   ],
   "return_type" : "type-27",
   "source_file" : "/frameworks/av/media/codec2/hidl/1.0/utils/include/codec2/hidl/1.0/Configurable.h"
  },
  {
   "function_name" : "android::hardware::media::c2::V1_0::utils::CachedConfigurable::CachedConfigurable",
   "linker_set_key" : "_ZN7android8hardware5media2c24V1_05utils18CachedConfigurableC2EONSt3__110unique_ptrINS4_18ConfigurableC2IntfENS6_14default_deleteIS8_EEEE",
   "parameters" :
   [
    {
     "is_this_ptr" : true,
     "referenced_type" : "type-1733"
    },
    {
     "referenced_type" : "type-2525"
    }
   ],
   "return_type" : "type-27",
   "source_file" : "/frameworks/av/media/codec2/hidl/1.0/utils/include/codec2/hidl/1.0/Configurable.h"
  },
  {
   "function_name" : "android::hardware::media::c2::V1_0::utils::ComponentInterface::getConfigurable",
   "linker_set_key" : "_ZN7android8hardware5media2c24V1_05utils18ComponentInterface15getConfigurableEv",
   "parameters" :
   [
    {
     "is_this_ptr" : true,
     "referenced_type" : "type-2348"
    }
   ],
   "return_type" : "type-4436",
   "source_file" : "/frameworks/av/media/codec2/hidl/1.0/utils/include/codec2/hidl/1.0/ComponentInterface.h"
  },
  {
   "function_name" : "android::hardware::media::c2::V1_0::utils::ComponentInterface::ComponentInterface",
   "linker_set_key" : "_ZN7android8hardware5media2c24V1_05utils18ComponentInterfaceC1ERKNSt3__110shared_ptrI20C2ComponentInterfaceEEPNS4_14ComponentStoreE",
   "parameters" :
   [
    {
     "is_this_ptr" : true,
     "referenced_type" : "type-2348"
    },
    {
     "referenced_type" : "type-1728"
    },
    {
     "referenced_type" : "type-2322"
    }
   ],
   "return_type" : "type-27",
   "source_file" : "/frameworks/av/media/codec2/hidl/1.0/utils/include/codec2/hidl/1.0/ComponentInterface.h"
  },
  {
   "function_name" : "android::hardware::media::c2::V1_0::utils::ComponentInterface::ComponentInterface",
   "linker_set_key" : "_ZN7android8hardware5media2c24V1_05utils18ComponentInterfaceC2ERKNSt3__110shared_ptrI20C2ComponentInterfaceEEPNS4_14ComponentStoreE",
   "parameters" :
   [
    {
     "is_this_ptr" : true,
     "referenced_type" : "type-2348"
    },
    {
     "referenced_type" : "type-1728"
    },
    {
     "referenced_type" : "type-2322"
    }
   ],
   "return_type" : "type-27",
   "source_file" : "/frameworks/av/media/codec2/hidl/1.0/utils/include/codec2/hidl/1.0/ComponentInterface.h"
  },
  {
   "access" : "private",
   "function_name" : "android::hardware::media::c2::V1_0::utils::InputBufferManager::getInstance",
   "linker_set_key" : "_ZN7android8hardware5media2c24V1_05utils18InputBufferManager11getInstanceEv",
   "return_type" : "type-2802",
   "source_file" : "/frameworks/av/media/codec2/hidl/1.0/utils/include/codec2/hidl/1.0/InputBufferManager.h"
  },
  {
   "access" : "private",
   "function_name" : "android::hardware::media::c2::V1_0::utils::InputBufferManager::onBufferDestroyed",
   "linker_set_key" : "_ZN7android8hardware5media2c24V1_05utils18InputBufferManager17onBufferDestroyedEPK8C2BufferPv",
   "parameters" :
   [
    {
     "referenced_type" : "type-2798"
    },
    {
     "referenced_type" : "type-1467"
    }
   ],
   "return_type" : "type-27",
   "source_file" : "/frameworks/av/media/codec2/hidl/1.0/utils/include/codec2/hidl/1.0/InputBufferManager.h"
  },
  {
   "function_name" : "android::hardware::media::c2::V1_0::utils::InputBufferManager::registerFrameData",
   "linker_set_key" : "_ZN7android8hardware5media2c24V1_05utils18InputBufferManager17registerFrameDataERKNS_2spINS3_18IComponentListenerEEERK11C2FrameData",
   "parameters" :
   [
    {
     "referenced_type" : "type-4047"
    },
    {
     "referenced_type" : "type-2788"
    }
   ],
   "return_type" : "type-27",
   "source_file" : "/frameworks/av/media/codec2/hidl/1.0/utils/include/codec2/hidl/1.0/InputBufferManager.h"
  },
  {
   "access" : "private",
   "function_name" : "android::hardware::media::c2::V1_0::utils::InputBufferManager::_onBufferDestroyed",
   "linker_set_key" : "_ZN7android8hardware5media2c24V1_05utils18InputBufferManager18_onBufferDestroyedEPK8C2BufferPv",
   "parameters" :
   [
    {
     "is_this_ptr" : true,
     "referenced_type" : "type-2789"
    },
    {
     "referenced_type" : "type-2798"
    },
    {
     "referenced_type" : "type-1467"
    }
   ],
   "return_type" : "type-27",
   "source_file" : "/frameworks/av/media/codec2/hidl/1.0/utils/include/codec2/hidl/1.0/InputBufferManager.h"
  },
  {
   "access" : "private",
   "function_name" : "android::hardware::media::c2::V1_0::utils::InputBufferManager::_registerFrameData",
   "linker_set_key" : "_ZN7android8hardware5media2c24V1_05utils18InputBufferManager18_registerFrameDataERKNS_2spINS3_18IComponentListenerEEERK11C2FrameData",
   "parameters" :
   [
    {
     "is_this_ptr" : true,
     "referenced_type" : "type-2789"
    },
    {
     "referenced_type" : "type-4047"
    },
    {
     "referenced_type" : "type-2788"
    }
   ],
   "return_type" : "type-27",
   "source_file" : "/frameworks/av/media/codec2/hidl/1.0/utils/include/codec2/hidl/1.0/InputBufferManager.h"
  },
  {
   "function_name" : "android::hardware::media::c2::V1_0::utils::InputBufferManager::unregisterFrameData",
   "linker_set_key" : "_ZN7android8hardware5media2c24V1_05utils18InputBufferManager19unregisterFrameDataERKNS_2wpINS3_18IComponentListenerEEE",
   "parameters" :
   [
    {
     "referenced_type" : "type-4041"
    }
   ],
   "return_type" : "type-27",
   "source_file" : "/frameworks/av/media/codec2/hidl/1.0/utils/include/codec2/hidl/1.0/InputBufferManager.h"
  },
  {
   "function_name" : "android::hardware::media::c2::V1_0::utils::InputBufferManager::unregisterFrameData",
   "linker_set_key" : "_ZN7android8hardware5media2c24V1_05utils18InputBufferManager19unregisterFrameDataERKNS_2wpINS3_18IComponentListenerEEERK11C2FrameData",
   "parameters" :
   [
    {
     "referenced_type" : "type-4041"
    },
    {
     "referenced_type" : "type-2788"
    }
   ],
   "return_type" : "type-27",
   "source_file" : "/frameworks/av/media/codec2/hidl/1.0/utils/include/codec2/hidl/1.0/InputBufferManager.h"
  },
  {
   "access" : "private",
   "function_name" : "android::hardware::media::c2::V1_0::utils::InputBufferManager::_unregisterFrameData",
   "linker_set_key" : "_ZN7android8hardware5media2c24V1_05utils18InputBufferManager20_unregisterFrameDataERKNS_2wpINS3_18IComponentListenerEEE",
   "parameters" :
   [
    {
     "is_this_ptr" : true,
     "referenced_type" : "type-2789"
    },
    {
     "referenced_type" : "type-4041"
    }
   ],
   "return_type" : "type-27",
   "source_file" : "/frameworks/av/media/codec2/hidl/1.0/utils/include/codec2/hidl/1.0/InputBufferManager.h"
  },
  {
   "access" : "private",
   "function_name" : "android::hardware::media::c2::V1_0::utils::InputBufferManager::_unregisterFrameData",
   "linker_set_key" : "_ZN7android8hardware5media2c24V1_05utils18InputBufferManager20_unregisterFrameDataERKNS_2wpINS3_18IComponentListenerEEERK11C2FrameData",
   "parameters" :
   [
    {
     "is_this_ptr" : true,
     "referenced_type" : "type-2789"
    },
    {
     "referenced_type" : "type-4041"
    },
    {
     "referenced_type" : "type-2788"
    }
   ],
   "return_type" : "type-27",
   "source_file" : "/frameworks/av/media/codec2/hidl/1.0/utils/include/codec2/hidl/1.0/InputBufferManager.h"
  },
  {
   "access" : "private",
   "function_name" : "android::hardware::media::c2::V1_0::utils::InputBufferManager::processNotifications",
   "linker_set_key" : "_ZN7android8hardware5media2c24V1_05utils18InputBufferManager20processNotificationsEPl",
   "parameters" :
   [
    {
     "is_this_ptr" : true,
     "referenced_type" : "type-2789"
    },
    {
     "referenced_type" : "type-1172"
    }
   ],
   "return_type" : "type-21",
   "source_file" : "/frameworks/av/media/codec2/hidl/1.0/utils/include/codec2/hidl/1.0/InputBufferManager.h"
  },
  {
   "function_name" : "android::hardware::media::c2::V1_0::utils::InputBufferManager::setNotificationInterval",
   "linker_set_key" : "_ZN7android8hardware5media2c24V1_05utils18InputBufferManager23setNotificationIntervalEl",
   "parameters" :
   [
    {
     "referenced_type" : "type-196"
    }
   ],
   "return_type" : "type-27",
   "source_file" : "/frameworks/av/media/codec2/hidl/1.0/utils/include/codec2/hidl/1.0/InputBufferManager.h"
  },
  {
   "access" : "private",
   "function_name" : "android::hardware::media::c2::V1_0::utils::InputBufferManager::_setNotificationInterval",
   "linker_set_key" : "_ZN7android8hardware5media2c24V1_05utils18InputBufferManager24_setNotificationIntervalEl",
   "parameters" :
   [
    {
     "is_this_ptr" : true,
     "referenced_type" : "type-2789"
    },
    {
     "referenced_type" : "type-196"
    }
   ],
   "return_type" : "type-27",
   "source_file" : "/frameworks/av/media/codec2/hidl/1.0/utils/include/codec2/hidl/1.0/InputBufferManager.h"
  },
  {
   "access" : "private",
   "function_name" : "android::hardware::media::c2::V1_0::utils::InputBufferManager::main",
   "linker_set_key" : "_ZN7android8hardware5media2c24V1_05utils18InputBufferManager4mainEv",
   "parameters" :
   [
    {
     "is_this_ptr" : true,
     "referenced_type" : "type-2789"
    }
   ],
   "return_type" : "type-27",
   "source_file" : "/frameworks/av/media/codec2/hidl/1.0/utils/include/codec2/hidl/1.0/InputBufferManager.h"
  },
  {
   "access" : "private",
   "function_name" : "android::hardware::media::c2::V1_0::utils::InputBufferManager::InputBufferManager",
   "linker_set_key" : "_ZN7android8hardware5media2c24V1_05utils18InputBufferManagerC1Ev",
   "parameters" :
   [
    {
     "is_this_ptr" : true,
     "referenced_type" : "type-2789"
    }
   ],
   "return_type" : "type-27",
   "source_file" : "/frameworks/av/media/codec2/hidl/1.0/utils/include/codec2/hidl/1.0/InputBufferManager.h"
  },
  {
   "access" : "private",
   "function_name" : "android::hardware::media::c2::V1_0::utils::InputBufferManager::InputBufferManager",
   "linker_set_key" : "_ZN7android8hardware5media2c24V1_05utils18InputBufferManagerC2Ev",
   "parameters" :
   [
    {
     "is_this_ptr" : true,
     "referenced_type" : "type-2789"
    }
   ],
   "return_type" : "type-27",
   "source_file" : "/frameworks/av/media/codec2/hidl/1.0/utils/include/codec2/hidl/1.0/InputBufferManager.h"
  },
  {
   "function_name" : "android::hardware::media::c2::V1_0::utils::copyParamsFromBlob",
   "linker_set_key" : "_ZN7android8hardware5media2c24V1_05utils18copyParamsFromBlobEPNSt3__16vectorINS5_10unique_ptrI7C2ParamNS5_14default_deleteIS8_EEEENS5_9allocatorISB_EEEENS0_8hidl_vecIhEE",
   "parameters" :
   [
    {
     "referenced_type" : "type-1294"
    },
    {
     "referenced_type" : "type-395"
    }
   ],
   "return_type" : "type-21",
   "source_file" : "/frameworks/av/media/codec2/hidl/1.0/utils/include/codec2/hidl/1.0/types.h"
  },
  {
   "function_name" : "android::hardware::media::c2::V1_0::utils::copyParamsFromBlob",
   "linker_set_key" : "_ZN7android8hardware5media2c24V1_05utils18copyParamsFromBlobEPNSt3__16vectorINS5_10unique_ptrI8C2TuningNS5_14default_deleteIS8_EEEENS5_9allocatorISB_EEEENS0_8hidl_vecIhEE",
   "parameters" :
   [
    {
     "referenced_type" : "type-1296"
    },
    {
     "referenced_type" : "type-395"
    }
   ],
   "return_type" : "type-21",
   "source_file" : "/frameworks/av/media/codec2/hidl/1.0/utils/include/codec2/hidl/1.0/types.h"
  },
  {
   "function_name" : "android::hardware::media::c2::V1_0::utils::updateParamsFromBlob",
   "linker_set_key" : "_ZN7android8hardware5media2c24V1_05utils20updateParamsFromBlobERKNSt3__16vectorIP7C2ParamNS5_9allocatorIS8_EEEERKNS0_8hidl_vecIhEE",
   "parameters" :
   [
    {
     "referenced_type" : "type-1284"
    },
    {
     "referenced_type" : "type-759"
    }
   ],
   "return_type" : "type-21",
   "source_file" : "/frameworks/av/media/codec2/hidl/1.0/utils/include/codec2/hidl/1.0/types.h"
  },
  {
   "function_name" : "android::hardware::media::c2::V1_0::utils::yieldBufferQueueBlock",
   "linker_set_key" : "_ZN7android8hardware5media2c24V1_05utils21yieldBufferQueueBlockERK19C2ConstGraphicBlock",
   "parameters" :
   [
    {
     "referenced_type" : "type-1298"
    }
   ],
   "return_type" : "type-21",
   "source_file" : "/frameworks/av/media/codec2/hidl/1.0/utils/include/codec2/hidl/1.0/types.h"
  },
  {
   "function_name" : "android::hardware::media::c2::V1_0::utils::InputSurfaceConnection::disconnect",
   "linker_set_key" : "_ZN7android8hardware5media2c24V1_05utils22InputSurfaceConnection10disconnectEv",
   "parameters" :
   [
    {
     "is_this_ptr" : true,
     "referenced_type" : "type-3313"
    }
   ],
   "return_type" : "type-3625",
   "source_file" : "/frameworks/av/media/codec2/hidl/1.0/utils/include/codec2/hidl/1.0/InputSurfaceConnection.h"
  },
  {
   "function_name" : "android::hardware::media::c2::V1_0::utils::InputSurfaceConnection::getConfigurable",
   "linker_set_key" : "_ZN7android8hardware5media2c24V1_05utils22InputSurfaceConnection15getConfigurableEv",
   "parameters" :
   [
    {
     "is_this_ptr" : true,
     "referenced_type" : "type-3313"
    }
   ],
   "return_type" : "type-4436",
   "source_file" : "/frameworks/av/media/codec2/hidl/1.0/utils/include/codec2/hidl/1.0/InputSurfaceConnection.h"
  },
  {
   "access" : "protected",
   "function_name" : "android::hardware::media::c2::V1_0::utils::InputSurfaceConnection::init",
   "linker_set_key" : "_ZN7android8hardware5media2c24V1_05utils22InputSurfaceConnection4initEv",
   "parameters" :
   [
    {
     "is_this_ptr" : true,
     "referenced_type" : "type-3313"
    }
   ],
   "return_type" : "type-21",
   "source_file" : "/frameworks/av/media/codec2/hidl/1.0/utils/include/codec2/hidl/1.0/InputSurfaceConnection.h"
  },
  {
   "access" : "protected",
   "function_name" : "android::hardware::media::c2::V1_0::utils::InputSurfaceConnection::InputSurfaceConnection",
   "linker_set_key" : "_ZN7android8hardware5media2c24V1_05utils22InputSurfaceConnectionC1ERKNS_2spINS_19GraphicBufferSourceEEERKNS6_INS3_10IInputSinkEEERKNS6_INS4_14ComponentStoreEEE",
   "parameters" :
   [
    {
     "is_this_ptr" : true,
     "referenced_type" : "type-3313"
    },
    {
     "referenced_type" : "type-3301"
    },
    {
     "referenced_type" : "type-4273"
    },
    {
     "referenced_type" : "type-4378"
    }
   ],
   "return_type" : "type-27",
   "source_file" : "/frameworks/av/media/codec2/hidl/1.0/utils/include/codec2/hidl/1.0/InputSurfaceConnection.h"
  },
  {
   "access" : "protected",
   "function_name" : "android::hardware::media::c2::V1_0::utils::InputSurfaceConnection::InputSurfaceConnection",
   "linker_set_key" : "_ZN7android8hardware5media2c24V1_05utils22InputSurfaceConnectionC1ERKNS_2spINS_19GraphicBufferSourceEEERKNSt3__110shared_ptrI11C2ComponentEERKNS6_INS4_14ComponentStoreEEE",
   "parameters" :
   [
    {
     "is_this_ptr" : true,
     "referenced_type" : "type-3313"
    },
    {
     "referenced_type" : "type-3301"
    },
    {
     "referenced_type" : "type-3553"
    },
    {
     "referenced_type" : "type-4378"
    }
   ],
   "return_type" : "type-27",
   "source_file" : "/frameworks/av/media/codec2/hidl/1.0/utils/include/codec2/hidl/1.0/InputSurfaceConnection.h"
  },
  {
   "access" : "protected",
   "function_name" : "android::hardware::media::c2::V1_0::utils::InputSurfaceConnection::InputSurfaceConnection",
   "linker_set_key" : "_ZN7android8hardware5media2c24V1_05utils22InputSurfaceConnectionC2ERKNS_2spINS_19GraphicBufferSourceEEERKNS6_INS3_10IInputSinkEEERKNS6_INS4_14ComponentStoreEEE",
   "parameters" :
   [
    {
     "is_this_ptr" : true,
     "referenced_type" : "type-3313"
    },
    {
     "referenced_type" : "type-3301"
    },
    {
     "referenced_type" : "type-4273"
    },
    {
     "referenced_type" : "type-4378"
    }
   ],
   "return_type" : "type-27",
   "source_file" : "/frameworks/av/media/codec2/hidl/1.0/utils/include/codec2/hidl/1.0/InputSurfaceConnection.h"
  },
  {
   "access" : "protected",
   "function_name" : "android::hardware::media::c2::V1_0::utils::InputSurfaceConnection::InputSurfaceConnection",
   "linker_set_key" : "_ZN7android8hardware5media2c24V1_05utils22InputSurfaceConnectionC2ERKNS_2spINS_19GraphicBufferSourceEEERKNSt3__110shared_ptrI11C2ComponentEERKNS6_INS4_14ComponentStoreEEE",
   "parameters" :
   [
    {
     "is_this_ptr" : true,
     "referenced_type" : "type-3313"
    },
    {
     "referenced_type" : "type-3301"
    },
    {
     "referenced_type" : "type-3553"
    },
    {
     "referenced_type" : "type-4378"
    }
   ],
   "return_type" : "type-27",
   "source_file" : "/frameworks/av/media/codec2/hidl/1.0/utils/include/codec2/hidl/1.0/InputSurfaceConnection.h"
  },
  {
   "access" : "protected",
   "function_name" : "android::hardware::media::c2::V1_0::utils::InputSurfaceConnection::~InputSurfaceConnection",
   "linker_set_key" : "_ZN7android8hardware5media2c24V1_05utils22InputSurfaceConnectionD0Ev",
   "parameters" :
   [
    {
     "is_this_ptr" : true,
     "referenced_type" : "type-3313"
    }
   ],
   "return_type" : "type-27",
   "source_file" : "/frameworks/av/media/codec2/hidl/1.0/utils/include/codec2/hidl/1.0/InputSurfaceConnection.h"
  },
  {
   "access" : "protected",
   "function_name" : "android::hardware::media::c2::V1_0::utils::InputSurfaceConnection::~InputSurfaceConnection",
   "linker_set_key" : "_ZN7android8hardware5media2c24V1_05utils22InputSurfaceConnectionD1Ev",
   "parameters" :
   [
    {
     "is_this_ptr" : true,
     "referenced_type" : "type-3313"
    }
   ],
   "return_type" : "type-27",
   "source_file" : "/frameworks/av/media/codec2/hidl/1.0/utils/include/codec2/hidl/1.0/InputSurfaceConnection.h"
  },
  {
   "access" : "protected",
   "function_name" : "android::hardware::media::c2::V1_0::utils::InputSurfaceConnection::~InputSurfaceConnection",
   "linker_set_key" : "_ZN7android8hardware5media2c24V1_05utils22InputSurfaceConnectionD2Ev",
   "parameters" :
   [
    {
     "is_this_ptr" : true,
     "referenced_type" : "type-3313"
    }
   ],
   "return_type" : "type-27",
   "source_file" : "/frameworks/av/media/codec2/hidl/1.0/utils/include/codec2/hidl/1.0/InputSurfaceConnection.h"
  },
  {
   "function_name" : "android::hardware::media::c2::V1_0::utils::yieldBufferQueueBlocks",
   "linker_set_key" : "_ZN7android8hardware5media2c24V1_05utils22yieldBufferQueueBlocksERKNSt3__14listINS5_10unique_ptrI6C2WorkNS5_14default_deleteIS8_EEEENS5_9allocatorISB_EEEEbb",
   "parameters" :
   [
    {
     "referenced_type" : "type-1274"
    },
    {
     "default_arg" : true,
     "referenced_type" : "type-21"
    },
    {
     "default_arg" : true,
     "referenced_type" : "type-21"
    }
   ],
   "return_type" : "type-27",
   "source_file" : "/frameworks/av/media/codec2/hidl/1.0/utils/include/codec2/hidl/1.0/types.h"
  },
  {
   "function_name" : "android::hardware::media::c2::V1_0::utils::DefaultBufferPoolSender::setReceiver",
   "linker_set_key" : "_ZN7android8hardware5media2c24V1_05utils23DefaultBufferPoolSender11setReceiverERKNS_2spINS1_10bufferpool4V2_014IClientManagerEEENSt3__16chrono8durationIxNSD_5ratioILl1ELl1000000000EEEEE",
   "parameters" :
   [
    {
     "is_this_ptr" : true,
     "referenced_type" : "type-1252"
    },
    {
     "referenced_type" : "type-3379"
    },
    {
     "default_arg" : true,
     "referenced_type" : "type-4566"
    }
   ],
   "return_type" : "type-27",
   "source_file" : "/frameworks/av/media/codec2/hidl/1.0/utils/include/codec2/hidl/1.0/types.h"
  },
  {
   "function_name" : "android::hardware::media::c2::V1_0::utils::DefaultBufferPoolSender::send",
   "linker_set_key" : "_ZN7android8hardware5media2c24V1_05utils23DefaultBufferPoolSender4sendERKNSt3__110shared_ptrINS1_10bufferpool14BufferPoolDataEEEPNS8_4V2_019BufferStatusMessageE",
   "parameters" :
   [
    {
     "is_this_ptr" : true,
     "referenced_type" : "type-1252"
    },
    {
     "referenced_type" : "type-1268"
    },
    {
     "referenced_type" : "type-1269"
    }
   ],
   "return_type" : "type-815",
   "source_file" : "/frameworks/av/media/codec2/hidl/1.0/utils/include/codec2/hidl/1.0/types.h"
  },
  {
   "function_name" : "android::hardware::media::c2::V1_0::utils::DefaultBufferPoolSender::DefaultBufferPoolSender",
   "linker_set_key" : "_ZN7android8hardware5media2c24V1_05utils23DefaultBufferPoolSenderC1ERKNS_2spINS1_10bufferpool4V2_014IClientManagerEEENSt3__16chrono8durationIxNSD_5ratioILl1ELl1000000000EEEEE",
   "parameters" :
   [
    {
     "is_this_ptr" : true,
     "referenced_type" : "type-1252"
    },
    {
     "default_arg" : true,
     "referenced_type" : "type-3379"
    },
    {
     "default_arg" : true,
     "referenced_type" : "type-4567"
    }
   ],
   "return_type" : "type-27",
   "source_file" : "/frameworks/av/media/codec2/hidl/1.0/utils/include/codec2/hidl/1.0/types.h"
  },
  {
   "function_name" : "android::hardware::media::c2::V1_0::utils::DefaultBufferPoolSender::DefaultBufferPoolSender",
   "linker_set_key" : "_ZN7android8hardware5media2c24V1_05utils23DefaultBufferPoolSenderC2ERKNS_2spINS1_10bufferpool4V2_014IClientManagerEEENSt3__16chrono8durationIxNSD_5ratioILl1ELl1000000000EEEEE",
   "parameters" :
   [
    {
     "is_this_ptr" : true,
     "referenced_type" : "type-1252"
    },
    {
     "default_arg" : true,
     "referenced_type" : "type-3379"
    },
    {
     "default_arg" : true,
     "referenced_type" : "type-4568"
    }
   ],
   "return_type" : "type-27",
   "source_file" : "/frameworks/av/media/codec2/hidl/1.0/utils/include/codec2/hidl/1.0/types.h"
  },
  {
   "function_name" : "android::hardware::media::c2::V1_0::utils::objcpy",
   "linker_set_key" : "_ZN7android8hardware5media2c24V1_05utils6objcpyEP27C2FieldSupportedValuesQueryRKNS3_25FieldSupportedValuesQueryE",
   "parameters" :
   [
    {
     "referenced_type" : "type-1747"
    },
    {
     "referenced_type" : "type-2710"
    }
   ],
   "return_type" : "type-21",
   "source_file" : "/frameworks/av/media/codec2/hidl/1.0/utils/include/codec2/hidl/1.0/types.h"
  },
  {
   "function_name" : "android::hardware::media::c2::V1_0::utils::objcpy",
   "linker_set_key" : "_ZN7android8hardware5media2c24V1_05utils6objcpyEP27C2FieldSupportedValuesQueryRKNS3_25FieldSupportedValuesQueryERKNS3_31FieldSupportedValuesQueryResultE",
   "parameters" :
   [
    {
     "referenced_type" : "type-1747"
    },
    {
     "referenced_type" : "type-2710"
    },
    {
     "referenced_type" : "type-1229"
    }
   ],
   "return_type" : "type-21",
   "source_file" : "/frameworks/av/media/codec2/hidl/1.0/utils/include/codec2/hidl/1.0/types.h"
  },
  {
   "function_name" : "android::hardware::media::c2::V1_0::utils::objcpy",
   "linker_set_key" : "_ZN7android8hardware5media2c24V1_05utils6objcpyEPN11C2Component6TraitsERKNS3_15IComponentStore15ComponentTraitsE",
   "parameters" :
   [
    {
     "referenced_type" : "type-1239"
    },
    {
     "referenced_type" : "type-1244"
    }
   ],
   "return_type" : "type-21",
   "source_file" : "/frameworks/av/media/codec2/hidl/1.0/utils/include/codec2/hidl/1.0/types.h"
  },
  {
   "function_name" : "android::hardware::media::c2::V1_0::utils::objcpy",
   "linker_set_key" : "_ZN7android8hardware5media2c24V1_05utils6objcpyEPNS3_10WorkBundleERKNSt3__14listINS7_10unique_ptrI6C2WorkNS7_14default_deleteISA_EEEENS7_9allocatorISD_EEEEPNS4_16BufferPoolSenderE",
   "parameters" :
   [
    {
     "referenced_type" : "type-1270"
    },
    {
     "referenced_type" : "type-1274"
    },
    {
     "default_arg" : true,
     "referenced_type" : "type-3157"
    }
   ],
   "return_type" : "type-21",
   "source_file" : "/frameworks/av/media/codec2/hidl/1.0/utils/include/codec2/hidl/1.0/types.h"
  },
  {
   "function_name" : "android::hardware::media::c2::V1_0::utils::objcpy",
   "linker_set_key" : "_ZN7android8hardware5media2c24V1_05utils6objcpyEPNS3_13SettingResultERK15C2SettingResult",
   "parameters" :
   [
    {
     "referenced_type" : "type-585"
    },
    {
     "referenced_type" : "type-1206"
    }
   ],
   "return_type" : "type-21",
   "source_file" : "/frameworks/av/media/codec2/hidl/1.0/utils/include/codec2/hidl/1.0/types.h"
  },
  {
   "function_name" : "android::hardware::media::c2::V1_0::utils::objcpy",
   "linker_set_key" : "_ZN7android8hardware5media2c24V1_05utils6objcpyEPNS3_15IComponentStore15ComponentTraitsERKN11C2Component6TraitsE",
   "parameters" :
   [
    {
     "referenced_type" : "type-2260"
    },
    {
     "referenced_type" : "type-1238"
    }
   ],
   "return_type" : "type-21",
   "source_file" : "/frameworks/av/media/codec2/hidl/1.0/utils/include/codec2/hidl/1.0/types.h"
  },
  {
   "function_name" : "android::hardware::media::c2::V1_0::utils::objcpy",
   "linker_set_key" : "_ZN7android8hardware5media2c24V1_05utils6objcpyEPNS3_15ParamDescriptorERK17C2ParamDescriptor",
   "parameters" :
   [
    {
     "referenced_type" : "type-2633"
    },
    {
     "referenced_type" : "type-1209"
    }
   ],
   "return_type" : "type-21",
   "source_file" : "/frameworks/av/media/codec2/hidl/1.0/utils/include/codec2/hidl/1.0/types.h"
  },
  {
   "function_name" : "android::hardware::media::c2::V1_0::utils::objcpy",
   "linker_set_key" : "_ZN7android8hardware5media2c24V1_05utils6objcpyEPNS3_16StructDescriptorERK18C2StructDescriptor",
   "parameters" :
   [
    {
     "referenced_type" : "type-2269"
    },
    {
     "referenced_type" : "type-1247"
    }
   ],
   "return_type" : "type-21",
   "source_file" : "/frameworks/av/media/codec2/hidl/1.0/utils/include/codec2/hidl/1.0/types.h"
  },
  {
   "function_name" : "android::hardware::media::c2::V1_0::utils::objcpy",
   "linker_set_key" : "_ZN7android8hardware5media2c24V1_05utils6objcpyEPNS3_25FieldSupportedValuesQueryERK27C2FieldSupportedValuesQuery",
   "parameters" :
   [
    {
     "referenced_type" : "type-2532"
    },
    {
     "referenced_type" : "type-1218"
    }
   ],
   "return_type" : "type-21",
   "source_file" : "/frameworks/av/media/codec2/hidl/1.0/utils/include/codec2/hidl/1.0/types.h"
  },
  {
   "function_name" : "android::hardware::media::c2::V1_0::utils::objcpy",
   "linker_set_key" : "_ZN7android8hardware5media2c24V1_05utils6objcpyEPNS3_31FieldSupportedValuesQueryResultERK27C2FieldSupportedValuesQuery",
   "parameters" :
   [
    {
     "referenced_type" : "type-2644"
    },
    {
     "referenced_type" : "type-1218"
    }
   ],
   "return_type" : "type-21",
   "source_file" : "/frameworks/av/media/codec2/hidl/1.0/utils/include/codec2/hidl/1.0/types.h"
  },
  {
   "function_name" : "android::hardware::media::c2::V1_0::utils::objcpy",
   "linker_set_key" : "_ZN7android8hardware5media2c24V1_05utils6objcpyEPNSt3__110shared_ptrI17C2ParamDescriptorEERKNS3_15ParamDescriptorE",
   "parameters" :
   [
    {
     "referenced_type" : "type-1214"
    },
    {
     "referenced_type" : "type-1217"
    }
   ],
   "return_type" : "type-21",
   "source_file" : "/frameworks/av/media/codec2/hidl/1.0/utils/include/codec2/hidl/1.0/types.h"
  },
  {
   "function_name" : "android::hardware::media::c2::V1_0::utils::objcpy",
   "linker_set_key" : "_ZN7android8hardware5media2c24V1_05utils6objcpyEPNSt3__110unique_ptrI15C2SettingResultNS5_14default_deleteIS7_EEEERKNS3_13SettingResultE",
   "parameters" :
   [
    {
     "referenced_type" : "type-1207"
    },
    {
     "referenced_type" : "type-3862"
    }
   ],
   "return_type" : "type-21",
   "source_file" : "/frameworks/av/media/codec2/hidl/1.0/utils/include/codec2/hidl/1.0/types.h"
  },
  {
   "function_name" : "android::hardware::media::c2::V1_0::utils::objcpy",
   "linker_set_key" : "_ZN7android8hardware5media2c24V1_05utils6objcpyEPNSt3__110unique_ptrI18C2StructDescriptorNS5_14default_deleteIS7_EEEERKNS3_16StructDescriptorE",
   "parameters" :
   [
    {
     "referenced_type" : "type-1248"
    },
    {
     "referenced_type" : "type-1251"
    }
   ],
   "return_type" : "type-21",
   "source_file" : "/frameworks/av/media/codec2/hidl/1.0/utils/include/codec2/hidl/1.0/types.h"
  },
  {
   "function_name" : "android::hardware::media::c2::V1_0::utils::objcpy",
   "linker_set_key" : "_ZN7android8hardware5media2c24V1_05utils6objcpyEPNSt3__14listINS5_10unique_ptrI6C2WorkNS5_14default_deleteIS8_EEEENS5_9allocatorISB_EEEERKNS3_10WorkBundleE",
   "parameters" :
   [
    {
     "referenced_type" : "type-1275"
    },
    {
     "referenced_type" : "type-3554"
    }
   ],
   "return_type" : "type-21",
   "source_file" : "/frameworks/av/media/codec2/hidl/1.0/utils/include/codec2/hidl/1.0/types.h"
  },
  {
   "function_name" : "android::hardware::media::c2::V1_0::utils::asString",
   "linker_set_key" : "_ZN7android8hardware5media2c24V1_05utils8asStringENS3_6StatusEPKc",
   "parameters" :
   [
    {
     "referenced_type" : "type-608"
    },
    {
     "default_arg" : true,
     "referenced_type" : "type-348"
    }
   ],
   "return_type" : "type-348",
   "source_file" : "/frameworks/av/media/codec2/hidl/1.0/utils/include/codec2/hidl/1.0/types.h"
  },
  {
   "function_name" : "android::hardware::media::c2::V1_0::utils::Component::asInputSink",
   "linker_set_key" : "_ZN7android8hardware5media2c24V1_05utils9Component11asInputSinkEv",
   "parameters" :
   [
    {
     "is_this_ptr" : true,
     "referenced_type" : "type-2344"
    }
   ],
   "return_type" : "type-8",
   "source_file" : "/frameworks/av/media/codec2/hidl/1.0/utils/include/codec2/hidl/1.0/Component.h"
  },
  {
   "function_name" : "android::hardware::media::c2::V1_0::utils::Component::getInterface",
   "linker_set_key" : "_ZN7android8hardware5media2c24V1_05utils9Component12getInterfaceEv",
   "parameters" :
   [
    {
     "is_this_ptr" : true,
     "referenced_type" : "type-2344"
    }
   ],
   "return_type" : "type-4472",
   "source_file" : "/frameworks/av/media/codec2/hidl/1.0/utils/include/codec2/hidl/1.0/Component.h"
  },
  {
   "access" : "protected",
   "function_name" : "android::hardware::media::c2::V1_0::utils::Component::initListener",
   "linker_set_key" : "_ZN7android8hardware5media2c24V1_05utils9Component12initListenerERKNS_2spIS5_EE",
   "parameters" :
   [
    {
     "is_this_ptr" : true,
     "referenced_type" : "type-2344"
    },
    {
     "referenced_type" : "type-4053"
    }
   ],
   "return_type" : "type-27",
   "source_file" : "/frameworks/av/media/codec2/hidl/1.0/utils/include/codec2/hidl/1.0/Component.h"
  },
  {
   "function_name" : "android::hardware::media::c2::V1_0::utils::Component::createBlockPool",
   "linker_set_key" : "_ZN7android8hardware5media2c24V1_05utils9Component15createBlockPoolEjNSt3__18functionIFvNS3_6StatusEmRKNS_2spINS3_13IConfigurableEEEEEE",
   "parameters" :
   [
    {
     "is_this_ptr" : true,
     "referenced_type" : "type-2344"
    },
    {
     "referenced_type" : "type-2"
    },
    {
     "referenced_type" : "type-4569"
    }
   ],
   "return_type" : "type-43",
   "source_file" : "/frameworks/av/media/codec2/hidl/1.0/utils/include/codec2/hidl/1.0/Component.h"
  },
  {
   "function_name" : "android::hardware::media::c2::V1_0::utils::Component::destroyBlockPool",
   "linker_set_key" : "_ZN7android8hardware5media2c24V1_05utils9Component16destroyBlockPoolEm",
   "parameters" :
   [
    {
     "is_this_ptr" : true,
     "referenced_type" : "type-2344"
    },
    {
     "referenced_type" : "type-221"
    }
   ],
   "return_type" : "type-3625",
   "source_file" : "/frameworks/av/media/codec2/hidl/1.0/utils/include/codec2/hidl/1.0/Component.h"
  },
  {
   "function_name" : "android::hardware::media::c2::V1_0::utils::Component::setOutputSurface",
   "linker_set_key" : "_ZN7android8hardware5media2c24V1_05utils9Component16setOutputSurfaceEmRKNS_2spINS0_8graphics11bufferqueue4V2_022IGraphicBufferProducerEEE",
   "parameters" :
   [
    {
     "is_this_ptr" : true,
     "referenced_type" : "type-2344"
    },
    {
     "referenced_type" : "type-221"
    },
    {
     "referenced_type" : "type-3555"
    }
   ],
   "return_type" : "type-3625",
   "source_file" : "/frameworks/av/media/codec2/hidl/1.0/utils/include/codec2/hidl/1.0/Component.h"
  },
  {
   "function_name" : "android::hardware::media::c2::V1_0::utils::Component::findLocalComponent",
   "linker_set_key" : "_ZN7android8hardware5media2c24V1_05utils9Component18findLocalComponentERKNS_2spINS3_10IInputSinkEEE",
   "parameters" :
   [
    {
     "referenced_type" : "type-4273"
    }
   ],
   "return_type" : "type-4570",
   "source_file" : "/frameworks/av/media/codec2/hidl/1.0/utils/include/codec2/hidl/1.0/Component.h"
  },
  {
   "function_name" : "android::hardware::media::c2::V1_0::utils::Component::connectToInputSurface",
   "linker_set_key" : "_ZN7android8hardware5media2c24V1_05utils9Component21connectToInputSurfaceERKNS_2spINS3_13IInputSurfaceEEENSt3__18functionIFvNS3_6StatusERKNS6_INS3_23IInputSurfaceConnectionEEEEEE",
   "parameters" :
   [
    {
     "is_this_ptr" : true,
     "referenced_type" : "type-2344"
    },
    {
     "referenced_type" : "type-3567"
    },
    {
     "referenced_type" : "type-4571"
    }
   ],
   "return_type" : "type-43",
   "source_file" : "/frameworks/av/media/codec2/hidl/1.0/utils/include/codec2/hidl/1.0/Component.h"
  },
  {
   "function_name" : "android::hardware::media::c2::V1_0::utils::Component::connectToOmxInputSurface",
   "linker_set_key" : "_ZN7android8hardware5media2c24V1_05utils9Component24connectToOmxInputSurfaceERKNS_2spINS0_8graphics11bufferqueue4V1_022IGraphicBufferProducerEEERKNS6_INS1_3omx4V1_020IGraphicBufferSourceEEENSt3__18functionIFvNS3_6StatusERKNS6_INS3_23IInputSurfaceConnectionEEEEEE",
   "parameters" :
   [
    {
     "is_this_ptr" : true,
     "referenced_type" : "type-2344"
    },
    {
     "referenced_type" : "type-3575"
    },
    {
     "referenced_type" : "type-3579"
    },
    {
     "referenced_type" : "type-4572"
    }
   ],
   "return_type" : "type-43",
   "source_file" : "/frameworks/av/media/codec2/hidl/1.0/utils/include/codec2/hidl/1.0/Component.h"
  },
  {
   "function_name" : "android::hardware::media::c2::V1_0::utils::Component::disconnectFromInputSurface",
   "linker_set_key" : "_ZN7android8hardware5media2c24V1_05utils9Component26disconnectFromInputSurfaceEv",
   "parameters" :
   [
    {
     "is_this_ptr" : true,
     "referenced_type" : "type-2344"
    }
   ],
   "return_type" : "type-3625",
   "source_file" : "/frameworks/av/media/codec2/hidl/1.0/utils/include/codec2/hidl/1.0/Component.h"
  },
  {
   "function_name" : "android::hardware::media::c2::V1_0::utils::Component::stop",
   "linker_set_key" : "_ZN7android8hardware5media2c24V1_05utils9Component4stopEv",
   "parameters" :
   [
    {
     "is_this_ptr" : true,
     "referenced_type" : "type-2344"
    }
   ],
   "return_type" : "type-3625",
   "source_file" : "/frameworks/av/media/codec2/hidl/1.0/utils/include/codec2/hidl/1.0/Component.h"
  },
  {
   "function_name" : "android::hardware::media::c2::V1_0::utils::Component::drain",
   "linker_set_key" : "_ZN7android8hardware5media2c24V1_05utils9Component5drainEb",
   "parameters" :
   [
    {
     "is_this_ptr" : true,
     "referenced_type" : "type-2344"
    },
    {
     "referenced_type" : "type-21"
    }
   ],
   "return_type" : "type-3625",
   "source_file" : "/frameworks/av/media/codec2/hidl/1.0/utils/include/codec2/hidl/1.0/Component.h"
  },
  {
   "function_name" : "android::hardware::media::c2::V1_0::utils::Component::flush",
   "linker_set_key" : "_ZN7android8hardware5media2c24V1_05utils9Component5flushENSt3__18functionIFvNS3_6StatusERKNS3_10WorkBundleEEEE",
   "parameters" :
   [
    {
     "is_this_ptr" : true,
     "referenced_type" : "type-2344"
    },
    {
     "referenced_type" : "type-4573"
    }
   ],
   "return_type" : "type-43",
   "source_file" : "/frameworks/av/media/codec2/hidl/1.0/utils/include/codec2/hidl/1.0/Component.h"
  },
  {
   "function_name" : "android::hardware::media::c2::V1_0::utils::Component::queue",
   "linker_set_key" : "_ZN7android8hardware5media2c24V1_05utils9Component5queueERKNS3_10WorkBundleE",
   "parameters" :
   [
    {
     "is_this_ptr" : true,
     "referenced_type" : "type-2344"
    },
    {
     "referenced_type" : "type-3554"
    }
   ],
   "return_type" : "type-3625",
   "source_file" : "/frameworks/av/media/codec2/hidl/1.0/utils/include/codec2/hidl/1.0/Component.h"
  },
  {
   "function_name" : "android::hardware::media::c2::V1_0::utils::Component::reset",
   "linker_set_key" : "_ZN7android8hardware5media2c24V1_05utils9Component5resetEv",
   "parameters" :
   [
    {
     "is_this_ptr" : true,
     "referenced_type" : "type-2344"
    }
   ],
   "return_type" : "type-3625",
   "source_file" : "/frameworks/av/media/codec2/hidl/1.0/utils/include/codec2/hidl/1.0/Component.h"
  },
  {
   "function_name" : "android::hardware::media::c2::V1_0::utils::Component::start",
   "linker_set_key" : "_ZN7android8hardware5media2c24V1_05utils9Component5startEv",
   "parameters" :
   [
    {
     "is_this_ptr" : true,
     "referenced_type" : "type-2344"
    }
   ],
   "return_type" : "type-3625",
   "source_file" : "/frameworks/av/media/codec2/hidl/1.0/utils/include/codec2/hidl/1.0/Component.h"
  },
  {
   "function_name" : "android::hardware::media::c2::V1_0::utils::Component::release",
   "linker_set_key" : "_ZN7android8hardware5media2c24V1_05utils9Component7releaseEv",
   "parameters" :
   [
    {
     "is_this_ptr" : true,
     "referenced_type" : "type-2344"
    }
   ],
   "return_type" : "type-3625",
   "source_file" : "/frameworks/av/media/codec2/hidl/1.0/utils/include/codec2/hidl/1.0/Component.h"
  },
  {
   "function_name" : "android::hardware::media::c2::V1_0::utils::Component::Component",
   "linker_set_key" : "_ZN7android8hardware5media2c24V1_05utils9ComponentC1ERKNSt3__110shared_ptrI11C2ComponentEERKNS_2spINS3_18IComponentListenerEEERKNSC_INS4_14ComponentStoreEEERKNSC_INS1_10bufferpool4V2_014IClientManagerEEE",
   "parameters" :
   [
    {
     "is_this_ptr" : true,
     "referenced_type" : "type-2344"
    },
    {
     "referenced_type" : "type-3378"
    },
    {
     "referenced_type" : "type-4047"
    },
    {
     "referenced_type" : "type-4378"
    },
    {
     "referenced_type" : "type-3379"
    }
   ],
   "return_type" : "type-27",
   "source_file" : "/frameworks/av/media/codec2/hidl/1.0/utils/include/codec2/hidl/1.0/Component.h"
  },
  {
   "function_name" : "android::hardware::media::c2::V1_0::utils::Component::Component",
   "linker_set_key" : "_ZN7android8hardware5media2c24V1_05utils9ComponentC2ERKNSt3__110shared_ptrI11C2ComponentEERKNS_2spINS3_18IComponentListenerEEERKNSC_INS4_14ComponentStoreEEERKNSC_INS1_10bufferpool4V2_014IClientManagerEEE",
   "parameters" :
   [
    {
     "is_this_ptr" : true,
     "referenced_type" : "type-2344"
    },
    {
     "referenced_type" : "type-3378"
    },
    {
     "referenced_type" : "type-4047"
    },
    {
     "referenced_type" : "type-4378"
    },
    {
     "referenced_type" : "type-3379"
    }
   ],
   "return_type" : "type-27",
   "source_file" : "/frameworks/av/media/codec2/hidl/1.0/utils/include/codec2/hidl/1.0/Component.h"
  },
  {
   "access" : "protected",
   "function_name" : "android::hardware::media::c2::V1_0::utils::Component::~Component",
   "linker_set_key" : "_ZN7android8hardware5media2c24V1_05utils9ComponentD0Ev",
   "parameters" :
   [
    {
     "is_this_ptr" : true,
     "referenced_type" : "type-2344"
    }
   ],
   "return_type" : "type-27",
   "source_file" : "/frameworks/av/media/codec2/hidl/1.0/utils/include/codec2/hidl/1.0/Component.h"
  },
  {
   "access" : "protected",
   "function_name" : "android::hardware::media::c2::V1_0::utils::Component::~Component",
   "linker_set_key" : "_ZN7android8hardware5media2c24V1_05utils9ComponentD1Ev",
   "parameters" :
   [
    {
     "is_this_ptr" : true,
     "referenced_type" : "type-2344"
    }
   ],
   "return_type" : "type-27",
   "source_file" : "/frameworks/av/media/codec2/hidl/1.0/utils/include/codec2/hidl/1.0/Component.h"
  },
  {
   "access" : "protected",
   "function_name" : "android::hardware::media::c2::V1_0::utils::Component::~Component",
   "linker_set_key" : "_ZN7android8hardware5media2c24V1_05utils9ComponentD2Ev",
   "parameters" :
   [
    {
     "is_this_ptr" : true,
     "referenced_type" : "type-2344"
    }
   ],
   "return_type" : "type-27",
   "source_file" : "/frameworks/av/media/codec2/hidl/1.0/utils/include/codec2/hidl/1.0/Component.h"
  },
  {
   "function_name" : "android::hardware::media::c2::V1_0::utils::ComponentStore::status",
   "linker_set_key" : "_ZNK7android8hardware5media2c24V1_05utils14ComponentStore6statusEv",
   "parameters" :
   [
    {
     "is_this_ptr" : true,
     "referenced_type" : "type-1972"
    }
   ],
   "return_type" : "type-1222",
   "source_file" : "/frameworks/av/media/codec2/hidl/1.0/utils/include/codec2/hidl/1.0/ComponentStore.h"
  },
  {
   "function_name" : "android::hardware::media::c2::V1_0::utils::ComponentInterface::status",
   "linker_set_key" : "_ZNK7android8hardware5media2c24V1_05utils18ComponentInterface6statusEv",
   "parameters" :
   [
    {
     "is_this_ptr" : true,
     "referenced_type" : "type-1738"
    }
   ],
   "return_type" : "type-1222",
   "source_file" : "/frameworks/av/media/codec2/hidl/1.0/utils/include/codec2/hidl/1.0/ComponentInterface.h"
  },
  {
   "function_name" : "android::hardware::media::c2::V1_0::utils::Component::status",
   "linker_set_key" : "_ZNK7android8hardware5media2c24V1_05utils9Component6statusEv",
   "parameters" :
   [
    {
     "is_this_ptr" : true,
     "referenced_type" : "type-3447"
    }
   ],
   "return_type" : "type-1222",
   "source_file" : "/frameworks/av/media/codec2/hidl/1.0/utils/include/codec2/hidl/1.0/Component.h"
  }
 ],
 "global_vars" : [],
 "lvalue_reference_types" :
 [
  {
   "alignment" : 8,
   "linker_set_key" : "C2ParamDescriptor::attrib_t &",
   "name" : "C2ParamDescriptor::attrib_t &",
   "referenced_type" : "type-1311",
   "self_type" : "type-1322",
   "size" : 8,
   "source_file" : "/frameworks/av/media/codec2/core/include/C2Param.h"
  },
  {
   "alignment" : 8,
   "linker_set_key" : "C2ParamFieldValues &",
   "name" : "C2ParamFieldValues &",
   "referenced_type" : "type-1203",
   "self_type" : "type-1329",
   "size" : 8,
   "source_file" : "/frameworks/av/media/codec2/core/include/C2Param.h"
  },
  {
   "alignment" : 8,
   "linker_set_key" : "android::FenceTime::Snapshot &",
   "name" : "android::FenceTime::Snapshot &",
   "referenced_type" : "type-2047",
   "self_type" : "type-2146",
   "size" : 8,
   "source_file" : "/frameworks/native/libs/ui/include/ui/FenceTime.h"
  },
  {
   "alignment" : 8,
   "linker_set_key" : "android::GraphicBufferMapper &",
   "name" : "android::GraphicBufferMapper &",
   "referenced_type" : "type-2031",
   "self_type" : "type-2030",
   "size" : 8,
   "source_file" : "/system/core/libutils/include/utils/Singleton.h"
  },
  {
   "alignment" : 8,
   "linker_set_key" : "android::Mutex &",
   "name" : "android::Mutex &",
   "referenced_type" : "type-2087",
   "self_type" : "type-2091",
   "size" : 8,
   "source_file" : "/system/core/libutils/include/utils/Mutex.h"
  },
  {
   "alignment" : 8,
   "linker_set_key" : "android::Point &",
   "name" : "android::Point &",
   "referenced_type" : "type-2062",
   "self_type" : "type-2109",
   "size" : 8,
   "source_file" : "/frameworks/native/libs/ui/include/ui/Point.h"
  },
  {
   "alignment" : 8,
   "linker_set_key" : "android::RWLock &",
   "name" : "android::RWLock &",
   "referenced_type" : "type-2222",
   "self_type" : "type-2226",
   "size" : 8,
   "source_file" : "/system/core/libutils/include/utils/RWLock.h"
  },
  {
   "alignment" : 8,
   "linker_set_key" : "android::Rect &",
   "name" : "android::Rect &",
   "referenced_type" : "type-2000",
   "self_type" : "type-2123",
   "size" : 8,
   "source_file" : "/frameworks/native/libs/ui/include/ui/Rect.h"
  },
  {
   "alignment" : 8,
   "linker_set_key" : "android::Region &",
   "name" : "android::Region &",
   "referenced_type" : "type-2066",
   "self_type" : "type-2136",
   "size" : 8,
   "source_file" : "/frameworks/native/libs/ui/include/ui/Region.h"
  },
  {
   "alignment" : 8,
   "linker_set_key" : "android::String16 &",
   "name" : "android::String16 &",
   "referenced_type" : "type-3305",
   "self_type" : "type-3357",
   "size" : 8,
   "source_file" : "/system/core/libutils/include/utils/String16.h"
  },
  {
   "alignment" : 8,
   "linker_set_key" : "android::String8 &",
   "name" : "android::String8 &",
   "referenced_type" : "type-3266",
   "self_type" : "type-3294",
   "size" : 8,
   "source_file" : "/system/core/libutils/include/utils/String8.h"
  },
  {
   "alignment" : 8,
   "linker_set_key" : "android::hardware::Return<android::hardware::media::c2::V1_0::Status> &",
   "name" : "android::hardware::Return<android::hardware::media::c2::V1_0::Status> &",
   "referenced_type" : "type-3625",
   "self_type" : "type-4521",
   "size" : 8,
   "source_file" : "/system/libhidl/base/include/hidl/Status.h"
  },
  {
   "alignment" : 8,
   "linker_set_key" : "android::hardware::Return<android::sp<android::hardware::graphics::bufferqueue::V2_0::IGraphicBufferProducer> > &",
   "name" : "android::hardware::Return<android::sp<android::hardware::graphics::bufferqueue::V2_0::IGraphicBufferProducer> > &",
   "referenced_type" : "type-3358",
   "self_type" : "type-3361",
   "size" : 8,
   "source_file" : "/system/libhidl/base/include/hidl/Status.h"
  },
  {
   "alignment" : 8,
   "linker_set_key" : "android::hardware::Return<android::sp<android::hardware::media::bufferpool::V2_0::IClientManager> > &",
   "name" : "android::hardware::Return<android::sp<android::hardware::media::bufferpool::V2_0::IClientManager> > &",
   "referenced_type" : "type-2423",
   "self_type" : "type-2426",
   "size" : 8,
   "source_file" : "/system/libhidl/base/include/hidl/Status.h"
  },
  {
   "alignment" : 8,
   "linker_set_key" : "android::hardware::Return<android::sp<android::hardware::media::c2::V1_0::IComponentInterface> > &",
   "name" : "android::hardware::Return<android::sp<android::hardware::media::c2::V1_0::IComponentInterface> > &",
   "referenced_type" : "type-4472",
   "self_type" : "type-4495",
   "size" : 8,
   "source_file" : "/system/libhidl/base/include/hidl/Status.h"
  },
  {
   "alignment" : 8,
   "linker_set_key" : "android::hardware::Return<android::sp<android::hardware::media::c2::V1_0::IConfigurable> > &",
   "name" : "android::hardware::Return<android::sp<android::hardware::media::c2::V1_0::IConfigurable> > &",
   "referenced_type" : "type-4436",
   "self_type" : "type-4457",
   "size" : 8,
   "source_file" : "/system/libhidl/base/include/hidl/Status.h"
  },
  {
   "alignment" : 8,
   "linker_set_key" : "android::hardware::Return<android::sp<android::hardware::media::c2::V1_0::IInputSink> > &",
   "name" : "android::hardware::Return<android::sp<android::hardware::media::c2::V1_0::IInputSink> > &",
   "referenced_type" : "type-8",
   "self_type" : "type-23",
   "size" : 8,
   "source_file" : "/system/libhidl/base/include/hidl/Status.h"
  },
  {
   "alignment" : 8,
   "linker_set_key" : "android::hardware::Return<unsigned int> &",
   "name" : "android::hardware::Return<unsigned int> &",
   "referenced_type" : "type-2669",
   "self_type" : "type-2672",
   "size" : 8,
   "source_file" : "/system/libhidl/base/include/hidl/Status.h"
  },
  {
   "alignment" : 8,
   "linker_set_key" : "android::hardware::Return<void> &",
   "name" : "android::hardware::Return<void> &",
   "referenced_type" : "type-43",
   "self_type" : "type-47",
   "size" : 8,
   "source_file" : "/system/libhidl/base/include/hidl/Status.h"
  },
  {
   "alignment" : 8,
   "linker_set_key" : "android::hardware::Status &",
   "name" : "android::hardware::Status &",
   "referenced_type" : "type-18",
   "self_type" : "type-4431",
   "size" : 8,
   "source_file" : "/system/libhidl/base/include/hidl/Status.h"
  },
  {
   "alignment" : 8,
   "linker_set_key" : "android::hardware::TextOutput &",
   "name" : "android::hardware::TextOutput &",
   "referenced_type" : "type-1740",
   "self_type" : "type-1739",
   "size" : 8,
   "source_file" : "/system/libhwbinder/include/hwbinder/Parcel.h"
  },
  {
   "alignment" : 8,
   "linker_set_key" : "android::hardware::TextOutput &",
   "name" : "android::hardware::TextOutput &",
   "referenced_type" : "type-3770",
   "self_type" : "type-3769",
   "size" : 8,
   "source_file" : "/system/libhwbinder/include/hwbinder/Parcel.h"
  },
  {
   "alignment" : 8,
   "linker_set_key" : "android::hardware::TextOutput &",
   "name" : "android::hardware::TextOutput &",
   "referenced_type" : "type-3837",
   "self_type" : "type-3836",
   "size" : 8,
   "source_file" : "/system/libhwbinder/include/hwbinder/Parcel.h"
  },
  {
   "alignment" : 8,
   "linker_set_key" : "android::hardware::TextOutput &",
   "name" : "android::hardware::TextOutput &",
   "referenced_type" : "type-4037",
   "self_type" : "type-4036",
   "size" : 8,
   "source_file" : "/system/libhwbinder/include/hwbinder/Parcel.h"
  },
  {
   "alignment" : 8,
   "linker_set_key" : "android::hardware::details::hidl_pointer<android::hardware::hidl_string> &",
   "name" : "android::hardware::details::hidl_pointer<android::hardware::hidl_string> &",
   "referenced_type" : "type-637",
   "self_type" : "type-2255",
   "size" : 8,
   "source_file" : "/system/libhidl/base/include/hidl/HidlInternal.h"
  },
  {
   "alignment" : 8,
   "linker_set_key" : "android::hardware::details::hidl_pointer<android::hardware::media::c2::V1_0::BaseBlock> &",
   "name" : "android::hardware::details::hidl_pointer<android::hardware::media::c2::V1_0::BaseBlock> &",
   "referenced_type" : "type-622",
   "self_type" : "type-3888",
   "size" : 8,
   "source_file" : "/system/libhidl/base/include/hidl/HidlInternal.h"
  },
  {
   "alignment" : 8,
   "linker_set_key" : "android::hardware::details::hidl_pointer<android::hardware::media::c2::V1_0::Block> &",
   "name" : "android::hardware::details::hidl_pointer<android::hardware::media::c2::V1_0::Block> &",
   "referenced_type" : "type-543",
   "self_type" : "type-3634",
   "size" : 8,
   "source_file" : "/system/libhidl/base/include/hidl/HidlInternal.h"
  },
  {
   "alignment" : 8,
   "linker_set_key" : "android::hardware::details::hidl_pointer<android::hardware::media::c2::V1_0::Buffer> &",
   "name" : "android::hardware::details::hidl_pointer<android::hardware::media::c2::V1_0::Buffer> &",
   "referenced_type" : "type-555",
   "self_type" : "type-3840",
   "size" : 8,
   "source_file" : "/system/libhidl/base/include/hidl/HidlInternal.h"
  },
  {
   "alignment" : 8,
   "linker_set_key" : "android::hardware::details::hidl_pointer<android::hardware::media::c2::V1_0::FieldDescriptor::NamedValue> &",
   "name" : "android::hardware::details::hidl_pointer<android::hardware::media::c2::V1_0::FieldDescriptor::NamedValue> &",
   "referenced_type" : "type-469",
   "self_type" : "type-1842",
   "size" : 8,
   "source_file" : "/system/libhidl/base/include/hidl/HidlInternal.h"
  },
  {
   "alignment" : 8,
   "linker_set_key" : "android::hardware::details::hidl_pointer<android::hardware::media::c2::V1_0::FieldDescriptor> &",
   "name" : "android::hardware::details::hidl_pointer<android::hardware::media::c2::V1_0::FieldDescriptor> &",
   "referenced_type" : "type-496",
   "self_type" : "type-1858",
   "size" : 8,
   "source_file" : "/system/libhidl/base/include/hidl/HidlInternal.h"
  },
  {
   "alignment" : 8,
   "linker_set_key" : "android::hardware::details::hidl_pointer<android::hardware::media::c2::V1_0::FieldSupportedValues> &",
   "name" : "android::hardware::details::hidl_pointer<android::hardware::media::c2::V1_0::FieldSupportedValues> &",
   "referenced_type" : "type-434",
   "self_type" : "type-2690",
   "size" : 8,
   "source_file" : "/system/libhidl/base/include/hidl/HidlInternal.h"
  },
  {
   "alignment" : 8,
   "linker_set_key" : "android::hardware::details::hidl_pointer<android::hardware::media::c2::V1_0::FieldSupportedValuesQueryResult> &",
   "name" : "android::hardware::details::hidl_pointer<android::hardware::media::c2::V1_0::FieldSupportedValuesQueryResult> &",
   "referenced_type" : "type-2642",
   "self_type" : "type-2647",
   "size" : 8,
   "source_file" : "/system/libhidl/base/include/hidl/HidlInternal.h"
  },
  {
   "alignment" : 8,
   "linker_set_key" : "android::hardware::details::hidl_pointer<android::hardware::media::c2::V1_0::IComponentListener::InputBuffer> &",
   "name" : "android::hardware::details::hidl_pointer<android::hardware::media::c2::V1_0::IComponentListener::InputBuffer> &",
   "referenced_type" : "type-2889",
   "self_type" : "type-2894",
   "size" : 8,
   "source_file" : "/system/libhidl/base/include/hidl/HidlInternal.h"
  },
  {
   "alignment" : 8,
   "linker_set_key" : "android::hardware::details::hidl_pointer<android::hardware::media::c2::V1_0::IComponentListener::RenderedFrame> &",
   "name" : "android::hardware::details::hidl_pointer<android::hardware::media::c2::V1_0::IComponentListener::RenderedFrame> &",
   "referenced_type" : "type-677",
   "self_type" : "type-3996",
   "size" : 8,
   "source_file" : "/system/libhidl/base/include/hidl/HidlInternal.h"
  },
  {
   "alignment" : 8,
   "linker_set_key" : "android::hardware::details::hidl_pointer<android::hardware::media::c2::V1_0::IComponentStore::ComponentTraits> &",
   "name" : "android::hardware::details::hidl_pointer<android::hardware::media::c2::V1_0::IComponentStore::ComponentTraits> &",
   "referenced_type" : "type-2258",
   "self_type" : "type-2262",
   "size" : 8,
   "source_file" : "/system/libhidl/base/include/hidl/HidlInternal.h"
  },
  {
   "alignment" : 8,
   "linker_set_key" : "android::hardware::details::hidl_pointer<android::hardware::media::c2::V1_0::InfoBuffer> &",
   "name" : "android::hardware::details::hidl_pointer<android::hardware::media::c2::V1_0::InfoBuffer> &",
   "referenced_type" : "type-565",
   "self_type" : "type-3848",
   "size" : 8,
   "source_file" : "/system/libhidl/base/include/hidl/HidlInternal.h"
  },
  {
   "alignment" : 8,
   "linker_set_key" : "android::hardware::details::hidl_pointer<android::hardware::media::c2::V1_0::ParamDescriptor> &",
   "name" : "android::hardware::details::hidl_pointer<android::hardware::media::c2::V1_0::ParamDescriptor> &",
   "referenced_type" : "type-2631",
   "self_type" : "type-2636",
   "size" : 8,
   "source_file" : "/system/libhidl/base/include/hidl/HidlInternal.h"
  },
  {
   "alignment" : 8,
   "linker_set_key" : "android::hardware::details::hidl_pointer<android::hardware::media::c2::V1_0::ParamFieldValues> &",
   "name" : "android::hardware::details::hidl_pointer<android::hardware::media::c2::V1_0::ParamFieldValues> &",
   "referenced_type" : "type-523",
   "self_type" : "type-2662",
   "size" : 8,
   "source_file" : "/system/libhidl/base/include/hidl/HidlInternal.h"
  },
  {
   "alignment" : 8,
   "linker_set_key" : "android::hardware::details::hidl_pointer<android::hardware::media::c2::V1_0::SettingResult> &",
   "name" : "android::hardware::details::hidl_pointer<android::hardware::media::c2::V1_0::SettingResult> &",
   "referenced_type" : "type-583",
   "self_type" : "type-3856",
   "size" : 8,
   "source_file" : "/system/libhidl/base/include/hidl/HidlInternal.h"
  },
  {
   "alignment" : 8,
   "linker_set_key" : "android::hardware::details::hidl_pointer<android::hardware::media::c2::V1_0::StructDescriptor> &",
   "name" : "android::hardware::details::hidl_pointer<android::hardware::media::c2::V1_0::StructDescriptor> &",
   "referenced_type" : "type-2267",
   "self_type" : "type-2271",
   "size" : 8,
   "source_file" : "/system/libhidl/base/include/hidl/HidlInternal.h"
  },
  {
   "alignment" : 8,
   "linker_set_key" : "android::hardware::details::hidl_pointer<android::hardware::media::c2::V1_0::Work> &",
   "name" : "android::hardware::details::hidl_pointer<android::hardware::media::c2::V1_0::Work> &",
   "referenced_type" : "type-604",
   "self_type" : "type-3881",
   "size" : 8,
   "source_file" : "/system/libhidl/base/include/hidl/HidlInternal.h"
  },
  {
   "alignment" : 8,
   "linker_set_key" : "android::hardware::details::hidl_pointer<android::hardware::media::c2::V1_0::Worklet> &",
   "name" : "android::hardware::details::hidl_pointer<android::hardware::media::c2::V1_0::Worklet> &",
   "referenced_type" : "type-593",
   "self_type" : "type-3864",
   "size" : 8,
   "source_file" : "/system/libhidl/base/include/hidl/HidlInternal.h"
  },
  {
   "alignment" : 8,
   "linker_set_key" : "android::hardware::details::hidl_pointer<unsigned char> &",
   "name" : "android::hardware::details::hidl_pointer<unsigned char> &",
   "referenced_type" : "type-396",
   "self_type" : "type-2990",
   "size" : 8,
   "source_file" : "/system/libhidl/base/include/hidl/HidlInternal.h"
  },
  {
   "alignment" : 8,
   "linker_set_key" : "android::hardware::details::hidl_pointer<unsigned int> &",
   "name" : "android::hardware::details::hidl_pointer<unsigned int> &",
   "referenced_type" : "type-403",
   "self_type" : "type-2767",
   "size" : 8,
   "source_file" : "/system/libhidl/base/include/hidl/HidlInternal.h"
  },
  {
   "alignment" : 8,
   "linker_set_key" : "android::hardware::details::hidl_pointer<unsigned long> &",
   "name" : "android::hardware::details::hidl_pointer<unsigned long> &",
   "referenced_type" : "type-302",
   "self_type" : "type-1169",
   "size" : 8,
   "source_file" : "/system/libhidl/base/include/hidl/HidlInternal.h"
  },
  {
   "alignment" : 8,
   "linker_set_key" : "android::hardware::hidl_memory &",
   "name" : "android::hardware::hidl_memory &",
   "referenced_type" : "type-339",
   "self_type" : "type-367",
   "size" : 8,
   "source_file" : "/system/libhidl/base/include/hidl/HidlSupport.h"
  },
  {
   "alignment" : 8,
   "linker_set_key" : "android::hardware::hidl_string &",
   "name" : "android::hardware::hidl_string &",
   "referenced_type" : "type-345",
   "self_type" : "type-2257",
   "size" : 8,
   "source_file" : "/system/libhidl/base/include/hidl/HidlInternal.h"
  },
  {
   "alignment" : 8,
   "linker_set_key" : "android::hardware::hidl_vec<Buffer>::iter<true> &",
   "name" : "android::hardware::hidl_vec<Buffer>::iter<true> &",
   "referenced_type" : "type-1403",
   "self_type" : "type-1406",
   "size" : 8,
   "source_file" : "/system/libhidl/base/include/hidl/HidlSupport.h"
  },
  {
   "alignment" : 8,
   "linker_set_key" : "android::hardware::hidl_vec<FieldDescriptor>::iter<true> &",
   "name" : "android::hardware::hidl_vec<FieldDescriptor>::iter<true> &",
   "referenced_type" : "type-1378",
   "self_type" : "type-1382",
   "size" : 8,
   "source_file" : "/system/libhidl/base/include/hidl/HidlSupport.h"
  },
  {
   "alignment" : 8,
   "linker_set_key" : "android::hardware::hidl_vec<FieldSupportedValuesQuery>::iter<true> &",
   "name" : "android::hardware::hidl_vec<FieldSupportedValuesQuery>::iter<true> &",
   "referenced_type" : "type-2706",
   "self_type" : "type-2709",
   "size" : 8,
   "source_file" : "/system/libhidl/base/include/hidl/HidlSupport.h"
  },
  {
   "alignment" : 8,
   "linker_set_key" : "android::hardware::hidl_vec<NamedValue>::iter<true> &",
   "name" : "android::hardware::hidl_vec<NamedValue>::iter<true> &",
   "referenced_type" : "type-1367",
   "self_type" : "type-1372",
   "size" : 8,
   "source_file" : "/system/libhidl/base/include/hidl/HidlSupport.h"
  },
  {
   "alignment" : 8,
   "linker_set_key" : "android::hardware::hidl_vec<ParamFieldValues>::iter<true> &",
   "name" : "android::hardware::hidl_vec<ParamFieldValues>::iter<true> &",
   "referenced_type" : "type-1389",
   "self_type" : "type-1392",
   "size" : 8,
   "source_file" : "/system/libhidl/base/include/hidl/HidlSupport.h"
  },
  {
   "alignment" : 8,
   "linker_set_key" : "android::hardware::hidl_vec<SettingResult>::iter<true> &",
   "name" : "android::hardware::hidl_vec<SettingResult>::iter<true> &",
   "referenced_type" : "type-1415",
   "self_type" : "type-1419",
   "size" : 8,
   "source_file" : "/system/libhidl/base/include/hidl/HidlSupport.h"
  },
  {
   "alignment" : 8,
   "linker_set_key" : "android::hardware::hidl_vec<Work>::iter<true> &",
   "name" : "android::hardware::hidl_vec<Work>::iter<true> &",
   "referenced_type" : "type-1437",
   "self_type" : "type-1440",
   "size" : 8,
   "source_file" : "/system/libhidl/base/include/hidl/HidlSupport.h"
  },
  {
   "alignment" : 8,
   "linker_set_key" : "android::hardware::hidl_vec<Worklet>::iter<true> &",
   "name" : "android::hardware::hidl_vec<Worklet>::iter<true> &",
   "referenced_type" : "type-1427",
   "self_type" : "type-1430",
   "size" : 8,
   "source_file" : "/system/libhidl/base/include/hidl/HidlSupport.h"
  },
  {
   "alignment" : 8,
   "linker_set_key" : "android::hardware::hidl_vec<android::hardware::hidl_string> &",
   "name" : "android::hardware::hidl_vec<android::hardware::hidl_string> &",
   "referenced_type" : "type-636",
   "self_type" : "type-2471",
   "size" : 8,
   "source_file" : "/system/libhidl/base/include/hidl/HidlSupport.h"
  },
  {
   "alignment" : 8,
   "linker_set_key" : "android::hardware::hidl_vec<android::hardware::media::c2::V1_0::Block> &",
   "name" : "android::hardware::hidl_vec<android::hardware::media::c2::V1_0::Block> &",
   "referenced_type" : "type-542",
   "self_type" : "type-1397",
   "size" : 8,
   "source_file" : "/system/libhidl/base/include/hidl/HidlSupport.h"
  },
  {
   "alignment" : 8,
   "linker_set_key" : "android::hardware::hidl_vec<android::hardware::media::c2::V1_0::Buffer> &",
   "name" : "android::hardware::hidl_vec<android::hardware::media::c2::V1_0::Buffer> &",
   "referenced_type" : "type-554",
   "self_type" : "type-1400",
   "size" : 8,
   "source_file" : "/system/libhidl/base/include/hidl/HidlSupport.h"
  },
  {
   "alignment" : 8,
   "linker_set_key" : "android::hardware::hidl_vec<android::hardware::media::c2::V1_0::FieldDescriptor::NamedValue> &",
   "name" : "android::hardware::hidl_vec<android::hardware::media::c2::V1_0::FieldDescriptor::NamedValue> &",
   "referenced_type" : "type-468",
   "self_type" : "type-2462",
   "size" : 8,
   "source_file" : "/system/libhidl/base/include/hidl/HidlSupport.h"
  },
  {
   "alignment" : 8,
   "linker_set_key" : "android::hardware::hidl_vec<android::hardware::media::c2::V1_0::FieldDescriptor> &",
   "name" : "android::hardware::hidl_vec<android::hardware::media::c2::V1_0::FieldDescriptor> &",
   "referenced_type" : "type-495",
   "self_type" : "type-2466",
   "size" : 8,
   "source_file" : "/system/libhidl/base/include/hidl/HidlSupport.h"
  },
  {
   "alignment" : 8,
   "linker_set_key" : "android::hardware::hidl_vec<android::hardware::media::c2::V1_0::FieldSupportedValues> &",
   "name" : "android::hardware::hidl_vec<android::hardware::media::c2::V1_0::FieldSupportedValues> &",
   "referenced_type" : "type-433",
   "self_type" : "type-439",
   "size" : 8,
   "source_file" : "/system/libhidl/base/include/hidl/HidlSupport.h"
  },
  {
   "alignment" : 8,
   "linker_set_key" : "android::hardware::hidl_vec<android::hardware::media::c2::V1_0::InfoBuffer> &",
   "name" : "android::hardware::hidl_vec<android::hardware::media::c2::V1_0::InfoBuffer> &",
   "referenced_type" : "type-564",
   "self_type" : "type-1410",
   "size" : 8,
   "source_file" : "/system/libhidl/base/include/hidl/HidlSupport.h"
  },
  {
   "alignment" : 8,
   "linker_set_key" : "android::hardware::hidl_vec<android::hardware::media::c2::V1_0::ParamFieldValues> &",
   "name" : "android::hardware::hidl_vec<android::hardware::media::c2::V1_0::ParamFieldValues> &",
   "referenced_type" : "type-522",
   "self_type" : "type-528",
   "size" : 8,
   "source_file" : "/system/libhidl/base/include/hidl/HidlSupport.h"
  },
  {
   "alignment" : 8,
   "linker_set_key" : "android::hardware::hidl_vec<android::hardware::media::c2::V1_0::SettingResult> &",
   "name" : "android::hardware::hidl_vec<android::hardware::media::c2::V1_0::SettingResult> &",
   "referenced_type" : "type-582",
   "self_type" : "type-1414",
   "size" : 8,
   "source_file" : "/system/libhidl/base/include/hidl/HidlSupport.h"
  },
  {
   "alignment" : 8,
   "linker_set_key" : "android::hardware::hidl_vec<android::hardware::media::c2::V1_0::Worklet> &",
   "name" : "android::hardware::hidl_vec<android::hardware::media::c2::V1_0::Worklet> &",
   "referenced_type" : "type-592",
   "self_type" : "type-1426",
   "size" : 8,
   "source_file" : "/system/libhidl/base/include/hidl/HidlSupport.h"
  },
  {
   "alignment" : 8,
   "linker_set_key" : "android::hardware::hidl_vec<unsigned char> &",
   "name" : "android::hardware::hidl_vec<unsigned char> &",
   "referenced_type" : "type-395",
   "self_type" : "type-2685",
   "size" : 8,
   "source_file" : "/system/libhidl/base/include/hidl/HidlSupport.h"
  },
  {
   "alignment" : 8,
   "linker_set_key" : "android::hardware::hidl_vec<unsigned int> &",
   "name" : "android::hardware::hidl_vec<unsigned int> &",
   "referenced_type" : "type-402",
   "self_type" : "type-2689",
   "size" : 8,
   "source_file" : "/system/libhidl/base/include/hidl/HidlSupport.h"
  },
  {
   "alignment" : 8,
   "linker_set_key" : "android::hardware::hidl_vec<unsigned int>::iter<true> &",
   "name" : "android::hardware::hidl_vec<unsigned int>::iter<true> &",
   "referenced_type" : "type-1351",
   "self_type" : "type-1354",
   "size" : 8,
   "source_file" : "/system/libhidl/base/include/hidl/HidlSupport.h"
  },
  {
   "alignment" : 8,
   "linker_set_key" : "android::hardware::media::c2::V1_0::BaseBlock &",
   "name" : "android::hardware::media::c2::V1_0::BaseBlock &",
   "referenced_type" : "type-625",
   "self_type" : "type-1312",
   "size" : 8,
   "source_file" : "/system/libhidl/base/include/hidl/HidlInternal.h"
  },
  {
   "alignment" : 8,
   "linker_set_key" : "android::hardware::media::c2::V1_0::Block &",
   "name" : "android::hardware::media::c2::V1_0::Block &",
   "referenced_type" : "type-546",
   "self_type" : "type-1304",
   "size" : 8,
   "source_file" : "/system/libhidl/base/include/hidl/HidlInternal.h"
  },
  {
   "alignment" : 8,
   "linker_set_key" : "android::hardware::media::c2::V1_0::Buffer &",
   "name" : "android::hardware::media::c2::V1_0::Buffer &",
   "referenced_type" : "type-558",
   "self_type" : "type-1305",
   "size" : 8,
   "source_file" : "/system/libhidl/base/include/hidl/HidlInternal.h"
  },
  {
   "alignment" : 8,
   "linker_set_key" : "android::hardware::media::c2::V1_0::FieldDescriptor &",
   "name" : "android::hardware::media::c2::V1_0::FieldDescriptor &",
   "referenced_type" : "type-499",
   "self_type" : "type-1865",
   "size" : 8,
   "source_file" : "/system/libhidl/base/include/hidl/HidlInternal.h"
  },
  {
   "alignment" : 8,
   "linker_set_key" : "android::hardware::media::c2::V1_0::FieldDescriptor::NamedValue &",
   "name" : "android::hardware::media::c2::V1_0::FieldDescriptor::NamedValue &",
   "referenced_type" : "type-472",
   "self_type" : "type-1854",
   "size" : 8,
   "source_file" : "/system/libhidl/base/include/hidl/HidlInternal.h"
  },
  {
   "alignment" : 8,
   "linker_set_key" : "android::hardware::media::c2::V1_0::FieldSupportedValues &",
   "name" : "android::hardware::media::c2::V1_0::FieldSupportedValues &",
   "referenced_type" : "type-437",
   "self_type" : "type-3187",
   "size" : 8,
   "source_file" : "/system/libhidl/base/include/hidl/HidlInternal.h"
  },
  {
   "alignment" : 8,
   "linker_set_key" : "android::hardware::media::c2::V1_0::FieldSupportedValuesQueryResult &",
   "name" : "android::hardware::media::c2::V1_0::FieldSupportedValuesQueryResult &",
   "referenced_type" : "type-900",
   "self_type" : "type-2650",
   "size" : 8,
   "source_file" : "/system/libhidl/base/include/hidl/HidlInternal.h"
  },
  {
   "alignment" : 8,
   "linker_set_key" : "android::hardware::media::c2::V1_0::IComponentListener::InputBuffer &",
   "name" : "android::hardware::media::c2::V1_0::IComponentListener::InputBuffer &",
   "referenced_type" : "type-2892",
   "self_type" : "type-2897",
   "size" : 8,
   "source_file" : "/system/libhidl/base/include/hidl/HidlInternal.h"
  },
  {
   "alignment" : 8,
   "linker_set_key" : "android::hardware::media::c2::V1_0::IComponentListener::RenderedFrame &",
   "name" : "android::hardware::media::c2::V1_0::IComponentListener::RenderedFrame &",
   "referenced_type" : "type-680",
   "self_type" : "type-4018",
   "size" : 8,
   "source_file" : "/system/libhidl/base/include/hidl/HidlInternal.h"
  },
  {
   "alignment" : 8,
   "linker_set_key" : "android::hardware::media::c2::V1_0::IComponentStore::ComponentTraits &",
   "name" : "android::hardware::media::c2::V1_0::IComponentStore::ComponentTraits &",
   "referenced_type" : "type-1241",
   "self_type" : "type-2266",
   "size" : 8,
   "source_file" : "/system/libhidl/base/include/hidl/HidlInternal.h"
  },
  {
   "alignment" : 8,
   "linker_set_key" : "android::hardware::media::c2::V1_0::InfoBuffer &",
   "name" : "android::hardware::media::c2::V1_0::InfoBuffer &",
   "referenced_type" : "type-568",
   "self_type" : "type-1306",
   "size" : 8,
   "source_file" : "/system/libhidl/base/include/hidl/HidlInternal.h"
  },
  {
   "alignment" : 8,
   "linker_set_key" : "android::hardware::media::c2::V1_0::ParamDescriptor &",
   "name" : "android::hardware::media::c2::V1_0::ParamDescriptor &",
   "referenced_type" : "type-840",
   "self_type" : "type-2639",
   "size" : 8,
   "source_file" : "/system/libhidl/base/include/hidl/HidlInternal.h"
  },
  {
   "alignment" : 8,
   "linker_set_key" : "android::hardware::media::c2::V1_0::ParamFieldValues &",
   "name" : "android::hardware::media::c2::V1_0::ParamFieldValues &",
   "referenced_type" : "type-526",
   "self_type" : "type-2772",
   "size" : 8,
   "source_file" : "/system/libhidl/base/include/hidl/HidlInternal.h"
  },
  {
   "alignment" : 8,
   "linker_set_key" : "android::hardware::media::c2::V1_0::SettingResult &",
   "name" : "android::hardware::media::c2::V1_0::SettingResult &",
   "referenced_type" : "type-586",
   "self_type" : "type-3859",
   "size" : 8,
   "source_file" : "/system/libhidl/base/include/hidl/HidlInternal.h"
  },
  {
   "alignment" : 8,
   "linker_set_key" : "android::hardware::media::c2::V1_0::StructDescriptor &",
   "name" : "android::hardware::media::c2::V1_0::StructDescriptor &",
   "referenced_type" : "type-869",
   "self_type" : "type-2275",
   "size" : 8,
   "source_file" : "/system/libhidl/base/include/hidl/HidlInternal.h"
  },
  {
   "alignment" : 8,
   "linker_set_key" : "android::hardware::media::c2::V1_0::Work &",
   "name" : "android::hardware::media::c2::V1_0::Work &",
   "referenced_type" : "type-607",
   "self_type" : "type-1310",
   "size" : 8,
   "source_file" : "/system/libhidl/base/include/hidl/HidlInternal.h"
  },
  {
   "alignment" : 8,
   "linker_set_key" : "android::hardware::media::c2::V1_0::Worklet &",
   "name" : "android::hardware::media::c2::V1_0::Worklet &",
   "referenced_type" : "type-596",
   "self_type" : "type-1308",
   "size" : 8,
   "source_file" : "/system/libhidl/base/include/hidl/HidlInternal.h"
  },
  {
   "alignment" : 8,
   "linker_set_key" : "android::hardware::media::c2::V1_0::utils::ComponentStore::ComponentStatus &",
   "name" : "android::hardware::media::c2::V1_0::utils::ComponentStore::ComponentStatus &",
   "referenced_type" : "type-1983",
   "self_type" : "type-1982",
   "size" : 8,
   "source_file" : "/frameworks/av/media/codec2/hidl/1.0/utils/include/codec2/hidl/1.0/ComponentStore.h"
  },
  {
   "alignment" : 8,
   "linker_set_key" : "android::hardware::media::c2::V1_0::utils::InputBufferManager &",
   "name" : "android::hardware::media::c2::V1_0::utils::InputBufferManager &",
   "referenced_type" : "type-2790",
   "self_type" : "type-2802",
   "size" : 8,
   "source_file" : "/frameworks/av/media/codec2/hidl/1.0/utils/include/codec2/hidl/1.0/InputBufferManager.h"
  },
  {
   "alignment" : 8,
   "linker_set_key" : "android::key_value_pair_t<unsigned int, unsigned int> &",
   "name" : "android::key_value_pair_t<unsigned int, unsigned int> &",
   "referenced_type" : "type-1991",
   "self_type" : "type-2450",
   "size" : 8,
   "source_file" : "/system/core/libutils/include/utils/TypeHelpers.h"
  },
  {
   "alignment" : 8,
   "linker_set_key" : "android::sp<android::Fence> &",
   "name" : "android::sp<android::Fence> &",
   "referenced_type" : "type-2049",
   "self_type" : "type-2379",
   "size" : 8,
   "source_file" : "/system/core/libutils/include/utils/StrongPointer.h"
  },
  {
   "alignment" : 8,
   "linker_set_key" : "android::sp<android::hardware::media::bufferpool::V2_0::IClientManager> &",
   "name" : "android::sp<android::hardware::media::bufferpool::V2_0::IClientManager> &",
   "referenced_type" : "type-1261",
   "self_type" : "type-1320",
   "size" : 8,
   "source_file" : "/system/core/libutils/include/utils/StrongPointer.h"
  },
  {
   "alignment" : 8,
   "linker_set_key" : "android::sp<android::hardware::media::bufferpool::V2_0::implementation::ClientManager> &",
   "name" : "android::sp<android::hardware::media::bufferpool::V2_0::implementation::ClientManager> &",
   "referenced_type" : "type-1255",
   "self_type" : "type-1321",
   "size" : 8,
   "source_file" : "/system/core/libutils/include/utils/StrongPointer.h"
  },
  {
   "alignment" : 8,
   "linker_set_key" : "android::sp<android::hardware::media::c2::V1_0::IComponentInterface> &",
   "name" : "android::sp<android::hardware::media::c2::V1_0::IComponentInterface> &",
   "referenced_type" : "type-2313",
   "self_type" : "type-2312",
   "size" : 8,
   "source_file" : "/system/core/libutils/include/utils/StrongPointer.h"
  },
  {
   "alignment" : 8,
   "linker_set_key" : "android::sp<android::hardware::media::c2::V1_0::IConfigurable> &",
   "name" : "android::sp<android::hardware::media::c2::V1_0::IConfigurable> &",
   "referenced_type" : "type-3572",
   "self_type" : "type-3571",
   "size" : 8,
   "source_file" : "/system/core/libutils/include/utils/StrongPointer.h"
  },
  {
   "alignment" : 8,
   "linker_set_key" : "android::sp<android::hardware::media::c2::V1_0::IInputSurfaceConnection> &",
   "name" : "android::sp<android::hardware::media::c2::V1_0::IInputSurfaceConnection> &",
   "referenced_type" : "type-4285",
   "self_type" : "type-4290",
   "size" : 8,
   "source_file" : "/system/core/libutils/include/utils/StrongPointer.h"
  },
  {
   "alignment" : 8,
   "linker_set_key" : "android::sp<android::hardware::media::c2::V1_0::utils::Component::Sink> &",
   "name" : "android::sp<android::hardware::media::c2::V1_0::utils::Component::Sink> &",
   "referenced_type" : "type-2353",
   "self_type" : "type-4400",
   "size" : 8,
   "source_file" : "/system/core/libutils/include/utils/StrongPointer.h"
  },
  {
   "alignment" : 8,
   "linker_set_key" : "android::sp<android::hardware::media::c2::V1_0::utils::Component> &",
   "name" : "android::sp<android::hardware::media::c2::V1_0::utils::Component> &",
   "referenced_type" : "type-2343",
   "self_type" : "type-2342",
   "size" : 8,
   "source_file" : "/system/core/libutils/include/utils/StrongPointer.h"
  },
  {
   "alignment" : 8,
   "linker_set_key" : "android::sp<android::hardware::media::c2::V1_0::utils::InputSurfaceConnection::Impl> &",
   "name" : "android::sp<android::hardware::media::c2::V1_0::utils::InputSurfaceConnection::Impl> &",
   "referenced_type" : "type-3316",
   "self_type" : "type-3622",
   "size" : 8,
   "source_file" : "/system/core/libutils/include/utils/StrongPointer.h"
  },
  {
   "alignment" : 8,
   "linker_set_key" : "android::sp<android::hardware::media::c2::V1_0::utils::InputSurfaceConnection> &",
   "name" : "android::sp<android::hardware::media::c2::V1_0::utils::InputSurfaceConnection> &",
   "referenced_type" : "type-3312",
   "self_type" : "type-3355",
   "size" : 8,
   "source_file" : "/system/core/libutils/include/utils/StrongPointer.h"
  },
  {
   "alignment" : 8,
   "linker_set_key" : "android::wp<android::ALooper> &",
   "name" : "android::wp<android::ALooper> &",
   "referenced_type" : "type-2242",
   "self_type" : "type-2297",
   "size" : 8,
   "source_file" : "/system/core/libutils/include/utils/RefBase.h"
  },
  {
   "alignment" : 8,
   "linker_set_key" : "const C2Component::Traits &",
   "name" : "const C2Component::Traits &",
   "referenced_type" : "type-1230",
   "self_type" : "type-1238",
   "size" : 8,
   "source_file" : "/frameworks/av/media/codec2/hidl/1.0/utils/include/codec2/hidl/1.0/types.h"
  },
  {
   "alignment" : 8,
   "linker_set_key" : "const C2ConstGraphicBlock &",
   "name" : "const C2ConstGraphicBlock &",
   "referenced_type" : "type-1299",
   "self_type" : "type-1298",
   "size" : 8,
   "source_file" : "/frameworks/av/media/codec2/hidl/1.0/utils/include/codec2/hidl/1.0/types.h"
  },
  {
   "alignment" : 8,
   "linker_set_key" : "const C2EasyEnum<c2_bool_t> &",
   "name" : "const C2EasyEnum<c2_bool_t> &",
   "referenced_type" : "type-3413",
   "self_type" : "type-3416",
   "size" : 8,
   "source_file" : "/frameworks/av/media/codec2/core/include/C2Param.h"
  },
  {
   "alignment" : 8,
   "linker_set_key" : "const C2FieldDescriptor &",
   "name" : "const C2FieldDescriptor &",
   "referenced_type" : "type-1148",
   "self_type" : "type-1155",
   "size" : 8,
   "source_file" : "/frameworks/av/media/codec2/core/include/C2Param.h"
  },
  {
   "alignment" : 8,
   "linker_set_key" : "const C2FieldSupportedValues &",
   "name" : "const C2FieldSupportedValues &",
   "referenced_type" : "type-1335",
   "self_type" : "type-1336",
   "size" : 8,
   "source_file" : "/frameworks/av/media/codec2/core/include/C2Param.h"
  },
  {
   "alignment" : 8,
   "linker_set_key" : "const C2FieldSupportedValuesQuery &",
   "name" : "const C2FieldSupportedValuesQuery &",
   "referenced_type" : "type-1219",
   "self_type" : "type-1218",
   "size" : 8,
   "source_file" : "/frameworks/av/media/codec2/hidl/1.0/utils/include/codec2/hidl/1.0/types.h"
  },
  {
   "alignment" : 8,
   "linker_set_key" : "const C2FrameData &",
   "name" : "const C2FrameData &",
   "referenced_type" : "type-2787",
   "self_type" : "type-2788",
   "size" : 8,
   "source_file" : "/frameworks/av/media/codec2/hidl/1.0/utils/include/codec2/hidl/1.0/InputBufferManager.h"
  },
  {
   "alignment" : 8,
   "linker_set_key" : "const C2MemoryUsage &",
   "name" : "const C2MemoryUsage &",
   "referenced_type" : "type-1620",
   "self_type" : "type-1621",
   "size" : 8,
   "source_file" : "/frameworks/av/media/codec2/core/include/android-C2Buffer.h"
  },
  {
   "alignment" : 8,
   "linker_set_key" : "const C2Param &",
   "name" : "const C2Param &",
   "referenced_type" : "type-1037",
   "self_type" : "type-1045",
   "size" : 8,
   "source_file" : "/frameworks/av/media/codec2/core/include/C2Param.h"
  },
  {
   "alignment" : 8,
   "linker_set_key" : "const C2Param::CoreIndex &",
   "name" : "const C2Param::CoreIndex &",
   "referenced_type" : "type-993",
   "self_type" : "type-1003",
   "size" : 8,
   "source_file" : "/frameworks/av/media/codec2/core/include/C2Param.h"
  },
  {
   "alignment" : 8,
   "linker_set_key" : "const C2Param::Index &",
   "name" : "const C2Param::Index &",
   "referenced_type" : "type-1028",
   "self_type" : "type-1036",
   "size" : 8,
   "source_file" : "/frameworks/av/media/codec2/core/include/C2Param.h"
  },
  {
   "alignment" : 8,
   "linker_set_key" : "const C2Param::Type &",
   "name" : "const C2Param::Type &",
   "referenced_type" : "type-1008",
   "self_type" : "type-1027",
   "size" : 8,
   "source_file" : "/frameworks/av/media/codec2/core/include/C2Param.h"
  },
  {
   "alignment" : 8,
   "linker_set_key" : "const C2ParamDescriptor &",
   "name" : "const C2ParamDescriptor &",
   "referenced_type" : "type-1210",
   "self_type" : "type-1209",
   "size" : 8,
   "source_file" : "/frameworks/av/media/codec2/hidl/1.0/utils/include/codec2/hidl/1.0/types.h"
  },
  {
   "alignment" : 8,
   "linker_set_key" : "const C2ParamField &",
   "name" : "const C2ParamField &",
   "referenced_type" : "type-1062",
   "self_type" : "type-1069",
   "size" : 8,
   "source_file" : "/frameworks/av/media/codec2/core/include/C2Param.h"
  },
  {
   "alignment" : 8,
   "linker_set_key" : "const C2ParamFieldValues &",
   "name" : "const C2ParamFieldValues &",
   "referenced_type" : "type-1333",
   "self_type" : "type-1334",
   "size" : 8,
   "source_file" : "/frameworks/av/media/codec2/core/include/C2Param.h"
  },
  {
   "alignment" : 8,
   "linker_set_key" : "const C2Rect &",
   "name" : "const C2Rect &",
   "referenced_type" : "type-4076",
   "self_type" : "type-4130",
   "size" : 8,
   "source_file" : "/frameworks/av/media/codec2/core/include/C2Buffer.h"
  },
  {
   "alignment" : 8,
   "linker_set_key" : "const C2Segment &",
   "name" : "const C2Segment &",
   "referenced_type" : "type-1635",
   "self_type" : "type-1746",
   "size" : 8,
   "source_file" : "/frameworks/av/media/codec2/core/include/C2Buffer.h"
  },
  {
   "alignment" : 8,
   "linker_set_key" : "const C2SettingResult &",
   "name" : "const C2SettingResult &",
   "referenced_type" : "type-1200",
   "self_type" : "type-1206",
   "size" : 8,
   "source_file" : "/frameworks/av/media/codec2/hidl/1.0/utils/include/codec2/hidl/1.0/types.h"
  },
  {
   "alignment" : 8,
   "linker_set_key" : "const C2StructDescriptor &",
   "name" : "const C2StructDescriptor &",
   "referenced_type" : "type-1189",
   "self_type" : "type-1247",
   "size" : 8,
   "source_file" : "/frameworks/av/media/codec2/hidl/1.0/utils/include/codec2/hidl/1.0/types.h"
  },
  {
   "alignment" : 8,
   "linker_set_key" : "const _C2FieldId &",
   "name" : "const _C2FieldId &",
   "referenced_type" : "type-1053",
   "self_type" : "type-1055",
   "size" : 8,
   "source_file" : "/frameworks/av/media/codec2/core/include/C2Param.h"
  },
  {
   "alignment" : 8,
   "linker_set_key" : "const _C2LinearCapacityAspect &",
   "name" : "const _C2LinearCapacityAspect &",
   "referenced_type" : "type-1823",
   "self_type" : "type-2496",
   "size" : 8,
   "source_file" : "/frameworks/av/media/codec2/core/include/C2Buffer.h"
  },
  {
   "alignment" : 8,
   "linker_set_key" : "const _C2LinearRangeAspect &",
   "name" : "const _C2LinearRangeAspect &",
   "referenced_type" : "type-2012",
   "self_type" : "type-2294",
   "size" : 8,
   "source_file" : "/frameworks/av/media/codec2/core/include/C2Buffer.h"
  },
  {
   "alignment" : 8,
   "linker_set_key" : "const _C2PlanarCapacityAspect &",
   "name" : "const _C2PlanarCapacityAspect &",
   "referenced_type" : "type-5",
   "self_type" : "type-772",
   "size" : 8,
   "source_file" : "/frameworks/av/media/codec2/core/include/C2Buffer.h"
  },
  {
   "alignment" : 8,
   "linker_set_key" : "const _C2PlanarSectionAspect &",
   "name" : "const _C2PlanarSectionAspect &",
   "referenced_type" : "type-431",
   "self_type" : "type-795",
   "size" : 8,
   "source_file" : "/frameworks/av/media/codec2/core/include/C2Buffer.h"
  },
  {
   "alignment" : 8,
   "linker_set_key" : "const _C2StructCheck<C2Hidl_Range, 0, 3758096384>::(anonymous enum at frameworks/av/media/codec2/core/include/C2ParamDef.h:96:5) &",
   "name" : "const _C2StructCheck<C2Hidl_Range, 0, 3758096384>::(anonymous enum at frameworks/av/media/codec2/core/include/C2ParamDef.h:96:5) &",
   "referenced_type" : "type-1135",
   "self_type" : "type-1137",
   "size" : 8,
   "source_file" : "/frameworks/av/media/codec2/core/include/C2Param.h"
  },
  {
   "alignment" : 8,
   "linker_set_key" : "const _C2StructCheck<C2Hidl_Rect, 1, 3758096384>::(anonymous enum at frameworks/av/media/codec2/core/include/C2ParamDef.h:96:5) &",
   "name" : "const _C2StructCheck<C2Hidl_Rect, 1, 3758096384>::(anonymous enum at frameworks/av/media/codec2/core/include/C2ParamDef.h:96:5) &",
   "referenced_type" : "type-1138",
   "self_type" : "type-1140",
   "size" : 8,
   "source_file" : "/frameworks/av/media/codec2/core/include/C2Param.h"
  },
  {
   "alignment" : 8,
   "linker_set_key" : "const _C2StructCheck<C2PictureSizeStruct, 6144, 3254779904>::(anonymous enum at frameworks/av/media/codec2/core/include/C2ParamDef.h:96:5) &",
   "name" : "const _C2StructCheck<C2PictureSizeStruct, 6144, 3254779904>::(anonymous enum at frameworks/av/media/codec2/core/include/C2ParamDef.h:96:5) &",
   "referenced_type" : "type-1090",
   "self_type" : "type-1092",
   "size" : 8,
   "source_file" : "/frameworks/av/media/codec2/core/include/C2Param.h"
  },
  {
   "alignment" : 8,
   "linker_set_key" : "const _C2StructCheck<C2PictureSizeStruct, 6144, 3254779904>::(anonymous enum at frameworks/av/media/codec2/core/include/C2ParamDef.h:96:5) &",
   "name" : "const _C2StructCheck<C2PictureSizeStruct, 6144, 3254779904>::(anonymous enum at frameworks/av/media/codec2/core/include/C2ParamDef.h:96:5) &",
   "referenced_type" : "type-3692",
   "self_type" : "type-3694",
   "size" : 8,
   "source_file" : "/frameworks/av/media/codec2/core/include/C2Param.h"
  },
  {
   "alignment" : 8,
   "linker_set_key" : "const _C2StructCheck<C2SimpleValueStruct<C2EasyEnum<c2_bool_t> >, 16393, 1610612736>::(anonymous enum at frameworks/av/media/codec2/core/include/C2ParamDef.h:96:5) &",
   "name" : "const _C2StructCheck<C2SimpleValueStruct<C2EasyEnum<c2_bool_t> >, 16393, 1610612736>::(anonymous enum at frameworks/av/media/codec2/core/include/C2ParamDef.h:96:5) &",
   "referenced_type" : "type-3409",
   "self_type" : "type-3411",
   "size" : 8,
   "source_file" : "/frameworks/av/media/codec2/core/include/C2Param.h"
  },
  {
   "alignment" : 8,
   "linker_set_key" : "const _C2StructCheck<C2SimpleValueStruct<C2EasyEnum<c2_bool_t> >, 16393, 1610612736>::(anonymous enum at frameworks/av/media/codec2/core/include/C2ParamDef.h:96:5) &",
   "name" : "const _C2StructCheck<C2SimpleValueStruct<C2EasyEnum<c2_bool_t> >, 16393, 1610612736>::(anonymous enum at frameworks/av/media/codec2/core/include/C2ParamDef.h:96:5) &",
   "referenced_type" : "type-760",
   "self_type" : "type-763",
   "size" : 8,
   "source_file" : "/frameworks/av/media/codec2/core/include/C2Param.h"
  },
  {
   "alignment" : 8,
   "linker_set_key" : "const _C2StructCheck<C2SimpleValueStruct<unsigned long>, 2076, 1107296256>::(anonymous enum at frameworks/av/media/codec2/core/include/C2ParamDef.h:96:5) &",
   "name" : "const _C2StructCheck<C2SimpleValueStruct<unsigned long>, 2076, 1107296256>::(anonymous enum at frameworks/av/media/codec2/core/include/C2ParamDef.h:96:5) &",
   "referenced_type" : "type-1086",
   "self_type" : "type-1089",
   "size" : 8,
   "source_file" : "/frameworks/av/media/codec2/core/include/C2Param.h"
  },
  {
   "alignment" : 8,
   "linker_set_key" : "const _C2StructCheck<C2SimpleValueStruct<unsigned long>, 2076, 1107296256>::(anonymous enum at frameworks/av/media/codec2/core/include/C2ParamDef.h:96:5) &",
   "name" : "const _C2StructCheck<C2SimpleValueStruct<unsigned long>, 2076, 1107296256>::(anonymous enum at frameworks/av/media/codec2/core/include/C2ParamDef.h:96:5) &",
   "referenced_type" : "type-3688",
   "self_type" : "type-3690",
   "size" : 8,
   "source_file" : "/frameworks/av/media/codec2/core/include/C2Param.h"
  },
  {
   "alignment" : 8,
   "linker_set_key" : "const android::AString &",
   "name" : "const android::AString &",
   "referenced_type" : "type-2178",
   "self_type" : "type-2180",
   "size" : 8,
   "source_file" : "/frameworks/av/media/libstagefright/foundation/include/media/stagefright/foundation/AString.h"
  },
  {
   "alignment" : 8,
   "linker_set_key" : "const android::FloatRect &",
   "name" : "const android::FloatRect &",
   "referenced_type" : "type-2101",
   "self_type" : "type-2103",
   "size" : 8,
   "source_file" : "/frameworks/native/libs/ui/include/ui/FloatRect.h"
  },
  {
   "alignment" : 8,
   "linker_set_key" : "const android::GrallocMapper &",
   "name" : "const android::GrallocMapper &",
   "referenced_type" : "type-2095",
   "self_type" : "type-2094",
   "size" : 8,
   "source_file" : "/frameworks/native/libs/ui/include/ui/GraphicBufferMapper.h"
  },
  {
   "alignment" : 8,
   "linker_set_key" : "const android::GrallocMapper &",
   "name" : "const android::GrallocMapper &",
   "referenced_type" : "type-3144",
   "self_type" : "type-3143",
   "size" : 8,
   "source_file" : "/frameworks/native/libs/ui/include/ui/GraphicBufferMapper.h"
  },
  {
   "alignment" : 8,
   "linker_set_key" : "const android::GrallocMapper &",
   "name" : "const android::GrallocMapper &",
   "referenced_type" : "type-3543",
   "self_type" : "type-3542",
   "size" : 8,
   "source_file" : "/frameworks/native/libs/ui/include/ui/GraphicBufferMapper.h"
  },
  {
   "alignment" : 8,
   "linker_set_key" : "const android::GrallocMapper &",
   "name" : "const android::GrallocMapper &",
   "referenced_type" : "type-4282",
   "self_type" : "type-4281",
   "size" : 8,
   "source_file" : "/frameworks/native/libs/ui/include/ui/GraphicBufferMapper.h"
  },
  {
   "alignment" : 8,
   "linker_set_key" : "const android::GrallocMapper &",
   "name" : "const android::GrallocMapper &",
   "referenced_type" : "type-549",
   "self_type" : "type-548",
   "size" : 8,
   "source_file" : "/frameworks/native/libs/ui/include/ui/GraphicBufferMapper.h"
  },
  {
   "alignment" : 8,
   "linker_set_key" : "const android::GrallocMapper &",
   "name" : "const android::GrallocMapper &",
   "referenced_type" : "type-931",
   "self_type" : "type-930",
   "size" : 8,
   "source_file" : "/frameworks/native/libs/ui/include/ui/GraphicBufferMapper.h"
  },
  {
   "alignment" : 8,
   "linker_set_key" : "const android::GraphicBufferMapper &",
   "name" : "const android::GraphicBufferMapper &",
   "referenced_type" : "type-2097",
   "self_type" : "type-2132",
   "size" : 8,
   "source_file" : "/frameworks/native/libs/ui/include/ui/GraphicBuffer.h"
  },
  {
   "alignment" : 8,
   "linker_set_key" : "const android::Point &",
   "name" : "const android::Point &",
   "referenced_type" : "type-2106",
   "self_type" : "type-2108",
   "size" : 8,
   "source_file" : "/frameworks/native/libs/ui/include/ui/Point.h"
  },
  {
   "alignment" : 8,
   "linker_set_key" : "const android::Rect &",
   "name" : "const android::Rect &",
   "referenced_type" : "type-2007",
   "self_type" : "type-2008",
   "size" : 8,
   "source_file" : "/system/core/libutils/include/utils/Vector.h"
  },
  {
   "alignment" : 8,
   "linker_set_key" : "const android::Region &",
   "name" : "const android::Region &",
   "referenced_type" : "type-2133",
   "self_type" : "type-2135",
   "size" : 8,
   "source_file" : "/frameworks/native/libs/ui/include/ui/Region.h"
  },
  {
   "alignment" : 8,
   "linker_set_key" : "const android::String16 &",
   "name" : "const android::String16 &",
   "referenced_type" : "type-3338",
   "self_type" : "type-3354",
   "size" : 8,
   "source_file" : "/system/core/libutils/include/utils/String16.h"
  },
  {
   "alignment" : 8,
   "linker_set_key" : "const android::String8 &",
   "name" : "const android::String8 &",
   "referenced_type" : "type-3282",
   "self_type" : "type-3289",
   "size" : 8,
   "source_file" : "/system/core/libutils/include/utils/String8.h"
  },
  {
   "alignment" : 8,
   "linker_set_key" : "const android::hardware::Parcel &",
   "name" : "const android::hardware::Parcel &",
   "referenced_type" : "type-3779",
   "self_type" : "type-3788",
   "size" : 8,
   "source_file" : "/system/libhwbinder/include/hwbinder/Parcel.h"
  },
  {
   "alignment" : 8,
   "linker_set_key" : "const android::hardware::Status &",
   "name" : "const android::hardware::Status &",
   "referenced_type" : "type-4428",
   "self_type" : "type-4429",
   "size" : 8,
   "source_file" : "/system/libhidl/base/include/hidl/Status.h"
  },
  {
   "alignment" : 8,
   "linker_set_key" : "const android::hardware::details::const_accessor<int, 4> &",
   "name" : "const android::hardware::details::const_accessor<int, 4> &",
   "referenced_type" : "type-726",
   "self_type" : "type-791",
   "size" : 8,
   "source_file" : "/system/libhidl/base/include/hidl/HidlSupport.h"
  },
  {
   "alignment" : 8,
   "linker_set_key" : "const android::hardware::details::const_accessor<unsigned int, 10> &",
   "name" : "const android::hardware::details::const_accessor<unsigned int, 10> &",
   "referenced_type" : "type-714",
   "self_type" : "type-790",
   "size" : 8,
   "source_file" : "/system/libhidl/base/include/hidl/HidlSupport.h"
  },
  {
   "alignment" : 8,
   "linker_set_key" : "const android::hardware::graphics::bufferqueue::V1_0::IGraphicBufferProducer::FrameEventsDelta &",
   "name" : "const android::hardware::graphics::bufferqueue::V1_0::IGraphicBufferProducer::FrameEventsDelta &",
   "referenced_type" : "type-3913",
   "self_type" : "type-3912",
   "size" : 8,
   "source_file" : "/system/libhidl/base/include/hidl/HidlInternal.h"
  },
  {
   "alignment" : 8,
   "linker_set_key" : "const android::hardware::hidl_array<int, 4> &",
   "name" : "const android::hardware::hidl_array<int, 4> &",
   "referenced_type" : "type-734",
   "self_type" : "type-3939",
   "size" : 8,
   "source_file" : "/system/libhidl/base/include/hidl/HidlInternal.h"
  },
  {
   "alignment" : 8,
   "linker_set_key" : "const android::hardware::hidl_array<unsigned int, 10> &",
   "name" : "const android::hardware::hidl_array<unsigned int, 10> &",
   "referenced_type" : "type-731",
   "self_type" : "type-801",
   "size" : 8,
   "source_file" : "/system/libhidl/base/include/hidl/HidlSupport.h"
  },
  {
   "alignment" : 8,
   "linker_set_key" : "const android::hardware::hidl_handle &",
   "name" : "const android::hardware::hidl_handle &",
   "referenced_type" : "type-793",
   "self_type" : "type-794",
   "size" : 8,
   "source_file" : "/system/libhidl/base/include/hidl/HidlSupport.h"
  },
  {
   "alignment" : 8,
   "linker_set_key" : "const android::hardware::hidl_memory &",
   "name" : "const android::hardware::hidl_memory &",
   "referenced_type" : "type-359",
   "self_type" : "type-364",
   "size" : 8,
   "source_file" : "/system/libhidl/base/include/hidl/HidlSupport.h"
  },
  {
   "alignment" : 8,
   "linker_set_key" : "const android::hardware::hidl_string &",
   "name" : "const android::hardware::hidl_string &",
   "referenced_type" : "type-3946",
   "self_type" : "type-3945",
   "size" : 8,
   "source_file" : "/system/libhidl/base/include/hidl/HidlInternal.h"
  },
  {
   "alignment" : 8,
   "linker_set_key" : "const android::hardware::hidl_vec<Buffer>::iter<true> &",
   "name" : "const android::hardware::hidl_vec<Buffer>::iter<true> &",
   "referenced_type" : "type-1407",
   "self_type" : "type-1409",
   "size" : 8,
   "source_file" : "/system/libhidl/base/include/hidl/HidlSupport.h"
  },
  {
   "alignment" : 8,
   "linker_set_key" : "const android::hardware::hidl_vec<FieldDescriptor>::iter<true> &",
   "name" : "const android::hardware::hidl_vec<FieldDescriptor>::iter<true> &",
   "referenced_type" : "type-1383",
   "self_type" : "type-1385",
   "size" : 8,
   "source_file" : "/system/libhidl/base/include/hidl/HidlSupport.h"
  },
  {
   "alignment" : 8,
   "linker_set_key" : "const android::hardware::hidl_vec<FieldSupportedValuesQuery>::iter<true> &",
   "name" : "const android::hardware::hidl_vec<FieldSupportedValuesQuery>::iter<true> &",
   "referenced_type" : "type-2711",
   "self_type" : "type-2714",
   "size" : 8,
   "source_file" : "/system/libhidl/base/include/hidl/HidlSupport.h"
  },
  {
   "alignment" : 8,
   "linker_set_key" : "const android::hardware::hidl_vec<NamedValue>::iter<true> &",
   "name" : "const android::hardware::hidl_vec<NamedValue>::iter<true> &",
   "referenced_type" : "type-1373",
   "self_type" : "type-1375",
   "size" : 8,
   "source_file" : "/system/libhidl/base/include/hidl/HidlSupport.h"
  },
  {
   "alignment" : 8,
   "linker_set_key" : "const android::hardware::hidl_vec<ParamFieldValues>::iter<true> &",
   "name" : "const android::hardware::hidl_vec<ParamFieldValues>::iter<true> &",
   "referenced_type" : "type-1393",
   "self_type" : "type-1395",
   "size" : 8,
   "source_file" : "/system/libhidl/base/include/hidl/HidlSupport.h"
  },
  {
   "alignment" : 8,
   "linker_set_key" : "const android::hardware::hidl_vec<SettingResult>::iter<true> &",
   "name" : "const android::hardware::hidl_vec<SettingResult>::iter<true> &",
   "referenced_type" : "type-1420",
   "self_type" : "type-1422",
   "size" : 8,
   "source_file" : "/system/libhidl/base/include/hidl/HidlSupport.h"
  },
  {
   "alignment" : 8,
   "linker_set_key" : "const android::hardware::hidl_vec<Work>::iter<true> &",
   "name" : "const android::hardware::hidl_vec<Work>::iter<true> &",
   "referenced_type" : "type-1441",
   "self_type" : "type-1443",
   "size" : 8,
   "source_file" : "/system/libhidl/base/include/hidl/HidlSupport.h"
  },
  {
   "alignment" : 8,
   "linker_set_key" : "const android::hardware::hidl_vec<Worklet>::iter<true> &",
   "name" : "const android::hardware::hidl_vec<Worklet>::iter<true> &",
   "referenced_type" : "type-1431",
   "self_type" : "type-1433",
   "size" : 8,
   "source_file" : "/system/libhidl/base/include/hidl/HidlSupport.h"
  },
  {
   "alignment" : 8,
   "linker_set_key" : "const android::hardware::hidl_vec<android::hardware::graphics::bufferqueue::V1_0::IGraphicBufferProducer::FrameEventsDelta> &",
   "name" : "const android::hardware::hidl_vec<android::hardware::graphics::bufferqueue::V1_0::IGraphicBufferProducer::FrameEventsDelta> &",
   "referenced_type" : "type-650",
   "self_type" : "type-788",
   "size" : 8,
   "source_file" : "/system/libhidl/base/include/hidl/HidlSupport.h"
  },
  {
   "alignment" : 8,
   "linker_set_key" : "const android::hardware::hidl_vec<android::hardware::hidl_array<int, 4> > &",
   "name" : "const android::hardware::hidl_vec<android::hardware::hidl_array<int, 4> > &",
   "referenced_type" : "type-659",
   "self_type" : "type-792",
   "size" : 8,
   "source_file" : "/system/libhidl/base/include/hidl/HidlSupport.h"
  },
  {
   "alignment" : 8,
   "linker_set_key" : "const android::hardware::hidl_vec<android::hardware::hidl_string> &",
   "name" : "const android::hardware::hidl_vec<android::hardware::hidl_string> &",
   "referenced_type" : "type-635",
   "self_type" : "type-642",
   "size" : 8,
   "source_file" : "/system/libhidl/base/include/hidl/HidlSupport.h"
  },
  {
   "alignment" : 8,
   "linker_set_key" : "const android::hardware::hidl_vec<android::hardware::media::V1_0::Rect> &",
   "name" : "const android::hardware::hidl_vec<android::hardware::media::V1_0::Rect> &",
   "referenced_type" : "type-643",
   "self_type" : "type-789",
   "size" : 8,
   "source_file" : "/system/libhidl/base/include/hidl/HidlSupport.h"
  },
  {
   "alignment" : 8,
   "linker_set_key" : "const android::hardware::hidl_vec<android::hardware::media::c2::V1_0::BaseBlock> &",
   "name" : "const android::hardware::hidl_vec<android::hardware::media::c2::V1_0::BaseBlock> &",
   "referenced_type" : "type-632",
   "self_type" : "type-785",
   "size" : 8,
   "source_file" : "/system/libhidl/base/include/hidl/HidlSupport.h"
  },
  {
   "alignment" : 8,
   "linker_set_key" : "const android::hardware::hidl_vec<android::hardware::media::c2::V1_0::Block> &",
   "name" : "const android::hardware::hidl_vec<android::hardware::media::c2::V1_0::Block> &",
   "referenced_type" : "type-547",
   "self_type" : "type-762",
   "size" : 8,
   "source_file" : "/system/libhidl/base/include/hidl/HidlSupport.h"
  },
  {
   "alignment" : 8,
   "linker_set_key" : "const android::hardware::hidl_vec<android::hardware::media::c2::V1_0::Buffer> &",
   "name" : "const android::hardware::hidl_vec<android::hardware::media::c2::V1_0::Buffer> &",
   "referenced_type" : "type-559",
   "self_type" : "type-764",
   "size" : 8,
   "source_file" : "/system/libhidl/base/include/hidl/HidlSupport.h"
  },
  {
   "alignment" : 8,
   "linker_set_key" : "const android::hardware::hidl_vec<android::hardware::media::c2::V1_0::FieldDescriptor::NamedValue> &",
   "name" : "const android::hardware::hidl_vec<android::hardware::media::c2::V1_0::FieldDescriptor::NamedValue> &",
   "referenced_type" : "type-467",
   "self_type" : "type-486",
   "size" : 8,
   "source_file" : "/system/libhidl/base/include/hidl/HidlSupport.h"
  },
  {
   "alignment" : 8,
   "linker_set_key" : "const android::hardware::hidl_vec<android::hardware::media::c2::V1_0::FieldDescriptor> &",
   "name" : "const android::hardware::hidl_vec<android::hardware::media::c2::V1_0::FieldDescriptor> &",
   "referenced_type" : "type-501",
   "self_type" : "type-514",
   "size" : 8,
   "source_file" : "/system/libhidl/base/include/hidl/HidlSupport.h"
  },
  {
   "alignment" : 8,
   "linker_set_key" : "const android::hardware::hidl_vec<android::hardware::media::c2::V1_0::FieldSupportedValues> &",
   "name" : "const android::hardware::hidl_vec<android::hardware::media::c2::V1_0::FieldSupportedValues> &",
   "referenced_type" : "type-450",
   "self_type" : "type-457",
   "size" : 8,
   "source_file" : "/system/libhidl/base/include/hidl/HidlSupport.h"
  },
  {
   "alignment" : 8,
   "linker_set_key" : "const android::hardware::hidl_vec<android::hardware::media::c2::V1_0::FieldSupportedValuesQuery> &",
   "name" : "const android::hardware::hidl_vec<android::hardware::media::c2::V1_0::FieldSupportedValuesQuery> &",
   "referenced_type" : "type-2528",
   "self_type" : "type-2527",
   "size" : 8,
   "source_file" : "/frameworks/av/media/codec2/hidl/1.0/utils/include/codec2/hidl/1.0/Configurable.h"
  },
  {
   "alignment" : 8,
   "linker_set_key" : "const android::hardware::hidl_vec<android::hardware::media::c2::V1_0::InfoBuffer> &",
   "name" : "const android::hardware::hidl_vec<android::hardware::media::c2::V1_0::InfoBuffer> &",
   "referenced_type" : "type-576",
   "self_type" : "type-765",
   "size" : 8,
   "source_file" : "/system/libhidl/base/include/hidl/HidlSupport.h"
  },
  {
   "alignment" : 8,
   "linker_set_key" : "const android::hardware::hidl_vec<android::hardware::media::c2::V1_0::ParamFieldValues> &",
   "name" : "const android::hardware::hidl_vec<android::hardware::media::c2::V1_0::ParamFieldValues> &",
   "referenced_type" : "type-533",
   "self_type" : "type-534",
   "size" : 8,
   "source_file" : "/system/libhidl/base/include/hidl/HidlSupport.h"
  },
  {
   "alignment" : 8,
   "linker_set_key" : "const android::hardware::hidl_vec<android::hardware::media::c2::V1_0::SettingResult> &",
   "name" : "const android::hardware::hidl_vec<android::hardware::media::c2::V1_0::SettingResult> &",
   "referenced_type" : "type-588",
   "self_type" : "type-769",
   "size" : 8,
   "source_file" : "/system/libhidl/base/include/hidl/HidlSupport.h"
  },
  {
   "alignment" : 8,
   "linker_set_key" : "const android::hardware::hidl_vec<android::hardware::media::c2::V1_0::Work> &",
   "name" : "const android::hardware::hidl_vec<android::hardware::media::c2::V1_0::Work> &",
   "referenced_type" : "type-609",
   "self_type" : "type-777",
   "size" : 8,
   "source_file" : "/system/libhidl/base/include/hidl/HidlSupport.h"
  },
  {
   "alignment" : 8,
   "linker_set_key" : "const android::hardware::hidl_vec<android::hardware::media::c2::V1_0::Worklet> &",
   "name" : "const android::hardware::hidl_vec<android::hardware::media::c2::V1_0::Worklet> &",
   "referenced_type" : "type-599",
   "self_type" : "type-773",
   "size" : 8,
   "source_file" : "/system/libhidl/base/include/hidl/HidlSupport.h"
  },
  {
   "alignment" : 8,
   "linker_set_key" : "const android::hardware::hidl_vec<unsigned char> &",
   "name" : "const android::hardware::hidl_vec<unsigned char> &",
   "referenced_type" : "type-399",
   "self_type" : "type-759",
   "size" : 8,
   "source_file" : "/system/libhidl/base/include/hidl/HidlSupport.h"
  },
  {
   "alignment" : 8,
   "linker_set_key" : "const android::hardware::hidl_vec<unsigned int> &",
   "name" : "const android::hardware::hidl_vec<unsigned int> &",
   "referenced_type" : "type-416",
   "self_type" : "type-418",
   "size" : 8,
   "source_file" : "/system/libhidl/base/include/hidl/HidlSupport.h"
  },
  {
   "alignment" : 8,
   "linker_set_key" : "const android::hardware::hidl_vec<unsigned int>::iter<true> &",
   "name" : "const android::hardware::hidl_vec<unsigned int>::iter<true> &",
   "referenced_type" : "type-1355",
   "self_type" : "type-1357",
   "size" : 8,
   "source_file" : "/system/libhidl/base/include/hidl/HidlSupport.h"
  },
  {
   "alignment" : 8,
   "linker_set_key" : "const android::hardware::hidl_vec<unsigned long> &",
   "name" : "const android::hardware::hidl_vec<unsigned long> &",
   "referenced_type" : "type-422",
   "self_type" : "type-426",
   "size" : 8,
   "source_file" : "/system/libhidl/base/include/hidl/HidlSupport.h"
  },
  {
   "alignment" : 8,
   "linker_set_key" : "const android::hardware::hidl_version &",
   "name" : "const android::hardware::hidl_version &",
   "referenced_type" : "type-748",
   "self_type" : "type-758",
   "size" : 8,
   "source_file" : "/system/libhidl/base/include/hidl/HidlSupport.h"
  },
  {
   "alignment" : 8,
   "linker_set_key" : "const android::hardware::media::V1_0::Rect &",
   "name" : "const android::hardware::media::V1_0::Rect &",
   "referenced_type" : "type-3928",
   "self_type" : "type-3927",
   "size" : 8,
   "source_file" : "/system/libhidl/base/include/hidl/HidlInternal.h"
  },
  {
   "alignment" : 8,
   "linker_set_key" : "const android::hardware::media::c2::V1_0::BaseBlock &",
   "name" : "const android::hardware::media::c2::V1_0::BaseBlock &",
   "referenced_type" : "type-875",
   "self_type" : "type-3903",
   "size" : 8,
   "source_file" : "/system/libhidl/base/include/hidl/HidlInternal.h"
  },
  {
   "alignment" : 8,
   "linker_set_key" : "const android::hardware::media::c2::V1_0::Block &",
   "name" : "const android::hardware::media::c2::V1_0::Block &",
   "referenced_type" : "type-3839",
   "self_type" : "type-3838",
   "size" : 8,
   "source_file" : "/system/libhidl/base/include/hidl/HidlInternal.h"
  },
  {
   "alignment" : 8,
   "linker_set_key" : "const android::hardware::media::c2::V1_0::Buffer &",
   "name" : "const android::hardware::media::c2::V1_0::Buffer &",
   "referenced_type" : "type-1399",
   "self_type" : "type-3847",
   "size" : 8,
   "source_file" : "/system/libhidl/base/include/hidl/HidlInternal.h"
  },
  {
   "alignment" : 8,
   "linker_set_key" : "const android::hardware::media::c2::V1_0::FieldDescriptor &",
   "name" : "const android::hardware::media::c2::V1_0::FieldDescriptor &",
   "referenced_type" : "type-1377",
   "self_type" : "type-2045",
   "size" : 8,
   "source_file" : "/system/libhidl/base/include/hidl/HidlInternal.h"
  },
  {
   "alignment" : 8,
   "linker_set_key" : "const android::hardware::media::c2::V1_0::FieldDescriptor::NamedValue &",
   "name" : "const android::hardware::media::c2::V1_0::FieldDescriptor::NamedValue &",
   "referenced_type" : "type-1366",
   "self_type" : "type-1583",
   "size" : 8,
   "source_file" : "/system/libhidl/base/include/hidl/HidlInternal.h"
  },
  {
   "alignment" : 8,
   "linker_set_key" : "const android::hardware::media::c2::V1_0::FieldSupportedValues &",
   "name" : "const android::hardware::media::c2::V1_0::FieldSupportedValues &",
   "referenced_type" : "type-855",
   "self_type" : "type-3566",
   "size" : 8,
   "source_file" : "/system/libhidl/base/include/hidl/HidlInternal.h"
  },
  {
   "alignment" : 8,
   "linker_set_key" : "const android::hardware::media::c2::V1_0::FieldSupportedValuesQuery &",
   "name" : "const android::hardware::media::c2::V1_0::FieldSupportedValuesQuery &",
   "referenced_type" : "type-2704",
   "self_type" : "type-2710",
   "size" : 8,
   "source_file" : "/system/libhidl/base/include/hidl/HidlSupport.h"
  },
  {
   "alignment" : 8,
   "linker_set_key" : "const android::hardware::media::c2::V1_0::FieldSupportedValuesQueryResult &",
   "name" : "const android::hardware::media::c2::V1_0::FieldSupportedValuesQueryResult &",
   "referenced_type" : "type-1228",
   "self_type" : "type-1229",
   "size" : 8,
   "source_file" : "/frameworks/av/media/codec2/hidl/1.0/utils/include/codec2/hidl/1.0/types.h"
  },
  {
   "alignment" : 8,
   "linker_set_key" : "const android::hardware::media::c2::V1_0::IComponentStore::ComponentTraits &",
   "name" : "const android::hardware::media::c2::V1_0::IComponentStore::ComponentTraits &",
   "referenced_type" : "type-1240",
   "self_type" : "type-1244",
   "size" : 8,
   "source_file" : "/frameworks/av/media/codec2/hidl/1.0/utils/include/codec2/hidl/1.0/types.h"
  },
  {
   "alignment" : 8,
   "linker_set_key" : "const android::hardware::media::c2::V1_0::InfoBuffer &",
   "name" : "const android::hardware::media::c2::V1_0::InfoBuffer &",
   "referenced_type" : "type-3854",
   "self_type" : "type-3853",
   "size" : 8,
   "source_file" : "/system/libhidl/base/include/hidl/HidlInternal.h"
  },
  {
   "alignment" : 8,
   "linker_set_key" : "const android::hardware::media::c2::V1_0::ParamDescriptor &",
   "name" : "const android::hardware::media::c2::V1_0::ParamDescriptor &",
   "referenced_type" : "type-1216",
   "self_type" : "type-1217",
   "size" : 8,
   "source_file" : "/frameworks/av/media/codec2/hidl/1.0/utils/include/codec2/hidl/1.0/types.h"
  },
  {
   "alignment" : 8,
   "linker_set_key" : "const android::hardware::media::c2::V1_0::ParamFieldValues &",
   "name" : "const android::hardware::media::c2::V1_0::ParamFieldValues &",
   "referenced_type" : "type-1387",
   "self_type" : "type-2877",
   "size" : 8,
   "source_file" : "/system/libhidl/base/include/hidl/HidlInternal.h"
  },
  {
   "alignment" : 8,
   "linker_set_key" : "const android::hardware::media::c2::V1_0::SettingResult &",
   "name" : "const android::hardware::media::c2::V1_0::SettingResult &",
   "referenced_type" : "type-1413",
   "self_type" : "type-3862",
   "size" : 8,
   "source_file" : "/system/libhidl/base/include/hidl/HidlInternal.h"
  },
  {
   "alignment" : 8,
   "linker_set_key" : "const android::hardware::media::c2::V1_0::Status &",
   "name" : "const android::hardware::media::c2::V1_0::Status &",
   "referenced_type" : "type-3148",
   "self_type" : "type-3147",
   "size" : 8,
   "source_file" : "/frameworks/av/media/codec2/hidl/1.0/utils/include/codec2/hidl/1.0/types.h"
  },
  {
   "alignment" : 8,
   "linker_set_key" : "const android::hardware::media::c2::V1_0::StructDescriptor &",
   "name" : "const android::hardware::media::c2::V1_0::StructDescriptor &",
   "referenced_type" : "type-1250",
   "self_type" : "type-1251",
   "size" : 8,
   "source_file" : "/frameworks/av/media/codec2/hidl/1.0/utils/include/codec2/hidl/1.0/types.h"
  },
  {
   "alignment" : 8,
   "linker_set_key" : "const android::hardware::media::c2::V1_0::Work &",
   "name" : "const android::hardware::media::c2::V1_0::Work &",
   "referenced_type" : "type-1435",
   "self_type" : "type-3885",
   "size" : 8,
   "source_file" : "/system/libhidl/base/include/hidl/HidlInternal.h"
  },
  {
   "alignment" : 8,
   "linker_set_key" : "const android::hardware::media::c2::V1_0::WorkBundle &",
   "name" : "const android::hardware::media::c2::V1_0::WorkBundle &",
   "referenced_type" : "type-3448",
   "self_type" : "type-3554",
   "size" : 8,
   "source_file" : "/frameworks/av/media/codec2/hidl/1.0/utils/include/codec2/hidl/1.0/Component.h"
  },
  {
   "alignment" : 8,
   "linker_set_key" : "const android::hardware::media::c2::V1_0::Worklet &",
   "name" : "const android::hardware::media::c2::V1_0::Worklet &",
   "referenced_type" : "type-1424",
   "self_type" : "type-3875",
   "size" : 8,
   "source_file" : "/system/libhidl/base/include/hidl/HidlInternal.h"
  },
  {
   "alignment" : 8,
   "linker_set_key" : "const android::hardware::media::c2::V1_0::utils::InputBufferManager::TrackedBuffer &",
   "name" : "const android::hardware::media::c2::V1_0::utils::InputBufferManager::TrackedBuffer &",
   "referenced_type" : "type-3648",
   "self_type" : "type-3649",
   "size" : 8,
   "source_file" : "/frameworks/av/media/codec2/hidl/1.0/utils/include/codec2/hidl/1.0/InputBufferManager.h"
  },
  {
   "alignment" : 8,
   "linker_set_key" : "const android::key_value_pair_t<unsigned int, unsigned int> &",
   "name" : "const android::key_value_pair_t<unsigned int, unsigned int> &",
   "referenced_type" : "type-2444",
   "self_type" : "type-2445",
   "size" : 8,
   "source_file" : "/system/core/libutils/include/utils/TypeHelpers.h"
  },
  {
   "alignment" : 8,
   "linker_set_key" : "const android::sp<android::Fence> &",
   "name" : "const android::sp<android::Fence> &",
   "referenced_type" : "type-2375",
   "self_type" : "type-2376",
   "size" : 8,
   "source_file" : "/system/core/libutils/include/utils/StrongPointer.h"
  },
  {
   "alignment" : 8,
   "linker_set_key" : "const android::sp<android::GraphicBufferSource> &",
   "name" : "const android::sp<android::GraphicBufferSource> &",
   "referenced_type" : "type-2418",
   "self_type" : "type-3301",
   "size" : 8,
   "source_file" : "/system/core/libutils/include/utils/RefBase.h"
  },
  {
   "alignment" : 8,
   "linker_set_key" : "const android::sp<android::IGraphicBufferProducer> &",
   "name" : "const android::sp<android::IGraphicBufferProducer> &",
   "referenced_type" : "type-2388",
   "self_type" : "type-2389",
   "size" : 8,
   "source_file" : "/system/core/libutils/include/utils/StrongPointer.h"
  },
  {
   "alignment" : 8,
   "linker_set_key" : "const android::sp<android::hardware::graphics::bufferqueue::V1_0::IGraphicBufferProducer> &",
   "name" : "const android::sp<android::hardware::graphics::bufferqueue::V1_0::IGraphicBufferProducer> &",
   "referenced_type" : "type-3576",
   "self_type" : "type-3575",
   "size" : 8,
   "source_file" : "/frameworks/av/media/codec2/hidl/1.0/utils/include/codec2/hidl/1.0/Component.h"
  },
  {
   "alignment" : 8,
   "linker_set_key" : "const android::sp<android::hardware::graphics::bufferqueue::V2_0::IGraphicBufferProducer> &",
   "name" : "const android::sp<android::hardware::graphics::bufferqueue::V2_0::IGraphicBufferProducer> &",
   "referenced_type" : "type-3556",
   "self_type" : "type-3555",
   "size" : 8,
   "source_file" : "/frameworks/av/media/codec2/hidl/1.0/utils/include/codec2/hidl/1.0/Component.h"
  },
  {
   "alignment" : 8,
   "linker_set_key" : "const android::sp<android::hardware::hidl_death_recipient> &",
   "name" : "const android::sp<android::hardware::hidl_death_recipient> &",
   "referenced_type" : "type-797",
   "self_type" : "type-796",
   "size" : 8,
   "source_file" : "/system/libhidl/base/include/hidl/HidlSupport.h"
  },
  {
   "alignment" : 8,
   "linker_set_key" : "const android::sp<android::hardware::media::bufferpool::V2_0::IClientManager> &",
   "name" : "const android::sp<android::hardware::media::bufferpool::V2_0::IClientManager> &",
   "referenced_type" : "type-3380",
   "self_type" : "type-3379",
   "size" : 8,
   "source_file" : "/frameworks/av/media/codec2/hidl/1.0/utils/include/codec2/hidl/1.0/Component.h"
  },
  {
   "alignment" : 8,
   "linker_set_key" : "const android::sp<android::hardware::media::bufferpool::V2_0::implementation::ClientManager> &",
   "name" : "const android::sp<android::hardware::media::bufferpool::V2_0::implementation::ClientManager> &",
   "referenced_type" : "type-1325",
   "self_type" : "type-2309",
   "size" : 8,
   "source_file" : "/system/core/libutils/include/utils/StrongPointer.h"
  },
  {
   "alignment" : 8,
   "linker_set_key" : "const android::sp<android::hardware::media::c2::V1_0::IComponentInterface> &",
   "name" : "const android::sp<android::hardware::media::c2::V1_0::IComponentInterface> &",
   "referenced_type" : "type-4227",
   "self_type" : "type-4234",
   "size" : 8,
   "source_file" : "/system/core/libutils/include/utils/StrongPointer.h"
  },
  {
   "alignment" : 8,
   "linker_set_key" : "const android::sp<android::hardware::media::c2::V1_0::IComponentListener> &",
   "name" : "const android::sp<android::hardware::media::c2::V1_0::IComponentListener> &",
   "referenced_type" : "type-4042",
   "self_type" : "type-4047",
   "size" : 8,
   "source_file" : "/system/core/libutils/include/utils/RefBase.h"
  },
  {
   "alignment" : 8,
   "linker_set_key" : "const android::sp<android::hardware::media::c2::V1_0::IConfigurable> &",
   "name" : "const android::sp<android::hardware::media::c2::V1_0::IConfigurable> &",
   "referenced_type" : "type-4101",
   "self_type" : "type-4103",
   "size" : 8,
   "source_file" : "/system/core/libutils/include/utils/StrongPointer.h"
  },
  {
   "alignment" : 8,
   "linker_set_key" : "const android::sp<android::hardware::media::c2::V1_0::IInputSink> &",
   "name" : "const android::sp<android::hardware::media::c2::V1_0::IInputSink> &",
   "referenced_type" : "type-4266",
   "self_type" : "type-4273",
   "size" : 8,
   "source_file" : "/system/core/libutils/include/utils/StrongPointer.h"
  },
  {
   "alignment" : 8,
   "linker_set_key" : "const android::sp<android::hardware::media::c2::V1_0::IInputSurface> &",
   "name" : "const android::sp<android::hardware::media::c2::V1_0::IInputSurface> &",
   "referenced_type" : "type-3568",
   "self_type" : "type-3567",
   "size" : 8,
   "source_file" : "/frameworks/av/media/codec2/hidl/1.0/utils/include/codec2/hidl/1.0/Component.h"
  },
  {
   "alignment" : 8,
   "linker_set_key" : "const android::sp<android::hardware::media::c2::V1_0::IInputSurfaceConnection> &",
   "name" : "const android::sp<android::hardware::media::c2::V1_0::IInputSurfaceConnection> &",
   "referenced_type" : "type-4293",
   "self_type" : "type-4298",
   "size" : 8,
   "source_file" : "/system/core/libutils/include/utils/StrongPointer.h"
  },
  {
   "alignment" : 8,
   "linker_set_key" : "const android::sp<android::hardware::media::c2::V1_0::utils::CachedConfigurable> &",
   "name" : "const android::sp<android::hardware::media::c2::V1_0::utils::CachedConfigurable> &",
   "referenced_type" : "type-1744",
   "self_type" : "type-1745",
   "size" : 8,
   "source_file" : "/system/core/libutils/include/utils/StrongPointer.h"
  },
  {
   "alignment" : 8,
   "linker_set_key" : "const android::sp<android::hardware::media::c2::V1_0::utils::Component::Sink> &",
   "name" : "const android::sp<android::hardware::media::c2::V1_0::utils::Component::Sink> &",
   "referenced_type" : "type-4274",
   "self_type" : "type-4279",
   "size" : 8,
   "source_file" : "/system/core/libutils/include/utils/StrongPointer.h"
  },
  {
   "alignment" : 8,
   "linker_set_key" : "const android::sp<android::hardware::media::c2::V1_0::utils::Component> &",
   "name" : "const android::sp<android::hardware::media::c2::V1_0::utils::Component> &",
   "referenced_type" : "type-4052",
   "self_type" : "type-4053",
   "size" : 8,
   "source_file" : "/system/core/libutils/include/utils/RefBase.h"
  },
  {
   "alignment" : 8,
   "linker_set_key" : "const android::sp<android::hardware::media::c2::V1_0::utils::ComponentInterface> &",
   "name" : "const android::sp<android::hardware::media::c2::V1_0::utils::ComponentInterface> &",
   "referenced_type" : "type-4235",
   "self_type" : "type-4240",
   "size" : 8,
   "source_file" : "/system/core/libutils/include/utils/StrongPointer.h"
  },
  {
   "alignment" : 8,
   "linker_set_key" : "const android::sp<android::hardware::media::c2::V1_0::utils::ComponentStore> &",
   "name" : "const android::sp<android::hardware::media::c2::V1_0::utils::ComponentStore> &",
   "referenced_type" : "type-4377",
   "self_type" : "type-4378",
   "size" : 8,
   "source_file" : "/system/core/libutils/include/utils/StrongPointer.h"
  },
  {
   "alignment" : 8,
   "linker_set_key" : "const android::sp<android::hardware::media::c2::V1_0::utils::InputSurface> &",
   "name" : "const android::sp<android::hardware::media::c2::V1_0::utils::InputSurface> &",
   "referenced_type" : "type-2317",
   "self_type" : "type-2333",
   "size" : 8,
   "source_file" : "/system/core/libutils/include/utils/StrongPointer.h"
  },
  {
   "alignment" : 8,
   "linker_set_key" : "const android::sp<android::hardware::media::c2::V1_0::utils::InputSurfaceConnection::Impl> &",
   "name" : "const android::sp<android::hardware::media::c2::V1_0::utils::InputSurfaceConnection::Impl> &",
   "referenced_type" : "type-3620",
   "self_type" : "type-3621",
   "size" : 8,
   "source_file" : "/system/core/libutils/include/utils/StrongPointer.h"
  },
  {
   "alignment" : 8,
   "linker_set_key" : "const android::sp<android::hardware::media::c2::V1_0::utils::InputSurfaceConnection> &",
   "name" : "const android::sp<android::hardware::media::c2::V1_0::utils::InputSurfaceConnection> &",
   "referenced_type" : "type-3311",
   "self_type" : "type-3320",
   "size" : 8,
   "source_file" : "/system/core/libutils/include/utils/StrongPointer.h"
  },
  {
   "alignment" : 8,
   "linker_set_key" : "const android::sp<android::hardware::media::omx::V1_0::IGraphicBufferSource> &",
   "name" : "const android::sp<android::hardware::media::omx::V1_0::IGraphicBufferSource> &",
   "referenced_type" : "type-3580",
   "self_type" : "type-3579",
   "size" : 8,
   "source_file" : "/frameworks/av/media/codec2/hidl/1.0/utils/include/codec2/hidl/1.0/Component.h"
  },
  {
   "alignment" : 8,
   "linker_set_key" : "const android::sp<android::hidl::base::V1_0::IBase> &",
   "name" : "const android::sp<android::hidl::base::V1_0::IBase> &",
   "referenced_type" : "type-4064",
   "self_type" : "type-4068",
   "size" : 8,
   "source_file" : "/system/core/libutils/include/utils/StrongPointer.h"
  },
  {
   "alignment" : 8,
   "linker_set_key" : "const android::ui::Size &",
   "name" : "const android::ui::Size &",
   "referenced_type" : "type-2116",
   "self_type" : "type-2118",
   "size" : 8,
   "source_file" : "/frameworks/native/libs/ui/include/ui/Size.h"
  },
  {
   "alignment" : 8,
   "linker_set_key" : "const android::wp<android::ALooper> &",
   "name" : "const android::wp<android::ALooper> &",
   "referenced_type" : "type-2293",
   "self_type" : "type-2296",
   "size" : 8,
   "source_file" : "/system/core/libutils/include/utils/RefBase.h"
  },
  {
   "alignment" : 8,
   "linker_set_key" : "const android::wp<android::hardware::media::c2::V1_0::IComponentListener> &",
   "name" : "const android::wp<android::hardware::media::c2::V1_0::IComponentListener> &",
   "referenced_type" : "type-4040",
   "self_type" : "type-4041",
   "size" : 8,
   "source_file" : "/system/core/libutils/include/utils/RefBase.h"
  },
  {
   "alignment" : 8,
   "linker_set_key" : "const bool &",
   "name" : "const bool &",
   "referenced_type" : "type-276",
   "self_type" : "type-275",
   "size" : 8,
   "source_file" : "/system/core/libutils/include/utils/TypeHelpers.h"
  },
  {
   "alignment" : 8,
   "linker_set_key" : "const c2_cntr_t<unsigned int, void> &",
   "name" : "const c2_cntr_t<unsigned int, void> &",
   "referenced_type" : "type-1114",
   "self_type" : "type-1113",
   "size" : 8,
   "source_file" : "/frameworks/av/media/codec2/core/include/C2Param.h"
  },
  {
   "alignment" : 8,
   "linker_set_key" : "const c2_cntr_t<unsigned long, void> &",
   "name" : "const c2_cntr_t<unsigned long, void> &",
   "referenced_type" : "type-1118",
   "self_type" : "type-1117",
   "size" : 8,
   "source_file" : "/frameworks/av/media/codec2/core/include/C2Param.h"
  },
  {
   "alignment" : 8,
   "linker_set_key" : "const char &",
   "name" : "const char &",
   "referenced_type" : "type-349",
   "self_type" : "type-1179",
   "size" : 8,
   "source_file" : "/frameworks/av/media/codec2/core/include/C2Param.h"
  },
  {
   "alignment" : 8,
   "linker_set_key" : "const double &",
   "name" : "const double &",
   "referenced_type" : "type-308",
   "self_type" : "type-313",
   "size" : 8,
   "source_file" : "/system/core/libutils/include/utils/TypeHelpers.h"
  },
  {
   "alignment" : 8,
   "linker_set_key" : "const float &",
   "name" : "const float &",
   "referenced_type" : "type-305",
   "self_type" : "type-307",
   "size" : 8,
   "source_file" : "/system/core/libutils/include/utils/TypeHelpers.h"
  },
  {
   "alignment" : 8,
   "linker_set_key" : "const int &",
   "name" : "const int &",
   "referenced_type" : "type-291",
   "self_type" : "type-290",
   "size" : 8,
   "source_file" : "/system/core/libutils/include/utils/TypeHelpers.h"
  },
  {
   "linker_set_key" : "const iter<is_const> &",
   "name" : "const iter<is_const> &",
   "referenced_type" : "type-1042",
   "self_type" : "type-1044",
   "source_file" : "/system/libhidl/base/include/hidl/HidlSupport.h"
  },
  {
   "linker_set_key" : "const iter<is_const> &",
   "name" : "const iter<is_const> &",
   "referenced_type" : "type-1342",
   "self_type" : "type-1344",
   "source_file" : "/system/libhidl/base/include/hidl/HidlSupport.h"
  },
  {
   "linker_set_key" : "const iter<is_const> &",
   "name" : "const iter<is_const> &",
   "referenced_type" : "type-1762",
   "self_type" : "type-1764",
   "source_file" : "/system/libhidl/base/include/hidl/HidlSupport.h"
  },
  {
   "linker_set_key" : "const iter<is_const> &",
   "name" : "const iter<is_const> &",
   "referenced_type" : "type-2458",
   "self_type" : "type-2460",
   "source_file" : "/system/libhidl/base/include/hidl/HidlSupport.h"
  },
  {
   "linker_set_key" : "const iter<is_const> &",
   "name" : "const iter<is_const> &",
   "referenced_type" : "type-2680",
   "self_type" : "type-2682",
   "source_file" : "/system/libhidl/base/include/hidl/HidlSupport.h"
  },
  {
   "linker_set_key" : "const iter<is_const> &",
   "name" : "const iter<is_const> &",
   "referenced_type" : "type-281",
   "self_type" : "type-284",
   "source_file" : "/system/libhidl/base/include/hidl/HidlSupport.h"
  },
  {
   "linker_set_key" : "const iter<is_const> &",
   "name" : "const iter<is_const> &",
   "referenced_type" : "type-2923",
   "self_type" : "type-2925",
   "source_file" : "/system/libhidl/base/include/hidl/HidlSupport.h"
  },
  {
   "linker_set_key" : "const iter<is_const> &",
   "name" : "const iter<is_const> &",
   "referenced_type" : "type-3375",
   "self_type" : "type-3377",
   "source_file" : "/system/libhidl/base/include/hidl/HidlSupport.h"
  },
  {
   "linker_set_key" : "const iter<is_const> &",
   "name" : "const iter<is_const> &",
   "referenced_type" : "type-3641",
   "self_type" : "type-3643",
   "source_file" : "/system/libhidl/base/include/hidl/HidlSupport.h"
  },
  {
   "linker_set_key" : "const iter<is_const> &",
   "name" : "const iter<is_const> &",
   "referenced_type" : "type-374",
   "self_type" : "type-378",
   "source_file" : "/system/libhidl/base/include/hidl/HidlSupport.h"
  },
  {
   "linker_set_key" : "const iter<is_const> &",
   "name" : "const iter<is_const> &",
   "referenced_type" : "type-3877",
   "self_type" : "type-3879",
   "source_file" : "/system/libhidl/base/include/hidl/HidlSupport.h"
  },
  {
   "linker_set_key" : "const iter<is_const> &",
   "name" : "const iter<is_const> &",
   "referenced_type" : "type-4065",
   "self_type" : "type-4067",
   "source_file" : "/system/libhidl/base/include/hidl/HidlSupport.h"
  },
  {
   "linker_set_key" : "const iter<is_const> &",
   "name" : "const iter<is_const> &",
   "referenced_type" : "type-4370",
   "self_type" : "type-4372",
   "source_file" : "/system/libhidl/base/include/hidl/HidlSupport.h"
  },
  {
   "linker_set_key" : "const iter<is_const> &",
   "name" : "const iter<is_const> &",
   "referenced_type" : "type-65",
   "self_type" : "type-67",
   "source_file" : "/system/libhidl/base/include/hidl/HidlSupport.h"
  },
  {
   "linker_set_key" : "const iter<is_const> &",
   "name" : "const iter<is_const> &",
   "referenced_type" : "type-722",
   "self_type" : "type-724",
   "source_file" : "/system/libhidl/base/include/hidl/HidlSupport.h"
  },
  {
   "alignment" : 8,
   "linker_set_key" : "const log_msg &",
   "name" : "const log_msg &",
   "referenced_type" : "type-1939",
   "self_type" : "type-1947",
   "size" : 8,
   "source_file" : "/system/core/liblog/include/log/log_read.h"
  },
  {
   "alignment" : 8,
   "linker_set_key" : "const long &",
   "name" : "const long &",
   "referenced_type" : "type-294",
   "self_type" : "type-295",
   "size" : 8,
   "source_file" : "/system/core/libutils/include/utils/TypeHelpers.h"
  },
  {
   "alignment" : 8,
   "linker_set_key" : "const short &",
   "name" : "const short &",
   "referenced_type" : "type-283",
   "self_type" : "type-285",
   "size" : 8,
   "source_file" : "/system/core/libutils/include/utils/TypeHelpers.h"
  },
  {
   "alignment" : 8,
   "linker_set_key" : "const signed char &",
   "name" : "const signed char &",
   "referenced_type" : "type-31",
   "self_type" : "type-280",
   "size" : 8,
   "source_file" : "/system/core/libutils/include/utils/TypeHelpers.h"
  },
  {
   "alignment" : 8,
   "linker_set_key" : "const std::basic_string<char, std::char_traits<char>, std::allocator<char> > &",
   "name" : "const std::basic_string<char, std::char_traits<char>, std::allocator<char> > &",
   "referenced_type" : "type-1639",
   "self_type" : "type-1638",
   "size" : 8,
   "source_file" : "/frameworks/av/media/codec2/hidl/1.0/utils/include/codec2/hidl/1.0/Configurable.h"
  },
  {
   "alignment" : 8,
   "linker_set_key" : "const std::basic_string<char, std::char_traits<char>, std::allocator<char> > &",
   "name" : "const std::basic_string<char, std::char_traits<char>, std::allocator<char> > &",
   "referenced_type" : "type-1863",
   "self_type" : "type-1862",
   "size" : 8,
   "source_file" : "/frameworks/av/media/codec2/hidl/1.0/utils/include/codec2/hidl/1.0/Configurable.h"
  },
  {
   "alignment" : 8,
   "linker_set_key" : "const std::basic_string<char, std::char_traits<char>, std::allocator<char> > &",
   "name" : "const std::basic_string<char, std::char_traits<char>, std::allocator<char> > &",
   "referenced_type" : "type-2523",
   "self_type" : "type-2522",
   "size" : 8,
   "source_file" : "/frameworks/av/media/codec2/hidl/1.0/utils/include/codec2/hidl/1.0/Configurable.h"
  },
  {
   "alignment" : 8,
   "linker_set_key" : "const std::basic_string<char, std::char_traits<char>, std::allocator<char> > &",
   "name" : "const std::basic_string<char, std::char_traits<char>, std::allocator<char> > &",
   "referenced_type" : "type-3033",
   "self_type" : "type-3032",
   "size" : 8,
   "source_file" : "/frameworks/av/media/codec2/hidl/1.0/utils/include/codec2/hidl/1.0/Configurable.h"
  },
  {
   "alignment" : 8,
   "linker_set_key" : "const std::basic_string<char, std::char_traits<char>, std::allocator<char> > &",
   "name" : "const std::basic_string<char, std::char_traits<char>, std::allocator<char> > &",
   "referenced_type" : "type-3450",
   "self_type" : "type-3449",
   "size" : 8,
   "source_file" : "/frameworks/av/media/codec2/hidl/1.0/utils/include/codec2/hidl/1.0/Configurable.h"
  },
  {
   "alignment" : 8,
   "linker_set_key" : "const std::basic_string<char, std::char_traits<char>, std::allocator<char> > &",
   "name" : "const std::basic_string<char, std::char_traits<char>, std::allocator<char> > &",
   "referenced_type" : "type-369",
   "self_type" : "type-1820",
   "size" : 8,
   "source_file" : "/frameworks/av/media/codec2/hidl/1.0/utils/include/codec2/hidl/1.0/Configurable.h"
  },
  {
   "alignment" : 8,
   "linker_set_key" : "const std::basic_string<char, std::char_traits<char>, std::allocator<char> > &",
   "name" : "const std::basic_string<char, std::char_traits<char>, std::allocator<char> > &",
   "referenced_type" : "type-3740",
   "self_type" : "type-3739",
   "size" : 8,
   "source_file" : "/frameworks/av/media/codec2/hidl/1.0/utils/include/codec2/hidl/1.0/Configurable.h"
  },
  {
   "alignment" : 8,
   "linker_set_key" : "const std::basic_string<char, std::char_traits<char>, std::allocator<char> > &",
   "name" : "const std::basic_string<char, std::char_traits<char>, std::allocator<char> > &",
   "referenced_type" : "type-3943",
   "self_type" : "type-3942",
   "size" : 8,
   "source_file" : "/frameworks/av/media/codec2/hidl/1.0/utils/include/codec2/hidl/1.0/Configurable.h"
  },
  {
   "alignment" : 8,
   "linker_set_key" : "const std::basic_string<char, std::char_traits<char>, std::allocator<char> > &",
   "name" : "const std::basic_string<char, std::char_traits<char>, std::allocator<char> > &",
   "referenced_type" : "type-4173",
   "self_type" : "type-4172",
   "size" : 8,
   "source_file" : "/frameworks/av/media/codec2/hidl/1.0/utils/include/codec2/hidl/1.0/Configurable.h"
  },
  {
   "alignment" : 8,
   "linker_set_key" : "const std::basic_string<char, std::char_traits<char>, std::allocator<char> > &",
   "name" : "const std::basic_string<char, std::char_traits<char>, std::allocator<char> > &",
   "referenced_type" : "type-420",
   "self_type" : "type-419",
   "size" : 8,
   "source_file" : "/frameworks/av/media/codec2/hidl/1.0/utils/include/codec2/hidl/1.0/Configurable.h"
  },
  {
   "alignment" : 8,
   "linker_set_key" : "const std::basic_string<char, std::char_traits<char>, std::allocator<char> > &",
   "name" : "const std::basic_string<char, std::char_traits<char>, std::allocator<char> > &",
   "referenced_type" : "type-76",
   "self_type" : "type-4432",
   "size" : 8,
   "source_file" : "/frameworks/av/media/codec2/hidl/1.0/utils/include/codec2/hidl/1.0/Configurable.h"
  },
  {
   "alignment" : 8,
   "linker_set_key" : "const std::basic_string<char, std::char_traits<char>, std::allocator<char> > &",
   "name" : "const std::basic_string<char, std::char_traits<char>, std::allocator<char> > &",
   "referenced_type" : "type-821",
   "self_type" : "type-820",
   "size" : 8,
   "source_file" : "/frameworks/av/media/codec2/hidl/1.0/utils/include/codec2/hidl/1.0/Configurable.h"
  },
  {
   "alignment" : 8,
   "linker_set_key" : "const std::list<std::unique_ptr<C2Work, std::default_delete<C2Work> >, std::allocator<std::unique_ptr<C2Work, std::default_delete<C2Work> > > > &",
   "name" : "const std::list<std::unique_ptr<C2Work, std::default_delete<C2Work> >, std::allocator<std::unique_ptr<C2Work, std::default_delete<C2Work> > > > &",
   "referenced_type" : "type-1272",
   "self_type" : "type-1274",
   "size" : 8,
   "source_file" : "/frameworks/av/media/codec2/hidl/1.0/utils/include/codec2/hidl/1.0/types.h"
  },
  {
   "alignment" : 8,
   "linker_set_key" : "const std::shared_ptr<C2Buffer> &",
   "name" : "const std::shared_ptr<C2Buffer> &",
   "referenced_type" : "type-153",
   "self_type" : "type-155",
   "size" : 8,
   "source_file" : "/frameworks/av/media/codec2/hidl/1.0/utils/include/codec2/hidl/1.0/InputBufferManager.h"
  },
  {
   "alignment" : 8,
   "linker_set_key" : "const std::shared_ptr<C2Buffer> &",
   "name" : "const std::shared_ptr<C2Buffer> &",
   "referenced_type" : "type-2799",
   "self_type" : "type-2801",
   "size" : 8,
   "source_file" : "/frameworks/av/media/codec2/hidl/1.0/utils/include/codec2/hidl/1.0/InputBufferManager.h"
  },
  {
   "alignment" : 8,
   "linker_set_key" : "const std::shared_ptr<C2Buffer> &",
   "name" : "const std::shared_ptr<C2Buffer> &",
   "referenced_type" : "type-3645",
   "self_type" : "type-3647",
   "size" : 8,
   "source_file" : "/frameworks/av/media/codec2/hidl/1.0/utils/include/codec2/hidl/1.0/InputBufferManager.h"
  },
  {
   "alignment" : 8,
   "linker_set_key" : "const std::shared_ptr<C2Buffer> &",
   "name" : "const std::shared_ptr<C2Buffer> &",
   "referenced_type" : "type-3833",
   "self_type" : "type-3835",
   "size" : 8,
   "source_file" : "/frameworks/av/media/codec2/hidl/1.0/utils/include/codec2/hidl/1.0/InputBufferManager.h"
  },
  {
   "alignment" : 8,
   "linker_set_key" : "const std::shared_ptr<C2Component> &",
   "name" : "const std::shared_ptr<C2Component> &",
   "referenced_type" : "type-3370",
   "self_type" : "type-3378",
   "size" : 8,
   "source_file" : "/frameworks/av/media/codec2/hidl/1.0/utils/include/codec2/hidl/1.0/Component.h"
  },
  {
   "alignment" : 8,
   "linker_set_key" : "const std::shared_ptr<C2Component> &",
   "name" : "const std::shared_ptr<C2Component> &",
   "referenced_type" : "type-3551",
   "self_type" : "type-3553",
   "size" : 8,
   "source_file" : "/frameworks/av/media/codec2/hidl/1.0/utils/include/codec2/hidl/1.0/InputSurfaceConnection.h"
  },
  {
   "alignment" : 8,
   "linker_set_key" : "const std::shared_ptr<C2Component> &",
   "name" : "const std::shared_ptr<C2Component> &",
   "referenced_type" : "type-3827",
   "self_type" : "type-3832",
   "size" : 8,
   "source_file" : "/frameworks/av/media/codec2/hidl/1.0/utils/include/codec2/hidl/1.0/Component.h"
  },
  {
   "alignment" : 8,
   "linker_set_key" : "const std::shared_ptr<C2Component> &",
   "name" : "const std::shared_ptr<C2Component> &",
   "referenced_type" : "type-943",
   "self_type" : "type-945",
   "size" : 8,
   "source_file" : "/frameworks/av/media/codec2/hidl/1.0/utils/include/codec2/hidl/1.0/InputSurfaceConnection.h"
  },
  {
   "alignment" : 8,
   "linker_set_key" : "const std::shared_ptr<C2ComponentInterface> &",
   "name" : "const std::shared_ptr<C2ComponentInterface> &",
   "referenced_type" : "type-1724",
   "self_type" : "type-1728",
   "size" : 8,
   "source_file" : "/frameworks/av/media/codec2/hidl/1.0/utils/include/codec2/hidl/1.0/ComponentInterface.h"
  },
  {
   "alignment" : 8,
   "linker_set_key" : "const std::shared_ptr<C2ComponentInterface> &",
   "name" : "const std::shared_ptr<C2ComponentInterface> &",
   "referenced_type" : "type-1976",
   "self_type" : "type-1978",
   "size" : 8,
   "source_file" : "/frameworks/av/media/codec2/hidl/1.0/utils/include/codec2/hidl/1.0/ComponentStore.h"
  },
  {
   "alignment" : 8,
   "linker_set_key" : "const std::shared_ptr<C2ComponentInterface> &",
   "name" : "const std::shared_ptr<C2ComponentInterface> &",
   "referenced_type" : "type-4032",
   "self_type" : "type-4034",
   "size" : 8,
   "source_file" : "/frameworks/av/media/codec2/hidl/1.0/utils/include/codec2/hidl/1.0/ComponentInterface.h"
  },
  {
   "alignment" : 8,
   "linker_set_key" : "const std::shared_ptr<C2ComponentInterface> &",
   "name" : "const std::shared_ptr<C2ComponentInterface> &",
   "referenced_type" : "type-4267",
   "self_type" : "type-4269",
   "size" : 8,
   "source_file" : "/frameworks/av/media/codec2/hidl/1.0/utils/include/codec2/hidl/1.0/ComponentStore.h"
  },
  {
   "alignment" : 8,
   "linker_set_key" : "const std::shared_ptr<C2ComponentStore> &",
   "name" : "const std::shared_ptr<C2ComponentStore> &",
   "referenced_type" : "type-1958",
   "self_type" : "type-1960",
   "size" : 8,
   "source_file" : "/frameworks/av/media/codec2/hidl/1.0/utils/include/codec2/hidl/1.0/ComponentStore.h"
  },
  {
   "alignment" : 8,
   "linker_set_key" : "const std::shared_ptr<C2ComponentStore> &",
   "name" : "const std::shared_ptr<C2ComponentStore> &",
   "referenced_type" : "type-4259",
   "self_type" : "type-4262",
   "size" : 8,
   "source_file" : "/frameworks/av/media/codec2/hidl/1.0/utils/include/codec2/hidl/1.0/ComponentStore.h"
  },
  {
   "alignment" : 8,
   "linker_set_key" : "const std::shared_ptr<C2ReflectorHelper> &",
   "name" : "const std::shared_ptr<C2ReflectorHelper> &",
   "referenced_type" : "type-3158",
   "self_type" : "type-3160",
   "size" : 8,
   "source_file" : "/frameworks/av/media/codec2/hidl/1.0/utils/include/codec2/hidl/1.0/InputSurface.h"
  },
  {
   "alignment" : 8,
   "linker_set_key" : "const std::shared_ptr<C2ReflectorHelper> &",
   "name" : "const std::shared_ptr<C2ReflectorHelper> &",
   "referenced_type" : "type-578",
   "self_type" : "type-580",
   "size" : 8,
   "source_file" : "/frameworks/av/media/codec2/hidl/1.0/utils/include/codec2/hidl/1.0/InputSurface.h"
  },
  {
   "alignment" : 8,
   "linker_set_key" : "const std::shared_ptr<android::hardware::media::bufferpool::BufferPoolData> &",
   "name" : "const std::shared_ptr<android::hardware::media::bufferpool::BufferPoolData> &",
   "referenced_type" : "type-1266",
   "self_type" : "type-1268",
   "size" : 8,
   "source_file" : "/frameworks/av/media/codec2/hidl/1.0/utils/include/codec2/hidl/1.0/types.h"
  },
  {
   "alignment" : 8,
   "linker_set_key" : "const std::shared_ptr<const C2Component::Traits> &",
   "name" : "const std::shared_ptr<const C2Component::Traits> &",
   "referenced_type" : "type-1979",
   "self_type" : "type-1981",
   "size" : 8,
   "source_file" : "/frameworks/av/media/codec2/hidl/1.0/utils/include/codec2/hidl/1.0/ComponentStore.h"
  },
  {
   "alignment" : 8,
   "linker_set_key" : "const std::shared_ptr<const C2Component::Traits> &",
   "name" : "const std::shared_ptr<const C2Component::Traits> &",
   "referenced_type" : "type-4270",
   "self_type" : "type-4272",
   "size" : 8,
   "source_file" : "/frameworks/av/media/codec2/hidl/1.0/utils/include/codec2/hidl/1.0/ComponentStore.h"
  },
  {
   "alignment" : 8,
   "linker_set_key" : "const std::vector<C2FieldDescriptor, std::allocator<C2FieldDescriptor> > &",
   "name" : "const std::vector<C2FieldDescriptor, std::allocator<C2FieldDescriptor> > &",
   "referenced_type" : "type-1099",
   "self_type" : "type-1102",
   "size" : 8,
   "source_file" : "/frameworks/av/media/codec2/core/include/C2Param.h"
  },
  {
   "alignment" : 8,
   "linker_set_key" : "const std::vector<C2FieldDescriptor, std::allocator<C2FieldDescriptor> > &",
   "name" : "const std::vector<C2FieldDescriptor, std::allocator<C2FieldDescriptor> > &",
   "referenced_type" : "type-1146",
   "self_type" : "type-1149",
   "size" : 8,
   "source_file" : "/frameworks/av/media/codec2/core/include/C2Param.h"
  },
  {
   "alignment" : 8,
   "linker_set_key" : "const std::vector<C2FieldDescriptor, std::allocator<C2FieldDescriptor> > &",
   "name" : "const std::vector<C2FieldDescriptor, std::allocator<C2FieldDescriptor> > &",
   "referenced_type" : "type-115",
   "self_type" : "type-117",
   "size" : 8,
   "source_file" : "/frameworks/av/media/codec2/core/include/C2Param.h"
  },
  {
   "alignment" : 8,
   "linker_set_key" : "const std::vector<C2FieldDescriptor, std::allocator<C2FieldDescriptor> > &",
   "name" : "const std::vector<C2FieldDescriptor, std::allocator<C2FieldDescriptor> > &",
   "referenced_type" : "type-1187",
   "self_type" : "type-1227",
   "size" : 8,
   "source_file" : "/frameworks/av/media/codec2/core/include/C2Param.h"
  },
  {
   "alignment" : 8,
   "linker_set_key" : "const std::vector<C2FieldDescriptor, std::allocator<C2FieldDescriptor> > &",
   "name" : "const std::vector<C2FieldDescriptor, std::allocator<C2FieldDescriptor> > &",
   "referenced_type" : "type-1799",
   "self_type" : "type-1803",
   "size" : 8,
   "source_file" : "/frameworks/av/media/codec2/core/include/C2Param.h"
  },
  {
   "alignment" : 8,
   "linker_set_key" : "const std::vector<C2FieldDescriptor, std::allocator<C2FieldDescriptor> > &",
   "name" : "const std::vector<C2FieldDescriptor, std::allocator<C2FieldDescriptor> > &",
   "referenced_type" : "type-2502",
   "self_type" : "type-2504",
   "size" : 8,
   "source_file" : "/frameworks/av/media/codec2/core/include/C2Param.h"
  },
  {
   "alignment" : 8,
   "linker_set_key" : "const std::vector<C2FieldDescriptor, std::allocator<C2FieldDescriptor> > &",
   "name" : "const std::vector<C2FieldDescriptor, std::allocator<C2FieldDescriptor> > &",
   "referenced_type" : "type-2747",
   "self_type" : "type-2751",
   "size" : 8,
   "source_file" : "/frameworks/av/media/codec2/core/include/C2Param.h"
  },
  {
   "alignment" : 8,
   "linker_set_key" : "const std::vector<C2FieldDescriptor, std::allocator<C2FieldDescriptor> > &",
   "name" : "const std::vector<C2FieldDescriptor, std::allocator<C2FieldDescriptor> > &",
   "referenced_type" : "type-2971",
   "self_type" : "type-2973",
   "size" : 8,
   "source_file" : "/frameworks/av/media/codec2/core/include/C2Param.h"
  },
  {
   "alignment" : 8,
   "linker_set_key" : "const std::vector<C2FieldDescriptor, std::allocator<C2FieldDescriptor> > &",
   "name" : "const std::vector<C2FieldDescriptor, std::allocator<C2FieldDescriptor> > &",
   "referenced_type" : "type-3421",
   "self_type" : "type-3423",
   "size" : 8,
   "source_file" : "/frameworks/av/media/codec2/core/include/C2Param.h"
  },
  {
   "alignment" : 8,
   "linker_set_key" : "const std::vector<C2FieldDescriptor, std::allocator<C2FieldDescriptor> > &",
   "name" : "const std::vector<C2FieldDescriptor, std::allocator<C2FieldDescriptor> > &",
   "referenced_type" : "type-350",
   "self_type" : "type-353",
   "size" : 8,
   "source_file" : "/frameworks/av/media/codec2/core/include/C2Param.h"
  },
  {
   "alignment" : 8,
   "linker_set_key" : "const std::vector<C2FieldDescriptor, std::allocator<C2FieldDescriptor> > &",
   "name" : "const std::vector<C2FieldDescriptor, std::allocator<C2FieldDescriptor> > &",
   "referenced_type" : "type-3702",
   "self_type" : "type-3704",
   "size" : 8,
   "source_file" : "/frameworks/av/media/codec2/core/include/C2Param.h"
  },
  {
   "alignment" : 8,
   "linker_set_key" : "const std::vector<C2FieldDescriptor, std::allocator<C2FieldDescriptor> > &",
   "name" : "const std::vector<C2FieldDescriptor, std::allocator<C2FieldDescriptor> > &",
   "referenced_type" : "type-3918",
   "self_type" : "type-3921",
   "size" : 8,
   "source_file" : "/frameworks/av/media/codec2/core/include/C2Param.h"
  },
  {
   "alignment" : 8,
   "linker_set_key" : "const std::vector<C2FieldDescriptor, std::allocator<C2FieldDescriptor> > &",
   "name" : "const std::vector<C2FieldDescriptor, std::allocator<C2FieldDescriptor> > &",
   "referenced_type" : "type-4110",
   "self_type" : "type-4112",
   "size" : 8,
   "source_file" : "/frameworks/av/media/codec2/core/include/C2Param.h"
  },
  {
   "alignment" : 8,
   "linker_set_key" : "const std::vector<C2FieldDescriptor, std::allocator<C2FieldDescriptor> > &",
   "name" : "const std::vector<C2FieldDescriptor, std::allocator<C2FieldDescriptor> > &",
   "referenced_type" : "type-4411",
   "self_type" : "type-4414",
   "size" : 8,
   "source_file" : "/frameworks/av/media/codec2/core/include/C2Param.h"
  },
  {
   "alignment" : 8,
   "linker_set_key" : "const std::vector<C2FieldDescriptor, std::allocator<C2FieldDescriptor> > &",
   "name" : "const std::vector<C2FieldDescriptor, std::allocator<C2FieldDescriptor> > &",
   "referenced_type" : "type-770",
   "self_type" : "type-774",
   "size" : 8,
   "source_file" : "/frameworks/av/media/codec2/core/include/C2Param.h"
  },
  {
   "alignment" : 8,
   "linker_set_key" : "const std::vector<C2Param *, std::allocator<C2Param *> > &",
   "name" : "const std::vector<C2Param *, std::allocator<C2Param *> > &",
   "referenced_type" : "type-1282",
   "self_type" : "type-1284",
   "size" : 8,
   "source_file" : "/frameworks/av/media/codec2/hidl/1.0/utils/include/codec2/hidl/1.0/types.h"
  },
  {
   "alignment" : 8,
   "linker_set_key" : "const std::vector<C2Param::Index, std::allocator<C2Param::Index> > &",
   "name" : "const std::vector<C2Param::Index, std::allocator<C2Param::Index> > &",
   "referenced_type" : "type-1106",
   "self_type" : "type-1105",
   "size" : 8,
   "source_file" : "/frameworks/av/media/codec2/core/include/C2Param.h"
  },
  {
   "alignment" : 8,
   "linker_set_key" : "const std::vector<C2Param::Index, std::allocator<C2Param::Index> > &",
   "name" : "const std::vector<C2Param::Index, std::allocator<C2Param::Index> > &",
   "referenced_type" : "type-1153",
   "self_type" : "type-1152",
   "size" : 8,
   "source_file" : "/frameworks/av/media/codec2/core/include/C2Param.h"
  },
  {
   "alignment" : 8,
   "linker_set_key" : "const std::vector<C2Param::Index, std::allocator<C2Param::Index> > &",
   "name" : "const std::vector<C2Param::Index, std::allocator<C2Param::Index> > &",
   "referenced_type" : "type-122",
   "self_type" : "type-121",
   "size" : 8,
   "source_file" : "/frameworks/av/media/codec2/core/include/C2Param.h"
  },
  {
   "alignment" : 8,
   "linker_set_key" : "const std::vector<C2Param::Index, std::allocator<C2Param::Index> > &",
   "name" : "const std::vector<C2Param::Index, std::allocator<C2Param::Index> > &",
   "referenced_type" : "type-1302",
   "self_type" : "type-1301",
   "size" : 8,
   "source_file" : "/frameworks/av/media/codec2/core/include/C2Param.h"
  },
  {
   "alignment" : 8,
   "linker_set_key" : "const std::vector<C2Param::Index, std::allocator<C2Param::Index> > &",
   "name" : "const std::vector<C2Param::Index, std::allocator<C2Param::Index> > &",
   "referenced_type" : "type-1807",
   "self_type" : "type-1806",
   "size" : 8,
   "source_file" : "/frameworks/av/media/codec2/core/include/C2Param.h"
  },
  {
   "alignment" : 8,
   "linker_set_key" : "const std::vector<C2Param::Index, std::allocator<C2Param::Index> > &",
   "name" : "const std::vector<C2Param::Index, std::allocator<C2Param::Index> > &",
   "referenced_type" : "type-2508",
   "self_type" : "type-2507",
   "size" : 8,
   "source_file" : "/frameworks/av/media/codec2/core/include/C2Param.h"
  },
  {
   "alignment" : 8,
   "linker_set_key" : "const std::vector<C2Param::Index, std::allocator<C2Param::Index> > &",
   "name" : "const std::vector<C2Param::Index, std::allocator<C2Param::Index> > &",
   "referenced_type" : "type-2755",
   "self_type" : "type-2754",
   "size" : 8,
   "source_file" : "/frameworks/av/media/codec2/core/include/C2Param.h"
  },
  {
   "alignment" : 8,
   "linker_set_key" : "const std::vector<C2Param::Index, std::allocator<C2Param::Index> > &",
   "name" : "const std::vector<C2Param::Index, std::allocator<C2Param::Index> > &",
   "referenced_type" : "type-2980",
   "self_type" : "type-2979",
   "size" : 8,
   "source_file" : "/frameworks/av/media/codec2/core/include/C2Param.h"
  },
  {
   "alignment" : 8,
   "linker_set_key" : "const std::vector<C2Param::Index, std::allocator<C2Param::Index> > &",
   "name" : "const std::vector<C2Param::Index, std::allocator<C2Param::Index> > &",
   "referenced_type" : "type-3427",
   "self_type" : "type-3426",
   "size" : 8,
   "source_file" : "/frameworks/av/media/codec2/core/include/C2Param.h"
  },
  {
   "alignment" : 8,
   "linker_set_key" : "const std::vector<C2Param::Index, std::allocator<C2Param::Index> > &",
   "name" : "const std::vector<C2Param::Index, std::allocator<C2Param::Index> > &",
   "referenced_type" : "type-357",
   "self_type" : "type-356",
   "size" : 8,
   "source_file" : "/frameworks/av/media/codec2/core/include/C2Param.h"
  },
  {
   "alignment" : 8,
   "linker_set_key" : "const std::vector<C2Param::Index, std::allocator<C2Param::Index> > &",
   "name" : "const std::vector<C2Param::Index, std::allocator<C2Param::Index> > &",
   "referenced_type" : "type-3708",
   "self_type" : "type-3707",
   "size" : 8,
   "source_file" : "/frameworks/av/media/codec2/core/include/C2Param.h"
  },
  {
   "alignment" : 8,
   "linker_set_key" : "const std::vector<C2Param::Index, std::allocator<C2Param::Index> > &",
   "name" : "const std::vector<C2Param::Index, std::allocator<C2Param::Index> > &",
   "referenced_type" : "type-3925",
   "self_type" : "type-3924",
   "size" : 8,
   "source_file" : "/frameworks/av/media/codec2/core/include/C2Param.h"
  },
  {
   "alignment" : 8,
   "linker_set_key" : "const std::vector<C2Param::Index, std::allocator<C2Param::Index> > &",
   "name" : "const std::vector<C2Param::Index, std::allocator<C2Param::Index> > &",
   "referenced_type" : "type-4117",
   "self_type" : "type-4116",
   "size" : 8,
   "source_file" : "/frameworks/av/media/codec2/core/include/C2Param.h"
  },
  {
   "alignment" : 8,
   "linker_set_key" : "const std::vector<C2Param::Index, std::allocator<C2Param::Index> > &",
   "name" : "const std::vector<C2Param::Index, std::allocator<C2Param::Index> > &",
   "referenced_type" : "type-4418",
   "self_type" : "type-4417",
   "size" : 8,
   "source_file" : "/frameworks/av/media/codec2/core/include/C2Param.h"
  },
  {
   "alignment" : 8,
   "linker_set_key" : "const std::vector<C2Param::Index, std::allocator<C2Param::Index> > &",
   "name" : "const std::vector<C2Param::Index, std::allocator<C2Param::Index> > &",
   "referenced_type" : "type-779",
   "self_type" : "type-778",
   "size" : 8,
   "source_file" : "/frameworks/av/media/codec2/core/include/C2Param.h"
  },
  {
   "alignment" : 8,
   "linker_set_key" : "const std::vector<std::function<void (InstrumentationEvent, const char *, const char *, const char *, const char *, vector<void *, allocator<void *> > *)>, std::allocator<std::function<void (InstrumentationEvent, const char *, const char *, const char *, const char *, vector<void *, allocator<void *> > *)> > > &",
   "name" : "const std::vector<std::function<void (InstrumentationEvent, const char *, const char *, const char *, const char *, vector<void *, allocator<void *> > *)>, std::allocator<std::function<void (InstrumentationEvent, const char *, const char *, const char *, const char *, vector<void *, allocator<void *> > *)> > > &",
   "referenced_type" : "type-1316",
   "self_type" : "type-1315",
   "size" : 8,
   "source_file" : "/system/libhidl/base/include/hidl/HidlInternal.h"
  },
  {
   "alignment" : 8,
   "linker_set_key" : "const std::vector<std::function<void (InstrumentationEvent, const char *, const char *, const char *, const char *, vector<void *, allocator<void *> > *)>, std::allocator<std::function<void (InstrumentationEvent, const char *, const char *, const char *, const char *, vector<void *, allocator<void *> > *)> > > &",
   "name" : "const std::vector<std::function<void (InstrumentationEvent, const char *, const char *, const char *, const char *, vector<void *, allocator<void *> > *)>, std::allocator<std::function<void (InstrumentationEvent, const char *, const char *, const char *, const char *, vector<void *, allocator<void *> > *)> > > &",
   "referenced_type" : "type-1742",
   "self_type" : "type-1741",
   "size" : 8,
   "source_file" : "/system/libhidl/base/include/hidl/HidlInternal.h"
  },
  {
   "alignment" : 8,
   "linker_set_key" : "const std::vector<std::function<void (InstrumentationEvent, const char *, const char *, const char *, const char *, vector<void *, allocator<void *> > *)>, std::allocator<std::function<void (InstrumentationEvent, const char *, const char *, const char *, const char *, vector<void *, allocator<void *> > *)> > > &",
   "name" : "const std::vector<std::function<void (InstrumentationEvent, const char *, const char *, const char *, const char *, vector<void *, allocator<void *> > *)>, std::allocator<std::function<void (InstrumentationEvent, const char *, const char *, const char *, const char *, vector<void *, allocator<void *> > *)> > > &",
   "referenced_type" : "type-2277",
   "self_type" : "type-2276",
   "size" : 8,
   "source_file" : "/system/libhidl/base/include/hidl/HidlInternal.h"
  },
  {
   "alignment" : 8,
   "linker_set_key" : "const std::vector<std::function<void (InstrumentationEvent, const char *, const char *, const char *, const char *, vector<void *, allocator<void *> > *)>, std::allocator<std::function<void (InstrumentationEvent, const char *, const char *, const char *, const char *, vector<void *, allocator<void *> > *)> > > &",
   "name" : "const std::vector<std::function<void (InstrumentationEvent, const char *, const char *, const char *, const char *, vector<void *, allocator<void *> > *)>, std::allocator<std::function<void (InstrumentationEvent, const char *, const char *, const char *, const char *, vector<void *, allocator<void *> > *)> > > &",
   "referenced_type" : "type-256",
   "self_type" : "type-255",
   "size" : 8,
   "source_file" : "/system/libhidl/base/include/hidl/HidlInternal.h"
  },
  {
   "alignment" : 8,
   "linker_set_key" : "const std::vector<std::function<void (InstrumentationEvent, const char *, const char *, const char *, const char *, vector<void *, allocator<void *> > *)>, std::allocator<std::function<void (InstrumentationEvent, const char *, const char *, const char *, const char *, vector<void *, allocator<void *> > *)> > > &",
   "name" : "const std::vector<std::function<void (InstrumentationEvent, const char *, const char *, const char *, const char *, vector<void *, allocator<void *> > *)>, std::allocator<std::function<void (InstrumentationEvent, const char *, const char *, const char *, const char *, vector<void *, allocator<void *> > *)> > > &",
   "referenced_type" : "type-2652",
   "self_type" : "type-2651",
   "size" : 8,
   "source_file" : "/system/libhidl/base/include/hidl/HidlInternal.h"
  },
  {
   "alignment" : 8,
   "linker_set_key" : "const std::vector<std::function<void (InstrumentationEvent, const char *, const char *, const char *, const char *, vector<void *, allocator<void *> > *)>, std::allocator<std::function<void (InstrumentationEvent, const char *, const char *, const char *, const char *, vector<void *, allocator<void *> > *)> > > &",
   "name" : "const std::vector<std::function<void (InstrumentationEvent, const char *, const char *, const char *, const char *, vector<void *, allocator<void *> > *)>, std::allocator<std::function<void (InstrumentationEvent, const char *, const char *, const char *, const char *, vector<void *, allocator<void *> > *)> > > &",
   "referenced_type" : "type-2906",
   "self_type" : "type-2905",
   "size" : 8,
   "source_file" : "/system/libhidl/base/include/hidl/HidlInternal.h"
  },
  {
   "alignment" : 8,
   "linker_set_key" : "const std::vector<std::function<void (InstrumentationEvent, const char *, const char *, const char *, const char *, vector<void *, allocator<void *> > *)>, std::allocator<std::function<void (InstrumentationEvent, const char *, const char *, const char *, const char *, vector<void *, allocator<void *> > *)> > > &",
   "name" : "const std::vector<std::function<void (InstrumentationEvent, const char *, const char *, const char *, const char *, vector<void *, allocator<void *> > *)>, std::allocator<std::function<void (InstrumentationEvent, const char *, const char *, const char *, const char *, vector<void *, allocator<void *> > *)> > > &",
   "referenced_type" : "type-3285",
   "self_type" : "type-3284",
   "size" : 8,
   "source_file" : "/system/libhidl/base/include/hidl/HidlInternal.h"
  },
  {
   "alignment" : 8,
   "linker_set_key" : "const std::vector<std::function<void (InstrumentationEvent, const char *, const char *, const char *, const char *, vector<void *, allocator<void *> > *)>, std::allocator<std::function<void (InstrumentationEvent, const char *, const char *, const char *, const char *, vector<void *, allocator<void *> > *)> > > &",
   "name" : "const std::vector<std::function<void (InstrumentationEvent, const char *, const char *, const char *, const char *, vector<void *, allocator<void *> > *)>, std::allocator<std::function<void (InstrumentationEvent, const char *, const char *, const char *, const char *, vector<void *, allocator<void *> > *)> > > &",
   "referenced_type" : "type-35",
   "self_type" : "type-34",
   "size" : 8,
   "source_file" : "/system/libhidl/base/include/hidl/HidlInternal.h"
  },
  {
   "alignment" : 8,
   "linker_set_key" : "const std::vector<std::function<void (InstrumentationEvent, const char *, const char *, const char *, const char *, vector<void *, allocator<void *> > *)>, std::allocator<std::function<void (InstrumentationEvent, const char *, const char *, const char *, const char *, vector<void *, allocator<void *> > *)> > > &",
   "name" : "const std::vector<std::function<void (InstrumentationEvent, const char *, const char *, const char *, const char *, vector<void *, allocator<void *> > *)>, std::allocator<std::function<void (InstrumentationEvent, const char *, const char *, const char *, const char *, vector<void *, allocator<void *> > *)> > > &",
   "referenced_type" : "type-3558",
   "self_type" : "type-3557",
   "size" : 8,
   "source_file" : "/system/libhidl/base/include/hidl/HidlInternal.h"
  },
  {
   "alignment" : 8,
   "linker_set_key" : "const std::vector<std::function<void (InstrumentationEvent, const char *, const char *, const char *, const char *, vector<void *, allocator<void *> > *)>, std::allocator<std::function<void (InstrumentationEvent, const char *, const char *, const char *, const char *, vector<void *, allocator<void *> > *)> > > &",
   "name" : "const std::vector<std::function<void (InstrumentationEvent, const char *, const char *, const char *, const char *, vector<void *, allocator<void *> > *)>, std::allocator<std::function<void (InstrumentationEvent, const char *, const char *, const char *, const char *, vector<void *, allocator<void *> > *)> > > &",
   "referenced_type" : "type-3845",
   "self_type" : "type-3844",
   "size" : 8,
   "source_file" : "/system/libhidl/base/include/hidl/HidlInternal.h"
  },
  {
   "alignment" : 8,
   "linker_set_key" : "const std::vector<std::function<void (InstrumentationEvent, const char *, const char *, const char *, const char *, vector<void *, allocator<void *> > *)>, std::allocator<std::function<void (InstrumentationEvent, const char *, const char *, const char *, const char *, vector<void *, allocator<void *> > *)> > > &",
   "name" : "const std::vector<std::function<void (InstrumentationEvent, const char *, const char *, const char *, const char *, vector<void *, allocator<void *> > *)>, std::allocator<std::function<void (InstrumentationEvent, const char *, const char *, const char *, const char *, vector<void *, allocator<void *> > *)> > > &",
   "referenced_type" : "type-4026",
   "self_type" : "type-4025",
   "size" : 8,
   "source_file" : "/system/libhidl/base/include/hidl/HidlInternal.h"
  },
  {
   "alignment" : 8,
   "linker_set_key" : "const std::vector<std::function<void (InstrumentationEvent, const char *, const char *, const char *, const char *, vector<void *, allocator<void *> > *)>, std::allocator<std::function<void (InstrumentationEvent, const char *, const char *, const char *, const char *, vector<void *, allocator<void *> > *)> > > &",
   "name" : "const std::vector<std::function<void (InstrumentationEvent, const char *, const char *, const char *, const char *, vector<void *, allocator<void *> > *)>, std::allocator<std::function<void (InstrumentationEvent, const char *, const char *, const char *, const char *, vector<void *, allocator<void *> > *)> > > &",
   "referenced_type" : "type-4044",
   "self_type" : "type-4043",
   "size" : 8,
   "source_file" : "/system/libhidl/base/include/hidl/HidlInternal.h"
  },
  {
   "alignment" : 8,
   "linker_set_key" : "const std::vector<std::function<void (InstrumentationEvent, const char *, const char *, const char *, const char *, vector<void *, allocator<void *> > *)>, std::allocator<std::function<void (InstrumentationEvent, const char *, const char *, const char *, const char *, vector<void *, allocator<void *> > *)> > > &",
   "name" : "const std::vector<std::function<void (InstrumentationEvent, const char *, const char *, const char *, const char *, vector<void *, allocator<void *> > *)>, std::allocator<std::function<void (InstrumentationEvent, const char *, const char *, const char *, const char *, vector<void *, allocator<void *> > *)> > > &",
   "referenced_type" : "type-4306",
   "self_type" : "type-4305",
   "size" : 8,
   "source_file" : "/system/libhidl/base/include/hidl/HidlInternal.h"
  },
  {
   "alignment" : 8,
   "linker_set_key" : "const std::vector<std::function<void (InstrumentationEvent, const char *, const char *, const char *, const char *, vector<void *, allocator<void *> > *)>, std::allocator<std::function<void (InstrumentationEvent, const char *, const char *, const char *, const char *, vector<void *, allocator<void *> > *)> > > &",
   "name" : "const std::vector<std::function<void (InstrumentationEvent, const char *, const char *, const char *, const char *, vector<void *, allocator<void *> > *)>, std::allocator<std::function<void (InstrumentationEvent, const char *, const char *, const char *, const char *, vector<void *, allocator<void *> > *)> > > &",
   "referenced_type" : "type-611",
   "self_type" : "type-610",
   "size" : 8,
   "source_file" : "/system/libhidl/base/include/hidl/HidlInternal.h"
  },
  {
   "alignment" : 8,
   "linker_set_key" : "const std::vector<std::function<void (InstrumentationEvent, const char *, const char *, const char *, const char *, vector<void *, allocator<void *> > *)>, std::allocator<std::function<void (InstrumentationEvent, const char *, const char *, const char *, const char *, vector<void *, allocator<void *> > *)> > > &",
   "name" : "const std::vector<std::function<void (InstrumentationEvent, const char *, const char *, const char *, const char *, vector<void *, allocator<void *> > *)>, std::allocator<std::function<void (InstrumentationEvent, const char *, const char *, const char *, const char *, vector<void *, allocator<void *> > *)> > > &",
   "referenced_type" : "type-961",
   "self_type" : "type-960",
   "size" : 8,
   "source_file" : "/system/libhidl/base/include/hidl/HidlInternal.h"
  },
  {
   "alignment" : 8,
   "linker_set_key" : "const std::vector<std::pair<std::basic_string<char, std::char_traits<char>, std::allocator<char> >, C2Value::Primitive>, std::allocator<std::pair<std::basic_string<char, std::char_traits<char>, std::allocator<char> >, C2Value::Primitive> > > &",
   "name" : "const std::vector<std::pair<std::basic_string<char, std::char_traits<char>, std::allocator<char> >, C2Value::Primitive>, std::allocator<std::pair<std::basic_string<char, std::char_traits<char>, std::allocator<char> >, C2Value::Primitive> > > &",
   "referenced_type" : "type-1096",
   "self_type" : "type-1095",
   "size" : 8,
   "source_file" : "/frameworks/av/media/codec2/core/include/C2Param.h"
  },
  {
   "alignment" : 8,
   "linker_set_key" : "const std::vector<std::pair<std::basic_string<char, std::char_traits<char>, std::allocator<char> >, C2Value::Primitive>, std::allocator<std::pair<std::basic_string<char, std::char_traits<char>, std::allocator<char> >, C2Value::Primitive> > > &",
   "name" : "const std::vector<std::pair<std::basic_string<char, std::char_traits<char>, std::allocator<char> >, C2Value::Primitive>, std::allocator<std::pair<std::basic_string<char, std::char_traits<char>, std::allocator<char> >, C2Value::Primitive> > > &",
   "referenced_type" : "type-112",
   "self_type" : "type-111",
   "size" : 8,
   "source_file" : "/frameworks/av/media/codec2/core/include/C2Param.h"
  },
  {
   "alignment" : 8,
   "linker_set_key" : "const std::vector<std::pair<std::basic_string<char, std::char_traits<char>, std::allocator<char> >, C2Value::Primitive>, std::allocator<std::pair<std::basic_string<char, std::char_traits<char>, std::allocator<char> >, C2Value::Primitive> > > &",
   "name" : "const std::vector<std::pair<std::basic_string<char, std::char_traits<char>, std::allocator<char> >, C2Value::Primitive>, std::allocator<std::pair<std::basic_string<char, std::char_traits<char>, std::allocator<char> >, C2Value::Primitive> > > &",
   "referenced_type" : "type-1143",
   "self_type" : "type-1142",
   "size" : 8,
   "source_file" : "/frameworks/av/media/codec2/core/include/C2Param.h"
  },
  {
   "alignment" : 8,
   "linker_set_key" : "const std::vector<std::pair<std::basic_string<char, std::char_traits<char>, std::allocator<char> >, C2Value::Primitive>, std::allocator<std::pair<std::basic_string<char, std::char_traits<char>, std::allocator<char> >, C2Value::Primitive> > > &",
   "name" : "const std::vector<std::pair<std::basic_string<char, std::char_traits<char>, std::allocator<char> >, C2Value::Primitive>, std::allocator<std::pair<std::basic_string<char, std::char_traits<char>, std::allocator<char> >, C2Value::Primitive> > > &",
   "referenced_type" : "type-1166",
   "self_type" : "type-1165",
   "size" : 8,
   "source_file" : "/frameworks/av/media/codec2/core/include/C2Param.h"
  },
  {
   "alignment" : 8,
   "linker_set_key" : "const std::vector<std::pair<std::basic_string<char, std::char_traits<char>, std::allocator<char> >, C2Value::Primitive>, std::allocator<std::pair<std::basic_string<char, std::char_traits<char>, std::allocator<char> >, C2Value::Primitive> > > &",
   "name" : "const std::vector<std::pair<std::basic_string<char, std::char_traits<char>, std::allocator<char> >, C2Value::Primitive>, std::allocator<std::pair<std::basic_string<char, std::char_traits<char>, std::allocator<char> >, C2Value::Primitive> > > &",
   "referenced_type" : "type-1796",
   "self_type" : "type-1795",
   "size" : 8,
   "source_file" : "/frameworks/av/media/codec2/core/include/C2Param.h"
  },
  {
   "alignment" : 8,
   "linker_set_key" : "const std::vector<std::pair<std::basic_string<char, std::char_traits<char>, std::allocator<char> >, C2Value::Primitive>, std::allocator<std::pair<std::basic_string<char, std::char_traits<char>, std::allocator<char> >, C2Value::Primitive> > > &",
   "name" : "const std::vector<std::pair<std::basic_string<char, std::char_traits<char>, std::allocator<char> >, C2Value::Primitive>, std::allocator<std::pair<std::basic_string<char, std::char_traits<char>, std::allocator<char> >, C2Value::Primitive> > > &",
   "referenced_type" : "type-2500",
   "self_type" : "type-2499",
   "size" : 8,
   "source_file" : "/frameworks/av/media/codec2/core/include/C2Param.h"
  },
  {
   "alignment" : 8,
   "linker_set_key" : "const std::vector<std::pair<std::basic_string<char, std::char_traits<char>, std::allocator<char> >, C2Value::Primitive>, std::allocator<std::pair<std::basic_string<char, std::char_traits<char>, std::allocator<char> >, C2Value::Primitive> > > &",
   "name" : "const std::vector<std::pair<std::basic_string<char, std::char_traits<char>, std::allocator<char> >, C2Value::Primitive>, std::allocator<std::pair<std::basic_string<char, std::char_traits<char>, std::allocator<char> >, C2Value::Primitive> > > &",
   "referenced_type" : "type-2745",
   "self_type" : "type-2744",
   "size" : 8,
   "source_file" : "/frameworks/av/media/codec2/core/include/C2Param.h"
  },
  {
   "alignment" : 8,
   "linker_set_key" : "const std::vector<std::pair<std::basic_string<char, std::char_traits<char>, std::allocator<char> >, C2Value::Primitive>, std::allocator<std::pair<std::basic_string<char, std::char_traits<char>, std::allocator<char> >, C2Value::Primitive> > > &",
   "name" : "const std::vector<std::pair<std::basic_string<char, std::char_traits<char>, std::allocator<char> >, C2Value::Primitive>, std::allocator<std::pair<std::basic_string<char, std::char_traits<char>, std::allocator<char> >, C2Value::Primitive> > > &",
   "referenced_type" : "type-2969",
   "self_type" : "type-2968",
   "size" : 8,
   "source_file" : "/frameworks/av/media/codec2/core/include/C2Param.h"
  },
  {
   "alignment" : 8,
   "linker_set_key" : "const std::vector<std::pair<std::basic_string<char, std::char_traits<char>, std::allocator<char> >, C2Value::Primitive>, std::allocator<std::pair<std::basic_string<char, std::char_traits<char>, std::allocator<char> >, C2Value::Primitive> > > &",
   "name" : "const std::vector<std::pair<std::basic_string<char, std::char_traits<char>, std::allocator<char> >, C2Value::Primitive>, std::allocator<std::pair<std::basic_string<char, std::char_traits<char>, std::allocator<char> >, C2Value::Primitive> > > &",
   "referenced_type" : "type-335",
   "self_type" : "type-334",
   "size" : 8,
   "source_file" : "/frameworks/av/media/codec2/core/include/C2Param.h"
  },
  {
   "alignment" : 8,
   "linker_set_key" : "const std::vector<std::pair<std::basic_string<char, std::char_traits<char>, std::allocator<char> >, C2Value::Primitive>, std::allocator<std::pair<std::basic_string<char, std::char_traits<char>, std::allocator<char> >, C2Value::Primitive> > > &",
   "name" : "const std::vector<std::pair<std::basic_string<char, std::char_traits<char>, std::allocator<char> >, C2Value::Primitive>, std::allocator<std::pair<std::basic_string<char, std::char_traits<char>, std::allocator<char> >, C2Value::Primitive> > > &",
   "referenced_type" : "type-3419",
   "self_type" : "type-3418",
   "size" : 8,
   "source_file" : "/frameworks/av/media/codec2/core/include/C2Param.h"
  },
  {
   "alignment" : 8,
   "linker_set_key" : "const std::vector<std::pair<std::basic_string<char, std::char_traits<char>, std::allocator<char> >, C2Value::Primitive>, std::allocator<std::pair<std::basic_string<char, std::char_traits<char>, std::allocator<char> >, C2Value::Primitive> > > &",
   "name" : "const std::vector<std::pair<std::basic_string<char, std::char_traits<char>, std::allocator<char> >, C2Value::Primitive>, std::allocator<std::pair<std::basic_string<char, std::char_traits<char>, std::allocator<char> >, C2Value::Primitive> > > &",
   "referenced_type" : "type-3700",
   "self_type" : "type-3699",
   "size" : 8,
   "source_file" : "/frameworks/av/media/codec2/core/include/C2Param.h"
  },
  {
   "alignment" : 8,
   "linker_set_key" : "const std::vector<std::pair<std::basic_string<char, std::char_traits<char>, std::allocator<char> >, C2Value::Primitive>, std::allocator<std::pair<std::basic_string<char, std::char_traits<char>, std::allocator<char> >, C2Value::Primitive> > > &",
   "name" : "const std::vector<std::pair<std::basic_string<char, std::char_traits<char>, std::allocator<char> >, C2Value::Primitive>, std::allocator<std::pair<std::basic_string<char, std::char_traits<char>, std::allocator<char> >, C2Value::Primitive> > > &",
   "referenced_type" : "type-3915",
   "self_type" : "type-3914",
   "size" : 8,
   "source_file" : "/frameworks/av/media/codec2/core/include/C2Param.h"
  },
  {
   "alignment" : 8,
   "linker_set_key" : "const std::vector<std::pair<std::basic_string<char, std::char_traits<char>, std::allocator<char> >, C2Value::Primitive>, std::allocator<std::pair<std::basic_string<char, std::char_traits<char>, std::allocator<char> >, C2Value::Primitive> > > &",
   "name" : "const std::vector<std::pair<std::basic_string<char, std::char_traits<char>, std::allocator<char> >, C2Value::Primitive>, std::allocator<std::pair<std::basic_string<char, std::char_traits<char>, std::allocator<char> >, C2Value::Primitive> > > &",
   "referenced_type" : "type-4108",
   "self_type" : "type-4107",
   "size" : 8,
   "source_file" : "/frameworks/av/media/codec2/core/include/C2Param.h"
  },
  {
   "alignment" : 8,
   "linker_set_key" : "const std::vector<std::pair<std::basic_string<char, std::char_traits<char>, std::allocator<char> >, C2Value::Primitive>, std::allocator<std::pair<std::basic_string<char, std::char_traits<char>, std::allocator<char> >, C2Value::Primitive> > > &",
   "name" : "const std::vector<std::pair<std::basic_string<char, std::char_traits<char>, std::allocator<char> >, C2Value::Primitive>, std::allocator<std::pair<std::basic_string<char, std::char_traits<char>, std::allocator<char> >, C2Value::Primitive> > > &",
   "referenced_type" : "type-4408",
   "self_type" : "type-4407",
   "size" : 8,
   "source_file" : "/frameworks/av/media/codec2/core/include/C2Param.h"
  },
  {
   "alignment" : 8,
   "linker_set_key" : "const std::vector<std::pair<std::basic_string<char, std::char_traits<char>, std::allocator<char> >, C2Value::Primitive>, std::allocator<std::pair<std::basic_string<char, std::char_traits<char>, std::allocator<char> >, C2Value::Primitive> > > &",
   "name" : "const std::vector<std::pair<std::basic_string<char, std::char_traits<char>, std::allocator<char> >, C2Value::Primitive>, std::allocator<std::pair<std::basic_string<char, std::char_traits<char>, std::allocator<char> >, C2Value::Primitive> > > &",
   "referenced_type" : "type-767",
   "self_type" : "type-766",
   "size" : 8,
   "source_file" : "/frameworks/av/media/codec2/core/include/C2Param.h"
  },
  {
   "alignment" : 8,
   "linker_set_key" : "const std::vector<std::shared_ptr<C2ParamDescriptor>, std::allocator<std::shared_ptr<C2ParamDescriptor> > > &",
   "name" : "const std::vector<std::shared_ptr<C2ParamDescriptor>, std::allocator<std::shared_ptr<C2ParamDescriptor> > > &",
   "referenced_type" : "type-1973",
   "self_type" : "type-1975",
   "size" : 8,
   "source_file" : "/frameworks/av/media/codec2/hidl/1.0/utils/include/codec2/hidl/1.0/ComponentStore.h"
  },
  {
   "alignment" : 8,
   "linker_set_key" : "const std::vector<std::shared_ptr<C2ParamDescriptor>, std::allocator<std::shared_ptr<C2ParamDescriptor> > > &",
   "name" : "const std::vector<std::shared_ptr<C2ParamDescriptor>, std::allocator<std::shared_ptr<C2ParamDescriptor> > > &",
   "referenced_type" : "type-4263",
   "self_type" : "type-4265",
   "size" : 8,
   "source_file" : "/frameworks/av/media/codec2/hidl/1.0/utils/include/codec2/hidl/1.0/ComponentStore.h"
  },
  {
   "alignment" : 8,
   "linker_set_key" : "const std::vector<std::shared_ptr<const C2Info>, std::allocator<std::shared_ptr<const C2Info> > > &",
   "name" : "const std::vector<std::shared_ptr<const C2Info>, std::allocator<std::shared_ptr<const C2Info> > > &",
   "referenced_type" : "type-1288",
   "self_type" : "type-1290",
   "size" : 8,
   "source_file" : "/frameworks/av/media/codec2/hidl/1.0/utils/include/codec2/hidl/1.0/types.h"
  },
  {
   "alignment" : 8,
   "linker_set_key" : "const std::vector<std::unique_ptr<C2Param, std::default_delete<C2Param> >, std::allocator<std::unique_ptr<C2Param, std::default_delete<C2Param> > > > &",
   "name" : "const std::vector<std::unique_ptr<C2Param, std::default_delete<C2Param> >, std::allocator<std::unique_ptr<C2Param, std::default_delete<C2Param> > > > &",
   "referenced_type" : "type-1285",
   "self_type" : "type-1287",
   "size" : 8,
   "source_file" : "/frameworks/av/media/codec2/hidl/1.0/utils/include/codec2/hidl/1.0/types.h"
  },
  {
   "alignment" : 8,
   "linker_set_key" : "const std::vector<std::unique_ptr<C2Tuning, std::default_delete<C2Tuning> >, std::allocator<std::unique_ptr<C2Tuning, std::default_delete<C2Tuning> > > > &",
   "name" : "const std::vector<std::unique_ptr<C2Tuning, std::default_delete<C2Tuning> >, std::allocator<std::unique_ptr<C2Tuning, std::default_delete<C2Tuning> > > > &",
   "referenced_type" : "type-1291",
   "self_type" : "type-1293",
   "size" : 8,
   "source_file" : "/frameworks/av/media/codec2/hidl/1.0/utils/include/codec2/hidl/1.0/types.h"
  },
  {
   "alignment" : 8,
   "linker_set_key" : "const unsigned char &",
   "name" : "const unsigned char &",
   "referenced_type" : "type-3245",
   "self_type" : "type-3244",
   "size" : 8,
   "source_file" : "/system/libhidl/base/include/hidl/HidlInternal.h"
  },
  {
   "alignment" : 8,
   "linker_set_key" : "const unsigned int &",
   "name" : "const unsigned int &",
   "referenced_type" : "type-707",
   "self_type" : "type-1141",
   "size" : 8,
   "source_file" : "/system/libhidl/base/include/hidl/HidlInternal.h"
  },
  {
   "alignment" : 8,
   "linker_set_key" : "const unsigned long &",
   "name" : "const unsigned long &",
   "referenced_type" : "type-1461",
   "self_type" : "type-1460",
   "size" : 8,
   "source_file" : "/system/libhidl/base/include/hidl/HidlInternal.h"
  },
  {
   "alignment" : 8,
   "linker_set_key" : "const unsigned short &",
   "name" : "const unsigned short &",
   "referenced_type" : "type-286",
   "self_type" : "type-289",
   "size" : 8,
   "source_file" : "/system/core/libutils/include/utils/TypeHelpers.h"
  },
  {
   "alignment" : 8,
   "linker_set_key" : "const void *&",
   "name" : "const void *&",
   "referenced_type" : "type-25",
   "self_type" : "type-2023",
   "size" : 8,
   "source_file" : "/system/core/libutils/include/utils/Flattenable.h"
  },
  {
   "alignment" : 8,
   "linker_set_key" : "int &",
   "name" : "int &",
   "referenced_type" : "type-19",
   "self_type" : "type-818",
   "size" : 8,
   "source_file" : "/out/soong/.intermediates/hardware/interfaces/media/bufferpool/2.0/android.hardware.media.bufferpool@2.0_genc++_headers/gen/android/hardware/media/bufferpool/2.0/types.h"
  },
  {
   "alignment" : 8,
   "linker_set_key" : "std::basic_ostream<char, std::char_traits<char> > &",
   "name" : "std::basic_ostream<char, std::char_traits<char> > &",
   "referenced_type" : "type-1033",
   "self_type" : "type-1032",
   "size" : 8,
   "source_file" : "/system/core/base/include/android-base/logging.h"
  },
  {
   "alignment" : 8,
   "linker_set_key" : "std::basic_ostream<char, std::char_traits<char> > &",
   "name" : "std::basic_ostream<char, std::char_traits<char> > &",
   "referenced_type" : "type-1349",
   "self_type" : "type-1348",
   "size" : 8,
   "source_file" : "/system/core/base/include/android-base/logging.h"
  },
  {
   "alignment" : 8,
   "linker_set_key" : "std::basic_ostream<char, std::char_traits<char> > &",
   "name" : "std::basic_ostream<char, std::char_traits<char> > &",
   "referenced_type" : "type-1769",
   "self_type" : "type-1768",
   "size" : 8,
   "source_file" : "/system/core/base/include/android-base/logging.h"
  },
  {
   "alignment" : 8,
   "linker_set_key" : "std::basic_ostream<char, std::char_traits<char> > &",
   "name" : "std::basic_ostream<char, std::char_traits<char> > &",
   "referenced_type" : "type-2442",
   "self_type" : "type-2441",
   "size" : 8,
   "source_file" : "/system/core/base/include/android-base/logging.h"
  },
  {
   "alignment" : 8,
   "linker_set_key" : "std::basic_ostream<char, std::char_traits<char> > &",
   "name" : "std::basic_ostream<char, std::char_traits<char> > &",
   "referenced_type" : "type-2693",
   "self_type" : "type-2692",
   "size" : 8,
   "source_file" : "/system/core/base/include/android-base/logging.h"
  },
  {
   "alignment" : 8,
   "linker_set_key" : "std::basic_ostream<char, std::char_traits<char> > &",
   "name" : "std::basic_ostream<char, std::char_traits<char> > &",
   "referenced_type" : "type-274",
   "self_type" : "type-273",
   "size" : 8,
   "source_file" : "/system/core/base/include/android-base/logging.h"
  },
  {
   "alignment" : 8,
   "linker_set_key" : "std::basic_ostream<char, std::char_traits<char> > &",
   "name" : "std::basic_ostream<char, std::char_traits<char> > &",
   "referenced_type" : "type-293",
   "self_type" : "type-292",
   "size" : 8,
   "source_file" : "/system/core/base/include/android-base/logging.h"
  },
  {
   "alignment" : 8,
   "linker_set_key" : "std::basic_ostream<char, std::char_traits<char> > &",
   "name" : "std::basic_ostream<char, std::char_traits<char> > &",
   "referenced_type" : "type-2931",
   "self_type" : "type-2930",
   "size" : 8,
   "source_file" : "/system/core/base/include/android-base/logging.h"
  },
  {
   "alignment" : 8,
   "linker_set_key" : "std::basic_ostream<char, std::char_traits<char> > &",
   "name" : "std::basic_ostream<char, std::char_traits<char> > &",
   "referenced_type" : "type-3367",
   "self_type" : "type-3366",
   "size" : 8,
   "source_file" : "/system/core/base/include/android-base/logging.h"
  },
  {
   "alignment" : 8,
   "linker_set_key" : "std::basic_ostream<char, std::char_traits<char> > &",
   "name" : "std::basic_ostream<char, std::char_traits<char> > &",
   "referenced_type" : "type-3632",
   "self_type" : "type-3631",
   "size" : 8,
   "source_file" : "/system/core/base/include/android-base/logging.h"
  },
  {
   "alignment" : 8,
   "linker_set_key" : "std::basic_ostream<char, std::char_traits<char> > &",
   "name" : "std::basic_ostream<char, std::char_traits<char> > &",
   "referenced_type" : "type-3869",
   "self_type" : "type-3868",
   "size" : 8,
   "source_file" : "/system/core/base/include/android-base/logging.h"
  },
  {
   "alignment" : 8,
   "linker_set_key" : "std::basic_ostream<char, std::char_traits<char> > &",
   "name" : "std::basic_ostream<char, std::char_traits<char> > &",
   "referenced_type" : "type-4075",
   "self_type" : "type-4074",
   "size" : 8,
   "source_file" : "/system/core/base/include/android-base/logging.h"
  },
  {
   "alignment" : 8,
   "linker_set_key" : "std::basic_ostream<char, std::char_traits<char> > &",
   "name" : "std::basic_ostream<char, std::char_traits<char> > &",
   "referenced_type" : "type-4361",
   "self_type" : "type-4360",
   "size" : 8,
   "source_file" : "/system/core/base/include/android-base/logging.h"
  },
  {
   "alignment" : 8,
   "linker_set_key" : "std::basic_ostream<char, std::char_traits<char> > &",
   "name" : "std::basic_ostream<char, std::char_traits<char> > &",
   "referenced_type" : "type-712",
   "self_type" : "type-711",
   "size" : 8,
   "source_file" : "/system/core/base/include/android-base/logging.h"
  },
  {
   "alignment" : 8,
   "linker_set_key" : "std::basic_ostream<char, std::char_traits<char> > &",
   "name" : "std::basic_ostream<char, std::char_traits<char> > &",
   "referenced_type" : "type-72",
   "self_type" : "type-71",
   "size" : 8,
   "source_file" : "/system/core/base/include/android-base/logging.h"
  },
  {
   "alignment" : 8,
   "linker_set_key" : "unsigned char &",
   "name" : "unsigned char &",
   "referenced_type" : "type-3",
   "self_type" : "type-2625",
   "size" : 8,
   "source_file" : "/system/libhidl/base/include/hidl/HidlInternal.h"
  },
  {
   "alignment" : 8,
   "linker_set_key" : "unsigned int &",
   "name" : "unsigned int &",
   "referenced_type" : "type-2",
   "self_type" : "type-908",
   "size" : 8,
   "source_file" : "/out/soong/.intermediates/hardware/interfaces/media/c2/1.0/android.hardware.media.c2@1.0_genc++_headers/gen/android/hardware/media/c2/1.0/types.h"
  },
  {
   "alignment" : 8,
   "linker_set_key" : "unsigned long &",
   "name" : "unsigned long &",
   "referenced_type" : "type-221",
   "self_type" : "type-2311",
   "size" : 8,
   "source_file" : "/out/soong/.intermediates/hardware/interfaces/graphics/common/1.0/android.hardware.graphics.common@1.0_genc++_headers/gen/android/hardware/graphics/common/1.0/types.h"
  },
  {
   "alignment" : 8,
   "linker_set_key" : "void *&",
   "name" : "void *&",
   "referenced_type" : "type-1467",
   "self_type" : "type-2022",
   "size" : 8,
   "source_file" : "/system/core/libutils/include/utils/Flattenable.h"
  }
 ],
 "pointer_types" :
 [
  {
   "alignment" : 8,
   "linker_set_key" : "ANativeWindowBuffer *",
   "name" : "ANativeWindowBuffer *",
   "referenced_type" : "type-2038",
   "self_type" : "type-2082",
   "size" : 8,
   "source_file" : "/frameworks/native/libs/nativebase/include/nativebase/nativebase.h"
  },
  {
   "alignment" : 8,
   "linker_set_key" : "C2Allocator *",
   "name" : "C2Allocator *",
   "referenced_type" : "type-2835",
   "self_type" : "type-2976",
   "size" : 8,
   "source_file" : "/frameworks/av/media/codec2/core/include/C2Buffer.h"
  },
  {
   "alignment" : 8,
   "linker_set_key" : "C2AllocatorStore *",
   "name" : "C2AllocatorStore *",
   "referenced_type" : "type-1793",
   "self_type" : "type-1794",
   "size" : 8,
   "source_file" : "/frameworks/av/media/codec2/core/include/C2Component.h"
  },
  {
   "alignment" : 8,
   "linker_set_key" : "C2BlockPool *",
   "name" : "C2BlockPool *",
   "referenced_type" : "type-3309",
   "self_type" : "type-3345",
   "size" : 8,
   "source_file" : "/frameworks/av/media/codec2/core/include/C2Buffer.h"
  },
  {
   "alignment" : 8,
   "linker_set_key" : "C2Buffer *",
   "name" : "C2Buffer *",
   "referenced_type" : "type-1616",
   "self_type" : "type-1636",
   "size" : 8,
   "source_file" : "/frameworks/av/media/codec2/core/include/C2Buffer.h"
  },
  {
   "alignment" : 8,
   "linker_set_key" : "C2ColorAspectsStruct *",
   "name" : "C2ColorAspectsStruct *",
   "referenced_type" : "type-3243",
   "self_type" : "type-3246",
   "size" : 8,
   "source_file" : "/frameworks/av/media/codec2/core/include/C2Config.h"
  },
  {
   "alignment" : 8,
   "linker_set_key" : "C2ColorInfoStruct *",
   "name" : "C2ColorInfoStruct *",
   "referenced_type" : "type-3237",
   "self_type" : "type-3238",
   "size" : 8,
   "source_file" : "/frameworks/av/media/codec2/core/include/C2Config.h"
  },
  {
   "alignment" : 8,
   "linker_set_key" : "C2Component *",
   "name" : "C2Component *",
   "referenced_type" : "type-1752",
   "self_type" : "type-1771",
   "size" : 8,
   "source_file" : "/frameworks/av/media/codec2/core/include/C2Component.h"
  },
  {
   "alignment" : 8,
   "linker_set_key" : "C2Component::Listener *",
   "name" : "C2Component::Listener *",
   "referenced_type" : "type-1755",
   "self_type" : "type-1758",
   "size" : 8,
   "source_file" : "/frameworks/av/media/codec2/core/include/C2Component.h"
  },
  {
   "alignment" : 8,
   "linker_set_key" : "C2Component::Traits *",
   "name" : "C2Component::Traits *",
   "referenced_type" : "type-1231",
   "self_type" : "type-1239",
   "size" : 8,
   "source_file" : "/frameworks/av/media/codec2/hidl/1.0/utils/include/codec2/hidl/1.0/types.h"
  },
  {
