{
 "array_types" :
 [
  {
   "alignment" : 8,
   "linker_set_key" : "FLAC__Subframe [8]",
   "name" : "FLAC__Subframe [8]",
   "referenced_type" : "type-107",
   "self_type" : "type-106",
   "size" : 2560,
   "source_file" : "/external/flac/include/FLAC/format.h"
  },
  {
   "alignment" : 1,
   "linker_set_key" : "char [129]",
   "name" : "char [129]",
   "referenced_type" : "type-21",
   "self_type" : "type-20",
   "size" : 129,
   "source_file" : "/external/flac/include/FLAC/format.h"
  },
  {
   "alignment" : 1,
   "linker_set_key" : "char [13]",
   "name" : "char [13]",
   "referenced_type" : "type-21",
   "self_type" : "type-25",
   "size" : 13,
   "source_file" : "/external/flac/include/FLAC/format.h"
  },
  {
   "linker_set_key" : "const char *[]",
   "name" : "const char *[]",
   "referenced_type" : "type-30",
   "self_type" : "type-151",
   "source_file" : "/external/flac/include/FLAC/format.h"
  },
  {
   "alignment" : 8,
   "linker_set_key" : "const int *[8]",
   "name" : "const int *[8]",
   "referenced_type" : "type-41",
   "self_type" : "type-159",
   "size" : 64,
   "source_file" : "/frameworks/av/media/libstagefright/flac/dec/FLACDecoder.h"
  },
  {
   "alignment" : 4,
   "linker_set_key" : "int [32]",
   "name" : "int [32]",
   "referenced_type" : "type-1",
   "self_type" : "type-96",
   "size" : 128,
   "source_file" : "/external/flac/include/FLAC/format.h"
  },
  {
   "alignment" : 4,
   "linker_set_key" : "int [4]",
   "name" : "int [4]",
   "referenced_type" : "type-1",
   "self_type" : "type-74",
   "size" : 16,
   "source_file" : "/external/flac/include/FLAC/format.h"
  },
  {
   "alignment" : 1,
   "linker_set_key" : "unsigned char [16]",
   "name" : "unsigned char [16]",
   "referenced_type" : "type-24",
   "self_type" : "type-58",
   "size" : 16,
   "source_file" : "/external/flac/include/FLAC/format.h"
  },
  {
   "alignment" : 1,
   "linker_set_key" : "unsigned char [4]",
   "name" : "unsigned char [4]",
   "referenced_type" : "type-24",
   "self_type" : "type-61",
   "size" : 4,
   "source_file" : "/external/flac/include/FLAC/format.h"
  }
 ],
 "builtin_types" :
 [
  {
   "alignment" : 1,
   "is_integral" : true,
   "is_unsigned" : true,
   "linker_set_key" : "bool",
   "name" : "bool",
   "referenced_type" : "type-158",
   "self_type" : "type-158",
   "size" : 1
  },
  {
   "alignment" : 1,
   "is_integral" : true,
   "is_unsigned" : true,
   "linker_set_key" : "char",
   "name" : "char",
   "referenced_type" : "type-21",
   "self_type" : "type-21",
   "size" : 1
  },
  {
   "alignment" : 8,
   "linker_set_key" : "double",
   "name" : "double",
   "referenced_type" : "type-300",
   "self_type" : "type-300",
   "size" : 8
  },
  {
   "alignment" : 4,
   "linker_set_key" : "float",
   "name" : "float",
   "referenced_type" : "type-214",
   "self_type" : "type-214",
   "size" : 4
  },
  {
   "alignment" : 4,
   "is_integral" : true,
   "linker_set_key" : "int",
   "name" : "int",
   "referenced_type" : "type-1",
   "self_type" : "type-1",
   "size" : 4
  },
  {
   "alignment" : 8,
   "is_integral" : true,
   "linker_set_key" : "long",
   "name" : "long",
   "referenced_type" : "type-79",
   "self_type" : "type-79",
   "size" : 8
  },
  {
   "alignment" : 2,
   "is_integral" : true,
   "linker_set_key" : "short",
   "name" : "short",
   "referenced_type" : "type-392",
   "self_type" : "type-392",
   "size" : 2
  },
  {
   "alignment" : 1,
   "is_integral" : true,
   "linker_set_key" : "signed char",
   "name" : "signed char",
   "referenced_type" : "type-299",
   "self_type" : "type-299",
   "size" : 1
  },
  {
   "alignment" : 1,
   "is_integral" : true,
   "is_unsigned" : true,
   "linker_set_key" : "unsigned char",
   "name" : "unsigned char",
   "referenced_type" : "type-24",
   "self_type" : "type-24",
   "size" : 1
  },
  {
   "alignment" : 4,
   "is_integral" : true,
   "is_unsigned" : true,
   "linker_set_key" : "unsigned int",
   "name" : "unsigned int",
   "referenced_type" : "type-3",
   "self_type" : "type-3",
   "size" : 4
  },
  {
   "alignment" : 8,
   "is_integral" : true,
   "is_unsigned" : true,
   "linker_set_key" : "unsigned long",
   "name" : "unsigned long",
   "referenced_type" : "type-15",
   "self_type" : "type-15",
   "size" : 8
  },
  {
   "alignment" : 2,
   "is_integral" : true,
   "is_unsigned" : true,
   "linker_set_key" : "unsigned short",
   "name" : "unsigned short",
   "referenced_type" : "type-110",
   "self_type" : "type-110",
   "size" : 2
  },
  {
   "linker_set_key" : "void",
   "name" : "void",
   "referenced_type" : "type-44",
   "self_type" : "type-44"
  }
 ],
 "elf_functions" :
 [
  {
   "name" : "FLAC__MD5Accumulate"
  },
  {
   "name" : "FLAC__MD5Final"
  },
  {
   "name" : "FLAC__MD5Init"
  },
  {
   "name" : "FLAC__bitreader_bits_left_for_byte_alignment"
  },
  {
   "name" : "FLAC__bitreader_clear"
  },
  {
   "name" : "FLAC__bitreader_delete"
  },
  {
   "name" : "FLAC__bitreader_dump"
  },
  {
   "name" : "FLAC__bitreader_free"
  },
  {
   "name" : "FLAC__bitreader_get_input_bits_unconsumed"
  },
  {
   "name" : "FLAC__bitreader_get_read_crc16"
  },
  {
   "name" : "FLAC__bitreader_init"
  },
  {
   "name" : "FLAC__bitreader_is_consumed_byte_aligned"
  },
  {
   "name" : "FLAC__bitreader_new"
  },
  {
   "name" : "FLAC__bitreader_read_byte_block_aligned_no_crc"
  },
  {
   "name" : "FLAC__bitreader_read_raw_int32"
  },
  {
   "name" : "FLAC__bitreader_read_raw_uint32"
  },
  {
   "name" : "FLAC__bitreader_read_raw_uint64"
  },
  {
   "name" : "FLAC__bitreader_read_rice_signed"
  },
  {
   "name" : "FLAC__bitreader_read_rice_signed_block"
  },
  {
   "name" : "FLAC__bitreader_read_uint32_little_endian"
  },
  {
   "name" : "FLAC__bitreader_read_unary_unsigned"
  },
  {
   "name" : "FLAC__bitreader_read_utf8_uint32"
  },
  {
   "name" : "FLAC__bitreader_read_utf8_uint64"
  },
  {
   "name" : "FLAC__bitreader_reset_read_crc16"
  },
  {
   "name" : "FLAC__bitreader_skip_bits_no_crc"
  },
  {
   "name" : "FLAC__bitreader_skip_byte_block_aligned_no_crc"
  },
  {
   "name" : "FLAC__cpu_info"
  },
  {
   "name" : "FLAC__crc16"
  },
  {
   "name" : "FLAC__crc8"
  },
  {
   "name" : "FLAC__crc8_update"
  },
  {
   "name" : "FLAC__crc8_update_block"
  },
  {
   "name" : "FLAC__fixed_compute_best_predictor"
  },
  {
   "name" : "FLAC__fixed_compute_best_predictor_wide"
  },
  {
   "name" : "FLAC__fixed_compute_residual"
  },
  {
   "name" : "FLAC__fixed_restore_signal"
  },
  {
   "name" : "FLAC__fixedpoint_log2"
  },
  {
   "name" : "FLAC__format_blocksize_is_subset"
  },
  {
   "name" : "FLAC__format_cuesheet_is_legal"
  },
  {
   "name" : "FLAC__format_entropy_coding_method_partitioned_rice_contents_clear"
  },
  {
   "name" : "FLAC__format_entropy_coding_method_partitioned_rice_contents_ensure_size"
  },
  {
   "name" : "FLAC__format_entropy_coding_method_partitioned_rice_contents_init"
  },
  {
   "name" : "FLAC__format_get_max_rice_partition_order"
  },
  {
   "name" : "FLAC__format_get_max_rice_partition_order_from_blocksize"
  },
  {
   "name" : "FLAC__format_get_max_rice_partition_order_from_blocksize_limited_max_and_predictor_order"
  },
  {
   "name" : "FLAC__format_picture_is_legal"
  },
  {
   "name" : "FLAC__format_sample_rate_is_subset"
  },
  {
   "name" : "FLAC__format_sample_rate_is_valid"
  },
  {
   "name" : "FLAC__format_seektable_is_legal"
  },
  {
   "name" : "FLAC__format_seektable_sort"
  },
  {
   "name" : "FLAC__format_vorbiscomment_entry_is_legal"
  },
  {
   "name" : "FLAC__format_vorbiscomment_entry_name_is_legal"
  },
  {
   "name" : "FLAC__format_vorbiscomment_entry_value_is_legal"
  },
  {
   "name" : "FLAC__lpc_restore_signal"
  },
  {
   "name" : "FLAC__lpc_restore_signal_wide"
  },
  {
   "name" : "FLAC__memory_alloc_aligned"
  },
  {
   "name" : "FLAC__memory_alloc_aligned_int32_array"
  },
  {
   "name" : "FLAC__memory_alloc_aligned_uint32_array"
  },
  {
   "name" : "FLAC__memory_alloc_aligned_uint64_array"
  },
  {
   "name" : "FLAC__memory_alloc_aligned_unsigned_array"
  },
  {
   "name" : "FLAC__stream_decoder_delete"
  },
  {
   "name" : "FLAC__stream_decoder_finish"
  },
  {
   "name" : "FLAC__stream_decoder_flush"
  },
  {
   "name" : "FLAC__stream_decoder_get_bits_per_sample"
  },
  {
   "name" : "FLAC__stream_decoder_get_blocksize"
  },
  {
   "name" : "FLAC__stream_decoder_get_channel_assignment"
  },
  {
   "name" : "FLAC__stream_decoder_get_channels"
  },
  {
   "name" : "FLAC__stream_decoder_get_decode_position"
  },
  {
   "name" : "FLAC__stream_decoder_get_input_bytes_unconsumed"
  },
  {
   "name" : "FLAC__stream_decoder_get_md5_checking"
  },
  {
   "name" : "FLAC__stream_decoder_get_resolved_state_string"
  },
  {
   "name" : "FLAC__stream_decoder_get_sample_rate"
  },
  {
   "name" : "FLAC__stream_decoder_get_state"
  },
  {
   "name" : "FLAC__stream_decoder_get_total_samples"
  },
  {
   "name" : "FLAC__stream_decoder_init_FILE"
  },
  {
   "name" : "FLAC__stream_decoder_init_file"
  },
  {
   "name" : "FLAC__stream_decoder_init_ogg_FILE"
  },
  {
   "name" : "FLAC__stream_decoder_init_ogg_file"
  },
  {
   "name" : "FLAC__stream_decoder_init_ogg_stream"
  },
  {
   "name" : "FLAC__stream_decoder_init_stream"
  },
  {
   "name" : "FLAC__stream_decoder_new"
  },
  {
   "name" : "FLAC__stream_decoder_process_single"
  },
  {
   "name" : "FLAC__stream_decoder_process_until_end_of_metadata"
  },
  {
   "name" : "FLAC__stream_decoder_process_until_end_of_stream"
  },
  {
   "name" : "FLAC__stream_decoder_reset"
  },
  {
   "name" : "FLAC__stream_decoder_seek_absolute"
  },
  {
   "name" : "FLAC__stream_decoder_set_md5_checking"
  },
  {
   "name" : "FLAC__stream_decoder_set_metadata_ignore"
  },
  {
   "name" : "FLAC__stream_decoder_set_metadata_ignore_all"
  },
  {
   "name" : "FLAC__stream_decoder_set_metadata_ignore_application"
  },
  {
   "name" : "FLAC__stream_decoder_set_metadata_respond"
  },
  {
   "name" : "FLAC__stream_decoder_set_metadata_respond_all"
  },
  {
   "name" : "FLAC__stream_decoder_set_metadata_respond_application"
  },
  {
   "name" : "FLAC__stream_decoder_set_ogg_serial_number"
  },
  {
   "name" : "FLAC__stream_decoder_skip_single_frame"
  },
  {
   "name" : "_ZN7android11FLACDecoder12readCallbackEPhPm"
  },
  {
   "name" : "_ZN7android11FLACDecoder13errorCallbackE30FLAC__StreamDecoderErrorStatus"
  },
  {
   "name" : "_ZN7android11FLACDecoder13parseMetadataEPKhm"
  },
  {
   "name" : "_ZN7android11FLACDecoder13writeCallbackEPK11FLAC__FramePKPKi"
  },
  {
   "name" : "_ZN7android11FLACDecoder14decodeOneFrameEPKhmPvPmb"
  },
  {
   "name" : "_ZN7android11FLACDecoder15addDataToBufferEPKhm"
  },
  {
   "name" : "_ZN7android11FLACDecoder16metadataCallbackEPK20FLAC__StreamMetadata"
  },
  {
   "name" : "_ZN7android11FLACDecoder4initEv"
  },
  {
   "name" : "_ZN7android11FLACDecoder5flushEv"
  },
  {
   "name" : "_ZN7android11FLACDecoder6CreateEv"
  },
  {
   "name" : "_ZN7android11FLACDecoderC1Ev"
  },
  {
   "name" : "_ZN7android11FLACDecoderC2Ev"
  },
  {
   "name" : "_ZN7android11FLACDecoderD0Ev"
  },
  {
   "name" : "_ZN7android11FLACDecoderD1Ev"
  },
  {
   "name" : "_ZN7android11FLACDecoderD2Ev"
  },
  {
   "name" : "safe_malloc_mul_2op_p"
  }
 ],
 "elf_objects" :
 [
  {
   "name" : "FLAC_API_SUPPORTS_OGG_FLAC"
  },
  {
   "name" : "FLAC__ChannelAssignmentString"
  },
  {
   "name" : "FLAC__ENTROPY_CODING_METHOD_PARTITIONED_RICE2_ESCAPE_PARAMETER"
  },
  {
   "name" : "FLAC__ENTROPY_CODING_METHOD_PARTITIONED_RICE2_PARAMETER_LEN"
  },
  {
   "name" : "FLAC__ENTROPY_CODING_METHOD_PARTITIONED_RICE_ESCAPE_PARAMETER"
  },
  {
   "name" : "FLAC__ENTROPY_CODING_METHOD_PARTITIONED_RICE_ORDER_LEN"
  },
  {
   "name" : "FLAC__ENTROPY_CODING_METHOD_PARTITIONED_RICE_PARAMETER_LEN"
  },
  {
   "name" : "FLAC__ENTROPY_CODING_METHOD_PARTITIONED_RICE_RAW_LEN"
  },
  {
   "name" : "FLAC__ENTROPY_CODING_METHOD_TYPE_LEN"
  },
  {
   "name" : "FLAC__EntropyCodingMethodTypeString"
  },
  {
   "name" : "FLAC__FP_E"
  },
  {
   "name" : "FLAC__FP_LN2"
  },
  {
   "name" : "FLAC__FP_ONE"
  },
  {
   "name" : "FLAC__FP_ONE_HALF"
  },
  {
   "name" : "FLAC__FP_ZERO"
  },
  {
   "name" : "FLAC__FRAME_FOOTER_CRC_LEN"
  },
  {
   "name" : "FLAC__FRAME_HEADER_BITS_PER_SAMPLE_LEN"
  },
  {
   "name" : "FLAC__FRAME_HEADER_BLOCKING_STRATEGY_LEN"
  },
  {
   "name" : "FLAC__FRAME_HEADER_BLOCK_SIZE_LEN"
  },
  {
   "name" : "FLAC__FRAME_HEADER_CHANNEL_ASSIGNMENT_LEN"
  },
  {
   "name" : "FLAC__FRAME_HEADER_CRC_LEN"
  },
  {
   "name" : "FLAC__FRAME_HEADER_RESERVED_LEN"
  },
  {
   "name" : "FLAC__FRAME_HEADER_SAMPLE_RATE_LEN"
  },
  {
   "name" : "FLAC__FRAME_HEADER_SYNC"
  },
  {
   "name" : "FLAC__FRAME_HEADER_SYNC_LEN"
  },
  {
   "name" : "FLAC__FRAME_HEADER_ZERO_PAD_LEN"
  },
  {
   "name" : "FLAC__FrameNumberTypeString"
  },
  {
   "name" : "FLAC__MetadataTypeString"
  },
  {
   "name" : "FLAC__STREAM_METADATA_APPLICATION_ID_LEN"
  },
  {
   "name" : "FLAC__STREAM_METADATA_CUESHEET_INDEX_NUMBER_LEN"
  },
  {
   "name" : "FLAC__STREAM_METADATA_CUESHEET_INDEX_OFFSET_LEN"
  },
  {
   "name" : "FLAC__STREAM_METADATA_CUESHEET_INDEX_RESERVED_LEN"
  },
  {
   "name" : "FLAC__STREAM_METADATA_CUESHEET_IS_CD_LEN"
  },
  {
   "name" : "FLAC__STREAM_METADATA_CUESHEET_LEAD_IN_LEN"
  },
  {
   "name" : "FLAC__STREAM_METADATA_CUESHEET_MEDIA_CATALOG_NUMBER_LEN"
  },
  {
   "name" : "FLAC__STREAM_METADATA_CUESHEET_NUM_TRACKS_LEN"
  },
  {
   "name" : "FLAC__STREAM_METADATA_CUESHEET_RESERVED_LEN"
  },
  {
   "name" : "FLAC__STREAM_METADATA_CUESHEET_TRACK_ISRC_LEN"
  },
  {
   "name" : "FLAC__STREAM_METADATA_CUESHEET_TRACK_NUMBER_LEN"
  },
  {
   "name" : "FLAC__STREAM_METADATA_CUESHEET_TRACK_NUM_INDICES_LEN"
  },
  {
   "name" : "FLAC__STREAM_METADATA_CUESHEET_TRACK_OFFSET_LEN"
  },
  {
   "name" : "FLAC__STREAM_METADATA_CUESHEET_TRACK_PRE_EMPHASIS_LEN"
  },
  {
   "name" : "FLAC__STREAM_METADATA_CUESHEET_TRACK_RESERVED_LEN"
  },
  {
   "name" : "FLAC__STREAM_METADATA_CUESHEET_TRACK_TYPE_LEN"
  },
  {
   "name" : "FLAC__STREAM_METADATA_IS_LAST_LEN"
  },
  {
   "name" : "FLAC__STREAM_METADATA_LENGTH_LEN"
  },
  {
   "name" : "FLAC__STREAM_METADATA_PICTURE_COLORS_LEN"
  },
  {
   "name" : "FLAC__STREAM_METADATA_PICTURE_DATA_LENGTH_LEN"
  },
  {
   "name" : "FLAC__STREAM_METADATA_PICTURE_DEPTH_LEN"
  },
  {
   "name" : "FLAC__STREAM_METADATA_PICTURE_DESCRIPTION_LENGTH_LEN"
  },
  {
   "name" : "FLAC__STREAM_METADATA_PICTURE_HEIGHT_LEN"
  },
  {
   "name" : "FLAC__STREAM_METADATA_PICTURE_MIME_TYPE_LENGTH_LEN"
  },
  {
   "name" : "FLAC__STREAM_METADATA_PICTURE_TYPE_LEN"
  },
  {
   "name" : "FLAC__STREAM_METADATA_PICTURE_WIDTH_LEN"
  },
  {
   "name" : "FLAC__STREAM_METADATA_SEEKPOINT_FRAME_SAMPLES_LEN"
  },
  {
   "name" : "FLAC__STREAM_METADATA_SEEKPOINT_PLACEHOLDER"
  },
  {
   "name" : "FLAC__STREAM_METADATA_SEEKPOINT_SAMPLE_NUMBER_LEN"
  },
  {
   "name" : "FLAC__STREAM_METADATA_SEEKPOINT_STREAM_OFFSET_LEN"
  },
  {
   "name" : "FLAC__STREAM_METADATA_STREAMINFO_BITS_PER_SAMPLE_LEN"
  },
  {
   "name" : "FLAC__STREAM_METADATA_STREAMINFO_CHANNELS_LEN"
  },
  {
   "name" : "FLAC__STREAM_METADATA_STREAMINFO_MAX_BLOCK_SIZE_LEN"
  },
  {
   "name" : "FLAC__STREAM_METADATA_STREAMINFO_MAX_FRAME_SIZE_LEN"
  },
  {
   "name" : "FLAC__STREAM_METADATA_STREAMINFO_MD5SUM_LEN"
  },
  {
   "name" : "FLAC__STREAM_METADATA_STREAMINFO_MIN_BLOCK_SIZE_LEN"
  },
  {
   "name" : "FLAC__STREAM_METADATA_STREAMINFO_MIN_FRAME_SIZE_LEN"
  },
  {
   "name" : "FLAC__STREAM_METADATA_STREAMINFO_SAMPLE_RATE_LEN"
  },
  {
   "name" : "FLAC__STREAM_METADATA_STREAMINFO_TOTAL_SAMPLES_LEN"
  },
  {
   "name" : "FLAC__STREAM_METADATA_TYPE_LEN"
  },
  {
   "name" : "FLAC__STREAM_METADATA_VORBIS_COMMENT_ENTRY_LENGTH_LEN"
  },
  {
   "name" : "FLAC__STREAM_METADATA_VORBIS_COMMENT_NUM_COMMENTS_LEN"
  },
  {
   "name" : "FLAC__STREAM_SYNC"
  },
  {
   "name" : "FLAC__STREAM_SYNC_LEN"
  },
  {
   "name" : "FLAC__STREAM_SYNC_STRING"
  },
  {
   "name" : "FLAC__SUBFRAME_LPC_QLP_COEFF_PRECISION_LEN"
  },
  {
   "name" : "FLAC__SUBFRAME_LPC_QLP_SHIFT_LEN"
  },
  {
   "name" : "FLAC__SUBFRAME_TYPE_CONSTANT_BYTE_ALIGNED_MASK"
  },
  {
   "name" : "FLAC__SUBFRAME_TYPE_FIXED_BYTE_ALIGNED_MASK"
  },
  {
   "name" : "FLAC__SUBFRAME_TYPE_LEN"
  },
  {
   "name" : "FLAC__SUBFRAME_TYPE_LPC_BYTE_ALIGNED_MASK"
  },
  {
   "name" : "FLAC__SUBFRAME_TYPE_VERBATIM_BYTE_ALIGNED_MASK"
  },
  {
   "name" : "FLAC__SUBFRAME_WASTED_BITS_FLAG_LEN"
  },
  {
   "name" : "FLAC__SUBFRAME_ZERO_PAD_LEN"
  },
  {
   "name" : "FLAC__StreamDecoderErrorStatusString"
  },
  {
   "name" : "FLAC__StreamDecoderInitStatusString"
  },
  {
   "name" : "FLAC__StreamDecoderLengthStatusString"
  },
  {
   "name" : "FLAC__StreamDecoderReadStatusString"
  },
  {
   "name" : "FLAC__StreamDecoderSeekStatusString"
  },
  {
   "name" : "FLAC__StreamDecoderStateString"
  },
  {
   "name" : "FLAC__StreamDecoderTellStatusString"
  },
  {
   "name" : "FLAC__StreamDecoderWriteStatusString"
  },
  {
   "name" : "FLAC__StreamMetadata_Picture_TypeString"
  },
  {
   "name" : "FLAC__SubframeTypeString"
  },
  {
   "name" : "FLAC__VENDOR_STRING"
  },
  {
   "name" : "FLAC__VERSION_STRING"
  },
  {
   "name" : "FLAC__crc16_table"
  },
  {
   "name" : "FLAC__crc8_table"
  },
  {
   "name" : "_ZTVN7android11FLACDecoderE"
  }
 ],
 "enum_types" :
 [
  {
   "alignment" : 4,
   "enum_fields" :
   [
    {
     "enum_field_value" : 0,
     "name" : "FLAC__CHANNEL_ASSIGNMENT_INDEPENDENT"
    },
    {
     "enum_field_value" : 1,
     "name" : "FLAC__CHANNEL_ASSIGNMENT_LEFT_SIDE"
    },
    {
     "enum_field_value" : 2,
     "name" : "FLAC__CHANNEL_ASSIGNMENT_RIGHT_SIDE"
    },
    {
     "enum_field_value" : 3,
     "name" : "FLAC__CHANNEL_ASSIGNMENT_MID_SIDE"
    }
   ],
   "linker_set_key" : "FLAC__ChannelAssignment",
   "name" : "FLAC__ChannelAssignment",
   "referenced_type" : "type-103",
   "self_type" : "type-103",
   "size" : 4,
   "source_file" : "/external/flac/include/FLAC/format.h",
   "underlying_type" : "type-3",
   "unique_id" : "FLAC__ChannelAssignment"
  },
  {
   "alignment" : 4,
   "enum_fields" :
   [
    {
     "enum_field_value" : 0,
     "name" : "FLAC__ENTROPY_CODING_METHOD_PARTITIONED_RICE"
    },
    {
     "enum_field_value" : 1,
     "name" : "FLAC__ENTROPY_CODING_METHOD_PARTITIONED_RICE2"
    }
   ],
   "linker_set_key" : "FLAC__EntropyCodingMethodType",
   "name" : "FLAC__EntropyCodingMethodType",
   "referenced_type" : "type-9",
   "self_type" : "type-9",
   "size" : 4,
   "source_file" : "/external/flac/include/FLAC/format.h",
   "underlying_type" : "type-3",
   "unique_id" : "FLAC__EntropyCodingMethodType"
  },
  {
   "alignment" : 4,
   "enum_fields" :
   [
    {
     "enum_field_value" : 0,
     "name" : "FLAC__FRAME_NUMBER_TYPE_FRAME_NUMBER"
    },
    {
     "enum_field_value" : 1,
     "name" : "FLAC__FRAME_NUMBER_TYPE_SAMPLE_NUMBER"
    }
   ],
   "linker_set_key" : "FLAC__FrameNumberType",
   "name" : "FLAC__FrameNumberType",
   "referenced_type" : "type-104",
   "self_type" : "type-104",
   "size" : 4,
   "source_file" : "/external/flac/include/FLAC/format.h",
   "underlying_type" : "type-3",
   "unique_id" : "FLAC__FrameNumberType"
  },
  {
   "alignment" : 4,
   "enum_fields" :
   [
    {
     "enum_field_value" : 0,
     "name" : "FLAC__METADATA_TYPE_STREAMINFO"
    },
    {
     "enum_field_value" : 1,
     "name" : "FLAC__METADATA_TYPE_PADDING"
    },
    {
     "enum_field_value" : 2,
     "name" : "FLAC__METADATA_TYPE_APPLICATION"
    },
    {
     "enum_field_value" : 3,
     "name" : "FLAC__METADATA_TYPE_SEEKTABLE"
    },
    {
     "enum_field_value" : 4,
     "name" : "FLAC__METADATA_TYPE_VORBIS_COMMENT"
    },
    {
     "enum_field_value" : 5,
     "name" : "FLAC__METADATA_TYPE_CUESHEET"
    },
    {
     "enum_field_value" : 6,
     "name" : "FLAC__METADATA_TYPE_PICTURE"
    },
    {
     "enum_field_value" : 7,
     "name" : "FLAC__METADATA_TYPE_UNDEFINED"
    },
    {
     "enum_field_value" : 126,
     "name" : "FLAC__MAX_METADATA_TYPE"
    }
   ],
   "linker_set_key" : "FLAC__MetadataType",
   "name" : "FLAC__MetadataType",
   "referenced_type" : "type-55",
   "self_type" : "type-55",
   "size" : 4,
   "source_file" : "/external/flac/include/FLAC/format.h",
   "underlying_type" : "type-3",
   "unique_id" : "FLAC__MetadataType"
  },
  {
   "alignment" : 4,
   "enum_fields" :
   [
    {
     "enum_field_value" : 0,
     "name" : "FLAC__STREAM_DECODER_ERROR_STATUS_LOST_SYNC"
    },
    {
     "enum_field_value" : 1,
     "name" : "FLAC__STREAM_DECODER_ERROR_STATUS_BAD_HEADER"
    },
    {
     "enum_field_value" : 2,
     "name" : "FLAC__STREAM_DECODER_ERROR_STATUS_FRAME_CRC_MISMATCH"
    },
    {
     "enum_field_value" : 3,
     "name" : "FLAC__STREAM_DECODER_ERROR_STATUS_UNPARSEABLE_STREAM"
    }
   ],
   "linker_set_key" : "FLAC__StreamDecoderErrorStatus",
   "name" : "FLAC__StreamDecoderErrorStatus",
   "referenced_type" : "type-69",
   "self_type" : "type-69",
   "size" : 4,
   "source_file" : "/external/flac/include/FLAC/stream_decoder.h",
   "underlying_type" : "type-3",
   "unique_id" : "FLAC__StreamDecoderErrorStatus"
  },
  {
   "alignment" : 4,
   "enum_fields" :
   [
    {
     "enum_field_value" : 0,
     "name" : "FLAC__STREAM_DECODER_INIT_STATUS_OK"
    },
    {
     "enum_field_value" : 1,
     "name" : "FLAC__STREAM_DECODER_INIT_STATUS_UNSUPPORTED_CONTAINER"
    },
    {
     "enum_field_value" : 2,
     "name" : "FLAC__STREAM_DECODER_INIT_STATUS_INVALID_CALLBACKS"
    },
    {
     "enum_field_value" : 3,
     "name" : "FLAC__STREAM_DECODER_INIT_STATUS_MEMORY_ALLOCATION_ERROR"
    },
    {
     "enum_field_value" : 4,
     "name" : "FLAC__STREAM_DECODER_INIT_STATUS_ERROR_OPENING_FILE"
    },
    {
     "enum_field_value" : 5,
     "name" : "FLAC__STREAM_DECODER_INIT_STATUS_ALREADY_INITIALIZED"
    }
   ],
   "linker_set_key" : "FLAC__StreamDecoderInitStatus",
   "name" : "FLAC__StreamDecoderInitStatus",
   "referenced_type" : "type-155",
   "self_type" : "type-155",
   "size" : 4,
   "source_file" : "/external/flac/include/FLAC/stream_decoder.h",
   "underlying_type" : "type-3",
   "unique_id" : "FLAC__StreamDecoderInitStatus"
  },
  {
   "alignment" : 4,
   "enum_fields" :
   [
    {
     "enum_field_value" : 0,
     "name" : "FLAC__STREAM_DECODER_LENGTH_STATUS_OK"
    },
    {
     "enum_field_value" : 1,
     "name" : "FLAC__STREAM_DECODER_LENGTH_STATUS_ERROR"
    },
    {
     "enum_field_value" : 2,
     "name" : "FLAC__STREAM_DECODER_LENGTH_STATUS_UNSUPPORTED"
    }
   ],
   "linker_set_key" : "FLAC__StreamDecoderLengthStatus",
   "name" : "FLAC__StreamDecoderLengthStatus",
   "referenced_type" : "type-91",
   "self_type" : "type-91",
   "size" : 4,
   "source_file" : "/external/flac/include/FLAC/stream_decoder.h",
   "underlying_type" : "type-3",
   "unique_id" : "FLAC__StreamDecoderLengthStatus"
  },
  {
   "alignment" : 4,
   "enum_fields" :
   [
    {
     "enum_field_value" : 0,
     "name" : "FLAC__STREAM_DECODER_READ_STATUS_CONTINUE"
    },
    {
     "enum_field_value" : 1,
     "name" : "FLAC__STREAM_DECODER_READ_STATUS_END_OF_STREAM"
    },
    {
     "enum_field_value" : 2,
     "name" : "FLAC__STREAM_DECODER_READ_STATUS_ABORT"
    }
   ],
   "linker_set_key" : "FLAC__StreamDecoderReadStatus",
   "name" : "FLAC__StreamDecoderReadStatus",
   "referenced_type" : "type-81",
   "self_type" : "type-81",
   "size" : 4,
   "source_file" : "/external/flac/include/FLAC/stream_decoder.h",
   "underlying_type" : "type-3",
   "unique_id" : "FLAC__StreamDecoderReadStatus"
  },
  {
   "alignment" : 4,
   "enum_fields" :
   [
    {
     "enum_field_value" : 0,
     "name" : "FLAC__STREAM_DECODER_SEEK_STATUS_OK"
    },
    {
     "enum_field_value" : 1,
     "name" : "FLAC__STREAM_DECODER_SEEK_STATUS_ERROR"
    },
    {
     "enum_field_value" : 2,
     "name" : "FLAC__STREAM_DECODER_SEEK_STATUS_UNSUPPORTED"
    }
   ],
   "linker_set_key" : "FLAC__StreamDecoderSeekStatus",
   "name" : "FLAC__StreamDecoderSeekStatus",
   "referenced_type" : "type-85",
   "self_type" : "type-85",
   "size" : 4,
   "source_file" : "/external/flac/include/FLAC/stream_decoder.h",
   "underlying_type" : "type-3",
   "unique_id" : "FLAC__StreamDecoderSeekStatus"
  },
  {
   "alignment" : 4,
   "enum_fields" :
   [
    {
     "enum_field_value" : 0,
     "name" : "FLAC__STREAM_DECODER_SEARCH_FOR_METADATA"
    },
    {
     "enum_field_value" : 1,
     "name" : "FLAC__STREAM_DECODER_READ_METADATA"
    },
    {
     "enum_field_value" : 2,
     "name" : "FLAC__STREAM_DECODER_SEARCH_FOR_FRAME_SYNC"
    },
    {
     "enum_field_value" : 3,
     "name" : "FLAC__STREAM_DECODER_READ_FRAME"
    },
    {
     "enum_field_value" : 4,
     "name" : "FLAC__STREAM_DECODER_END_OF_STREAM"
    },
    {
     "enum_field_value" : 5,
     "name" : "FLAC__STREAM_DECODER_OGG_ERROR"
    },
    {
     "enum_field_value" : 6,
     "name" : "FLAC__STREAM_DECODER_SEEK_ERROR"
    },
    {
     "enum_field_value" : 7,
     "name" : "FLAC__STREAM_DECODER_ABORTED"
    },
    {
     "enum_field_value" : 8,
     "name" : "FLAC__STREAM_DECODER_MEMORY_ALLOCATION_ERROR"
    },
    {
     "enum_field_value" : 9,
     "name" : "FLAC__STREAM_DECODER_UNINITIALIZED"
    }
   ],
   "linker_set_key" : "FLAC__StreamDecoderState",
   "name" : "FLAC__StreamDecoderState",
   "referenced_type" : "type-154",
   "self_type" : "type-154",
   "size" : 4,
   "source_file" : "/external/flac/include/FLAC/stream_decoder.h",
   "underlying_type" : "type-3",
   "unique_id" : "FLAC__StreamDecoderState"
  },
  {
   "alignment" : 4,
   "enum_fields" :
   [
    {
     "enum_field_value" : 0,
     "name" : "FLAC__STREAM_DECODER_TELL_STATUS_OK"
    },
    {
     "enum_field_value" : 1,
     "name" : "FLAC__STREAM_DECODER_TELL_STATUS_ERROR"
    },
    {
     "enum_field_value" : 2,
     "name" : "FLAC__STREAM_DECODER_TELL_STATUS_UNSUPPORTED"
    }
   ],
   "linker_set_key" : "FLAC__StreamDecoderTellStatus",
   "name" : "FLAC__StreamDecoderTellStatus",
   "referenced_type" : "type-88",
   "self_type" : "type-88",
   "size" : 4,
   "source_file" : "/external/flac/include/FLAC/stream_decoder.h",
   "underlying_type" : "type-3",
   "unique_id" : "FLAC__StreamDecoderTellStatus"
  },
  {
   "alignment" : 4,
   "enum_fields" :
   [
    {
     "enum_field_value" : 0,
     "name" : "FLAC__STREAM_DECODER_WRITE_STATUS_CONTINUE"
    },
    {
     "enum_field_value" : 1,
     "name" : "FLAC__STREAM_DECODER_WRITE_STATUS_ABORT"
    }
   ],
   "linker_set_key" : "FLAC__StreamDecoderWriteStatus",
   "name" : "FLAC__StreamDecoderWriteStatus",
   "referenced_type" : "type-98",
   "self_type" : "type-98",
   "size" : 4,
   "source_file" : "/external/flac/include/FLAC/stream_decoder.h",
   "underlying_type" : "type-3",
   "unique_id" : "FLAC__StreamDecoderWriteStatus"
  },
  {
   "alignment" : 4,
   "enum_fields" :
   [
    {
     "enum_field_value" : 0,
     "name" : "FLAC__STREAM_ENCODER_INIT_STATUS_OK"
    },
    {
     "enum_field_value" : 1,
     "name" : "FLAC__STREAM_ENCODER_INIT_STATUS_ENCODER_ERROR"
    },
    {
     "enum_field_value" : 2,
     "name" : "FLAC__STREAM_ENCODER_INIT_STATUS_UNSUPPORTED_CONTAINER"
    },
    {
     "enum_field_value" : 3,
     "name" : "FLAC__STREAM_ENCODER_INIT_STATUS_INVALID_CALLBACKS"
    },
    {
     "enum_field_value" : 4,
     "name" : "FLAC__STREAM_ENCODER_INIT_STATUS_INVALID_NUMBER_OF_CHANNELS"
    },
    {
     "enum_field_value" : 5,
     "name" : "FLAC__STREAM_ENCODER_INIT_STATUS_INVALID_BITS_PER_SAMPLE"
    },
    {
     "enum_field_value" : 6,
     "name" : "FLAC__STREAM_ENCODER_INIT_STATUS_INVALID_SAMPLE_RATE"
    },
    {
     "enum_field_value" : 7,
     "name" : "FLAC__STREAM_ENCODER_INIT_STATUS_INVALID_BLOCK_SIZE"
    },
    {
     "enum_field_value" : 8,
     "name" : "FLAC__STREAM_ENCODER_INIT_STATUS_INVALID_MAX_LPC_ORDER"
    },
    {
     "enum_field_value" : 9,
     "name" : "FLAC__STREAM_ENCODER_INIT_STATUS_INVALID_QLP_COEFF_PRECISION"
    },
    {
     "enum_field_value" : 10,
     "name" : "FLAC__STREAM_ENCODER_INIT_STATUS_BLOCK_SIZE_TOO_SMALL_FOR_LPC_ORDER"
    },
    {
     "enum_field_value" : 11,
     "name" : "FLAC__STREAM_ENCODER_INIT_STATUS_NOT_STREAMABLE"
    },
    {
     "enum_field_value" : 12,
     "name" : "FLAC__STREAM_ENCODER_INIT_STATUS_INVALID_METADATA"
    },
    {
     "enum_field_value" : 13,
     "name" : "FLAC__STREAM_ENCODER_INIT_STATUS_ALREADY_INITIALIZED"
    }
   ],
   "linker_set_key" : "FLAC__StreamEncoderInitStatus",
   "name" : "FLAC__StreamEncoderInitStatus",
   "referenced_type" : "type-146",
   "self_type" : "type-146",
   "size" : 4,
   "source_file" : "/external/flac/include/FLAC/stream_encoder.h",
   "underlying_type" : "type-3",
   "unique_id" : "FLAC__StreamEncoderInitStatus"
  },
  {
   "alignment" : 4,
   "enum_fields" :
   [
    {
     "enum_field_value" : 0,
     "name" : "FLAC__STREAM_ENCODER_READ_STATUS_CONTINUE"
    },
    {
     "enum_field_value" : 1,
     "name" : "FLAC__STREAM_ENCODER_READ_STATUS_END_OF_STREAM"
    },
    {
     "enum_field_value" : 2,
     "name" : "FLAC__STREAM_ENCODER_READ_STATUS_ABORT"
    },
    {
     "enum_field_value" : 3,
     "name" : "FLAC__STREAM_ENCODER_READ_STATUS_UNSUPPORTED"
    }
   ],
   "linker_set_key" : "FLAC__StreamEncoderReadStatus",
   "name" : "FLAC__StreamEncoderReadStatus",
   "referenced_type" : "type-135",
   "self_type" : "type-135",
   "size" : 4,
   "source_file" : "/external/flac/include/FLAC/stream_encoder.h",
   "underlying_type" : "type-3",
   "unique_id" : "FLAC__StreamEncoderReadStatus"
  },
  {
   "alignment" : 4,
   "enum_fields" :
   [
    {
     "enum_field_value" : 0,
     "name" : "FLAC__STREAM_ENCODER_SEEK_STATUS_OK"
    },
    {
     "enum_field_value" : 1,
     "name" : "FLAC__STREAM_ENCODER_SEEK_STATUS_ERROR"
    },
    {
     "enum_field_value" : 2,
     "name" : "FLAC__STREAM_ENCODER_SEEK_STATUS_UNSUPPORTED"
    }
   ],
   "linker_set_key" : "FLAC__StreamEncoderSeekStatus",
   "name" : "FLAC__StreamEncoderSeekStatus",
   "referenced_type" : "type-127",
   "self_type" : "type-127",
   "size" : 4,
   "source_file" : "/external/flac/include/FLAC/stream_encoder.h",
   "underlying_type" : "type-3",
   "unique_id" : "FLAC__StreamEncoderSeekStatus"
  },
  {
   "alignment" : 4,
   "enum_fields" :
   [
    {
     "enum_field_value" : 0,
     "name" : "FLAC__STREAM_ENCODER_OK"
    },
    {
     "enum_field_value" : 1,
     "name" : "FLAC__STREAM_ENCODER_UNINITIALIZED"
    },
    {
     "enum_field_value" : 2,
     "name" : "FLAC__STREAM_ENCODER_OGG_ERROR"
    },
    {
     "enum_field_value" : 3,
     "name" : "FLAC__STREAM_ENCODER_VERIFY_DECODER_ERROR"
    },
    {
     "enum_field_value" : 4,
     "name" : "FLAC__STREAM_ENCODER_VERIFY_MISMATCH_IN_AUDIO_DATA"
    },
    {
     "enum_field_value" : 5,
     "name" : "FLAC__STREAM_ENCODER_CLIENT_ERROR"
    },
    {
     "enum_field_value" : 6,
     "name" : "FLAC__STREAM_ENCODER_IO_ERROR"
    },
    {
     "enum_field_value" : 7,
     "name" : "FLAC__STREAM_ENCODER_FRAMING_ERROR"
    },
    {
     "enum_field_value" : 8,
     "name" : "FLAC__STREAM_ENCODER_MEMORY_ALLOCATION_ERROR"
    }
   ],
   "linker_set_key" : "FLAC__StreamEncoderState",
   "name" : "FLAC__StreamEncoderState",
   "referenced_type" : "type-145",
   "self_type" : "type-145",
   "size" : 4,
   "source_file" : "/external/flac/include/FLAC/stream_encoder.h",
   "underlying_type" : "type-3",
   "unique_id" : "FLAC__StreamEncoderState"
  },
  {
   "alignment" : 4,
   "enum_fields" :
   [
    {
     "enum_field_value" : 0,
     "name" : "FLAC__STREAM_ENCODER_TELL_STATUS_OK"
    },
    {
     "enum_field_value" : 1,
     "name" : "FLAC__STREAM_ENCODER_TELL_STATUS_ERROR"
    },
    {
     "enum_field_value" : 2,
     "name" : "FLAC__STREAM_ENCODER_TELL_STATUS_UNSUPPORTED"
    }
   ],
   "linker_set_key" : "FLAC__StreamEncoderTellStatus",
   "name" : "FLAC__StreamEncoderTellStatus",
   "referenced_type" : "type-130",
   "self_type" : "type-130",
   "size" : 4,
   "source_file" : "/external/flac/include/FLAC/stream_encoder.h",
   "underlying_type" : "type-3",
   "unique_id" : "FLAC__StreamEncoderTellStatus"
  },
  {
   "alignment" : 4,
   "enum_fields" :
   [
    {
     "enum_field_value" : 0,
     "name" : "FLAC__STREAM_ENCODER_WRITE_STATUS_OK"
    },
    {
     "enum_field_value" : 1,
     "name" : "FLAC__STREAM_ENCODER_WRITE_STATUS_FATAL_ERROR"
    }
   ],
   "linker_set_key" : "FLAC__StreamEncoderWriteStatus",
   "name" : "FLAC__StreamEncoderWriteStatus",
   "referenced_type" : "type-116",
   "self_type" : "type-116",
   "size" : 4,
   "source_file" : "/external/flac/include/FLAC/stream_encoder.h",
   "underlying_type" : "type-3",
   "unique_id" : "FLAC__StreamEncoderWriteStatus"
  },
  {
   "alignment" : 4,
   "enum_fields" :
   [
    {
     "enum_field_value" : 0,
     "name" : "FLAC__STREAM_METADATA_PICTURE_TYPE_OTHER"
    },
    {
     "enum_field_value" : 1,
     "name" : "FLAC__STREAM_METADATA_PICTURE_TYPE_FILE_ICON_STANDARD"
    },
    {
     "enum_field_value" : 2,
     "name" : "FLAC__STREAM_METADATA_PICTURE_TYPE_FILE_ICON"
    },
    {
     "enum_field_value" : 3,
     "name" : "FLAC__STREAM_METADATA_PICTURE_TYPE_FRONT_COVER"
    },
    {
     "enum_field_value" : 4,
     "name" : "FLAC__STREAM_METADATA_PICTURE_TYPE_BACK_COVER"
    },
    {
     "enum_field_value" : 5,
     "name" : "FLAC__STREAM_METADATA_PICTURE_TYPE_LEAFLET_PAGE"
    },
    {
     "enum_field_value" : 6,
     "name" : "FLAC__STREAM_METADATA_PICTURE_TYPE_MEDIA"
    },
    {
     "enum_field_value" : 7,
     "name" : "FLAC__STREAM_METADATA_PICTURE_TYPE_LEAD_ARTIST"
    },
    {
     "enum_field_value" : 8,
     "name" : "FLAC__STREAM_METADATA_PICTURE_TYPE_ARTIST"
    },
    {
     "enum_field_value" : 9,
     "name" : "FLAC__STREAM_METADATA_PICTURE_TYPE_CONDUCTOR"
    },
    {
     "enum_field_value" : 10,
     "name" : "FLAC__STREAM_METADATA_PICTURE_TYPE_BAND"
    },
    {
     "enum_field_value" : 11,
     "name" : "FLAC__STREAM_METADATA_PICTURE_TYPE_COMPOSER"
    },
    {
     "enum_field_value" : 12,
     "name" : "FLAC__STREAM_METADATA_PICTURE_TYPE_LYRICIST"
    },
    {
     "enum_field_value" : 13,
     "name" : "FLAC__STREAM_METADATA_PICTURE_TYPE_RECORDING_LOCATION"
    },
    {
     "enum_field_value" : 14,
     "name" : "FLAC__STREAM_METADATA_PICTURE_TYPE_DURING_RECORDING"
    },
    {
     "enum_field_value" : 15,
     "name" : "FLAC__STREAM_METADATA_PICTURE_TYPE_DURING_PERFORMANCE"
    },
    {
     "enum_field_value" : 16,
     "name" : "FLAC__STREAM_METADATA_PICTURE_TYPE_VIDEO_SCREEN_CAPTURE"
    },
    {
     "enum_field_value" : 17,
     "name" : "FLAC__STREAM_METADATA_PICTURE_TYPE_FISH"
    },
    {
     "enum_field_value" : 18,
     "name" : "FLAC__STREAM_METADATA_PICTURE_TYPE_ILLUSTRATION"
    },
    {
     "enum_field_value" : 19,
     "name" : "FLAC__STREAM_METADATA_PICTURE_TYPE_BAND_LOGOTYPE"
    },
    {
     "enum_field_value" : 20,
     "name" : "FLAC__STREAM_METADATA_PICTURE_TYPE_PUBLISHER_LOGOTYPE"
    },
    {
     "enum_field_value" : 21,
     "name" : "FLAC__STREAM_METADATA_PICTURE_TYPE_UNDEFINED"
    }
   ],
   "linker_set_key" : "FLAC__StreamMetadata_Picture_Type",
   "name" : "FLAC__StreamMetadata_Picture_Type",
   "referenced_type" : "type-34",
   "self_type" : "type-34",
   "size" : 4,
   "source_file" : "/external/flac/include/FLAC/format.h",
   "underlying_type" : "type-3",
   "unique_id" : "FLAC__StreamMetadata_Picture_Type"
  },
  {
   "alignment" : 4,
   "enum_fields" :
   [
    {
     "enum_field_value" : 0,
     "name" : "FLAC__SUBFRAME_TYPE_CONSTANT"
    },
    {
     "enum_field_value" : 1,
     "name" : "FLAC__SUBFRAME_TYPE_VERBATIM"
    },
    {
     "enum_field_value" : 2,
     "name" : "FLAC__SUBFRAME_TYPE_FIXED"
    },
    {
     "enum_field_value" : 3,
     "name" : "FLAC__SUBFRAME_TYPE_LPC"
    }
   ],
   "linker_set_key" : "FLAC__SubframeType",
   "name" : "FLAC__SubframeType",
   "referenced_type" : "type-38",
   "self_type" : "type-38",
   "size" : 4,
   "source_file" : "/external/flac/include/FLAC/format.h",
   "underlying_type" : "type-3",
   "unique_id" : "FLAC__SubframeType"
  }
 ],
 "function_types" :
 [
  {
   "alignment" : 4,
   "linker_set_key" : "FLAC__StreamDecoderLengthStatus (const FLAC__StreamDecoder *, unsigned long *, void *)",
   "name" : "FLAC__StreamDecoderLengthStatus (const FLAC__StreamDecoder *, unsigned long *, void *)",
   "parameters" :
   [
    {
     "referenced_type" : "type-45"
    },
    {
     "referenced_type" : "type-82"
    },
    {
     "referenced_type" : "type-66"
    }
   ],
   "referenced_type" : "type-90",
   "return_type" : "type-91",
   "self_type" : "type-90",
   "source_file" : "/external/flac/include/FLAC/stream_decoder.h"
  },
  {
   "alignment" : 4,
   "linker_set_key" : "FLAC__StreamDecoderReadStatus (const FLAC__StreamDecoder *, unsigned char *, unsigned long *, void *)",
   "name" : "FLAC__StreamDecoderReadStatus (const FLAC__StreamDecoder *, unsigned char *, unsigned long *, void *)",
   "parameters" :
   [
    {
     "referenced_type" : "type-45"
    },
    {
     "referenced_type" : "type-36"
    },
    {
     "referenced_type" : "type-82"
    },
    {
     "referenced_type" : "type-66"
    }
   ],
   "referenced_type" : "type-80",
   "return_type" : "type-81",
   "self_type" : "type-80",
   "source_file" : "/external/flac/include/FLAC/stream_decoder.h"
  },
  {
   "alignment" : 4,
   "linker_set_key" : "FLAC__StreamDecoderSeekStatus (const FLAC__StreamDecoder *, unsigned long, void *)",
   "name" : "FLAC__StreamDecoderSeekStatus (const FLAC__StreamDecoder *, unsigned long, void *)",
   "parameters" :
   [
    {
     "referenced_type" : "type-45"
    },
    {
     "referenced_type" : "type-15"
    },
    {
     "referenced_type" : "type-66"
    }
   ],
   "referenced_type" : "type-84",
   "return_type" : "type-85",
   "self_type" : "type-84",
   "source_file" : "/external/flac/include/FLAC/stream_decoder.h"
  },
  {
   "alignment" : 4,
   "linker_set_key" : "FLAC__StreamDecoderTellStatus (const FLAC__StreamDecoder *, unsigned long *, void *)",
   "name" : "FLAC__StreamDecoderTellStatus (const FLAC__StreamDecoder *, unsigned long *, void *)",
   "parameters" :
   [
    {
     "referenced_type" : "type-45"
    },
    {
     "referenced_type" : "type-82"
    },
    {
     "referenced_type" : "type-66"
    }
   ],
   "referenced_type" : "type-87",
   "return_type" : "type-88",
   "self_type" : "type-87",
   "source_file" : "/external/flac/include/FLAC/stream_decoder.h"
  },
  {
   "alignment" : 4,
   "linker_set_key" : "FLAC__StreamDecoderWriteStatus (const FLAC__StreamDecoder *, const FLAC__Frame *, const int *const *, void *)",
   "name" : "FLAC__StreamDecoderWriteStatus (const FLAC__StreamDecoder *, const FLAC__Frame *, const int *const *, void *)",
   "parameters" :
   [
    {
     "referenced_type" : "type-45"
    },
    {
     "referenced_type" : "type-99"
    },
    {
     "referenced_type" : "type-111"
    },
    {
     "referenced_type" : "type-66"
    }
   ],
   "referenced_type" : "type-97",
   "return_type" : "type-98",
   "self_type" : "type-97",
   "source_file" : "/external/flac/include/FLAC/stream_decoder.h"
  },
  {
   "alignment" : 4,
   "linker_set_key" : "FLAC__StreamEncoderReadStatus (const FLAC__StreamEncoder *, unsigned char *, unsigned long *, void *)",
   "name" : "FLAC__StreamEncoderReadStatus (const FLAC__StreamEncoder *, unsigned char *, unsigned long *, void *)",
   "parameters" :
   [
    {
     "referenced_type" : "type-117"
    },
    {
     "referenced_type" : "type-36"
    },
    {
     "referenced_type" : "type-82"
    },
    {
     "referenced_type" : "type-66"
    }
   ],
   "referenced_type" : "type-134",
   "return_type" : "type-135",
   "self_type" : "type-134",
   "source_file" : "/external/flac/include/FLAC/stream_encoder.h"
  },
  {
   "alignment" : 4,
   "linker_set_key" : "FLAC__StreamEncoderSeekStatus (const FLAC__StreamEncoder *, unsigned long, void *)",
   "name" : "FLAC__StreamEncoderSeekStatus (const FLAC__StreamEncoder *, unsigned long, void *)",
   "parameters" :
   [
    {
     "referenced_type" : "type-117"
    },
    {
     "referenced_type" : "type-15"
    },
    {
     "referenced_type" : "type-66"
    }
   ],
   "referenced_type" : "type-126",
   "return_type" : "type-127",
   "self_type" : "type-126",
   "source_file" : "/external/flac/include/FLAC/stream_encoder.h"
  },
  {
   "alignment" : 4,
   "linker_set_key" : "FLAC__StreamEncoderTellStatus (const FLAC__StreamEncoder *, unsigned long *, void *)",
   "name" : "FLAC__StreamEncoderTellStatus (const FLAC__StreamEncoder *, unsigned long *, void *)",
   "parameters" :
   [
    {
     "referenced_type" : "type-117"
    },
    {
     "referenced_type" : "type-82"
    },
    {
     "referenced_type" : "type-66"
    }
   ],
   "referenced_type" : "type-129",
   "return_type" : "type-130",
   "self_type" : "type-129",
   "source_file" : "/external/flac/include/FLAC/stream_encoder.h"
  },
  {
   "alignment" : 4,
   "linker_set_key" : "FLAC__StreamEncoderWriteStatus (const FLAC__StreamEncoder *, const unsigned char *, unsigned long, unsigned int, unsigned int, void *)",
   "name" : "FLAC__StreamEncoderWriteStatus (const FLAC__StreamEncoder *, const unsigned char *, unsigned long, unsigned int, unsigned int, void *)",
   "parameters" :
   [
    {
     "referenced_type" : "type-117"
    },
    {
     "referenced_type" : "type-124"
    },
    {
     "referenced_type" : "type-15"
    },
    {
     "referenced_type" : "type-3"
    },
    {
     "referenced_type" : "type-3"
    },
    {
     "referenced_type" : "type-66"
    }
   ],
   "referenced_type" : "type-115",
   "return_type" : "type-116",
   "self_type" : "type-115",
   "source_file" : "/external/flac/include/FLAC/stream_encoder.h"
  },
  {
   "alignment" : 4,
   "linker_set_key" : "int (const FLAC__StreamDecoder *, void *)",
   "name" : "int (const FLAC__StreamDecoder *, void *)",
   "parameters" :
   [
    {
     "referenced_type" : "type-45"
    },
    {
     "referenced_type" : "type-66"
    }
   ],
   "referenced_type" : "type-93",
   "return_type" : "type-1",
   "self_type" : "type-93",
   "source_file" : "/external/flac/include/FLAC/stream_decoder.h"
  },
  {
   "alignment" : 4,
   "linker_set_key" : "void (const FLAC__StreamDecoder *, FLAC__StreamDecoderErrorStatus, void *)",
   "name" : "void (const FLAC__StreamDecoder *, FLAC__StreamDecoderErrorStatus, void *)",
   "parameters" :
   [
    {
     "referenced_type" : "type-45"
    },
    {
     "referenced_type" : "type-69"
    },
    {
     "referenced_type" : "type-66"
    }
   ],
   "referenced_type" : "type-68",
   "return_type" : "type-44",
   "self_type" : "type-68",
   "source_file" : "/external/flac/include/FLAC/stream_decoder.h"
  },
  {
   "alignment" : 4,
   "linker_set_key" : "void (const FLAC__StreamDecoder *, const FLAC__StreamMetadata *, void *)",
   "name" : "void (const FLAC__StreamDecoder *, const FLAC__StreamMetadata *, void *)",
   "parameters" :
   [
    {
     "referenced_type" : "type-45"
    },
    {
     "referenced_type" : "type-52"
    },
    {
     "referenced_type" : "type-66"
    }
   ],
   "referenced_type" : "type-43",
   "return_type" : "type-44",
   "self_type" : "type-43",
   "source_file" : "/external/flac/include/FLAC/stream_decoder.h"
  },
  {
   "alignment" : 4,
   "linker_set_key" : "void (const FLAC__StreamEncoder *, const FLAC__StreamMetadata *, void *)",
   "name" : "void (const FLAC__StreamEncoder *, const FLAC__StreamMetadata *, void *)",
   "parameters" :
   [
    {
     "referenced_type" : "type-117"
    },
    {
     "referenced_type" : "type-52"
    },
    {
     "referenced_type" : "type-66"
    }
   ],
   "referenced_type" : "type-132",
   "return_type" : "type-44",
   "self_type" : "type-132",
   "source_file" : "/external/flac/include/FLAC/stream_encoder.h"
  },
  {
   "alignment" : 4,
   "linker_set_key" : "void (const FLAC__StreamEncoder *, unsigned long, unsigned long, unsigned int, unsigned int, void *)",
   "name" : "void (const FLAC__StreamEncoder *, unsigned long, unsigned long, unsigned int, unsigned int, void *)",
   "parameters" :
   [
    {
     "referenced_type" : "type-117"
    },
    {
     "referenced_type" : "type-15"
    },
    {
     "referenced_type" : "type-15"
    },
    {
     "referenced_type" : "type-3"
    },
    {
     "referenced_type" : "type-3"
    },
    {
     "referenced_type" : "type-66"
    }
   ],
   "referenced_type" : "type-139",
   "return_type" : "type-44",
   "self_type" : "type-139",
   "source_file" : "/external/flac/include/FLAC/stream_encoder.h"
  }
 ],
 "functions" :
 [
  {
   "function_name" : "FLAC__format_blocksize_is_subset",
   "linker_set_key" : "FLAC__format_blocksize_is_subset",
   "parameters" :
   [
    {
     "referenced_type" : "type-3"
    },
    {
     "referenced_type" : "type-3"
    }
   ],
   "return_type" : "type-1",
   "source_file" : "/external/flac/include/FLAC/format.h"
  },
  {
   "function_name" : "FLAC__format_cuesheet_is_legal",
   "linker_set_key" : "FLAC__format_cuesheet_is_legal",
   "parameters" :
   [
    {
     "referenced_type" : "type-28"
    },
    {
     "referenced_type" : "type-1"
    },
    {
     "referenced_type" : "type-29"
    }
   ],
   "return_type" : "type-1",
   "source_file" : "/external/flac/include/FLAC/format.h"
  },
  {
   "function_name" : "FLAC__format_picture_is_legal",
   "linker_set_key" : "FLAC__format_picture_is_legal",
   "parameters" :
   [
    {
     "referenced_type" : "type-37"
    },
    {
     "referenced_type" : "type-29"
    }
   ],
   "return_type" : "type-1",
   "source_file" : "/external/flac/include/FLAC/format.h"
  },
  {
   "function_name" : "FLAC__format_sample_rate_is_subset",
   "linker_set_key" : "FLAC__format_sample_rate_is_subset",
   "parameters" :
   [
    {
     "referenced_type" : "type-3"
    }
   ],
   "return_type" : "type-1",
   "source_file" : "/external/flac/include/FLAC/format.h"
  },
  {
   "function_name" : "FLAC__format_sample_rate_is_valid",
   "linker_set_key" : "FLAC__format_sample_rate_is_valid",
   "parameters" :
   [
    {
     "referenced_type" : "type-3"
    }
   ],
   "return_type" : "type-1",
   "source_file" : "/external/flac/include/FLAC/format.h"
  },
  {
   "function_name" : "FLAC__format_seektable_is_legal",
   "linker_set_key" : "FLAC__format_seektable_is_legal",
   "parameters" :
   [
    {
     "referenced_type" : "type-16"
    }
   ],
   "return_type" : "type-1",
   "source_file" : "/external/flac/include/FLAC/format.h"
  },
  {
   "function_name" : "FLAC__format_seektable_sort",
   "linker_set_key" : "FLAC__format_seektable_sort",
   "parameters" :
   [
    {
     "referenced_type" : "type-17"
    }
   ],
   "return_type" : "type-3",
   "source_file" : "/external/flac/include/FLAC/format.h"
  },
  {
   "function_name" : "FLAC__format_vorbiscomment_entry_is_legal",
   "linker_set_key" : "FLAC__format_vorbiscomment_entry_is_legal",
   "parameters" :
   [
    {
     "referenced_type" : "type-124"
    },
    {
     "referenced_type" : "type-3"
    }
   ],
   "return_type" : "type-1",
   "source_file" : "/external/flac/include/FLAC/format.h"
  },
  {
   "function_name" : "FLAC__format_vorbiscomment_entry_name_is_legal",
   "linker_set_key" : "FLAC__format_vorbiscomment_entry_name_is_legal",
   "parameters" :
   [
    {
     "referenced_type" : "type-30"
    }
   ],
   "return_type" : "type-1",
   "source_file" : "/external/flac/include/FLAC/format.h"
  },
  {
   "function_name" : "FLAC__format_vorbiscomment_entry_value_is_legal",
   "linker_set_key" : "FLAC__format_vorbiscomment_entry_value_is_legal",
   "parameters" :
   [
    {
     "referenced_type" : "type-124"
    },
    {
     "referenced_type" : "type-3"
    }
   ],
   "return_type" : "type-1",
   "source_file" : "/external/flac/include/FLAC/format.h"
  },
  {
   "function_name" : "FLAC__stream_decoder_delete",
   "linker_set_key" : "FLAC__stream_decoder_delete",
   "parameters" :
   [
    {
     "referenced_type" : "type-157"
    }
   ],
   "return_type" : "type-44",
   "source_file" : "/external/flac/include/FLAC/stream_decoder.h"
  },
  {
   "function_name" : "FLAC__stream_decoder_finish",
   "linker_set_key" : "FLAC__stream_decoder_finish",
   "parameters" :
   [
    {
     "referenced_type" : "type-157"
    }
   ],
   "return_type" : "type-1",
   "source_file" : "/external/flac/include/FLAC/stream_decoder.h"
  },
  {
   "function_name" : "FLAC__stream_decoder_flush",
   "linker_set_key" : "FLAC__stream_decoder_flush",
   "parameters" :
   [
    {
     "referenced_type" : "type-157"
    }
   ],
   "return_type" : "type-1",
   "source_file" : "/external/flac/include/FLAC/stream_decoder.h"
  },
  {
   "function_name" : "FLAC__stream_decoder_get_bits_per_sample",
   "linker_set_key" : "FLAC__stream_decoder_get_bits_per_sample",
   "parameters" :
   [
    {
     "referenced_type" : "type-45"
    }
   ],
   "return_type" : "type-3",
   "source_file" : "/external/flac/include/FLAC/stream_decoder.h"
  },
  {
   "function_name" : "FLAC__stream_decoder_get_blocksize",
   "linker_set_key" : "FLAC__stream_decoder_get_blocksize",
   "parameters" :
   [
    {
     "referenced_type" : "type-45"
    }
   ],
   "return_type" : "type-3",
   "source_file" : "/external/flac/include/FLAC/stream_decoder.h"
  },
  {
   "function_name" : "FLAC__stream_decoder_get_channel_assignment",
   "linker_set_key" : "FLAC__stream_decoder_get_channel_assignment",
   "parameters" :
   [
    {
     "referenced_type" : "type-45"
    }
   ],
   "return_type" : "type-103",
   "source_file" : "/external/flac/include/FLAC/stream_decoder.h"
  },
  {
   "function_name" : "FLAC__stream_decoder_get_channels",
   "linker_set_key" : "FLAC__stream_decoder_get_channels",
   "parameters" :
   [
    {
     "referenced_type" : "type-45"
    }
   ],
   "return_type" : "type-3",
   "source_file" : "/external/flac/include/FLAC/stream_decoder.h"
  },
  {
   "function_name" : "FLAC__stream_decoder_get_decode_position",
   "linker_set_key" : "FLAC__stream_decoder_get_decode_position",
   "parameters" :
   [
    {
     "referenced_type" : "type-45"
    },
    {
     "referenced_type" : "type-82"
    }
   ],
   "return_type" : "type-1",
   "source_file" : "/external/flac/include/FLAC/stream_decoder.h"
  },
  {
   "function_name" : "FLAC__stream_decoder_get_md5_checking",
   "linker_set_key" : "FLAC__stream_decoder_get_md5_checking",
   "parameters" :
   [
    {
     "referenced_type" : "type-45"
    }
   ],
   "return_type" : "type-1",
   "source_file" : "/external/flac/include/FLAC/stream_decoder.h"
  },
  {
   "function_name" : "FLAC__stream_decoder_get_resolved_state_string",
   "linker_set_key" : "FLAC__stream_decoder_get_resolved_state_string",
   "parameters" :
   [
    {
     "referenced_type" : "type-45"
    }
   ],
   "return_type" : "type-30",
   "source_file" : "/external/flac/include/FLAC/stream_decoder.h"
  },
  {
   "function_name" : "FLAC__stream_decoder_get_sample_rate",
   "linker_set_key" : "FLAC__stream_decoder_get_sample_rate",
   "parameters" :
   [
    {
     "referenced_type" : "type-45"
    }
   ],
   "return_type" : "type-3",
   "source_file" : "/external/flac/include/FLAC/stream_decoder.h"
  },
  {
   "function_name" : "FLAC__stream_decoder_get_state",
   "linker_set_key" : "FLAC__stream_decoder_get_state",
   "parameters" :
   [
    {
     "referenced_type" : "type-45"
    }
   ],
   "return_type" : "type-154",
   "source_file" : "/external/flac/include/FLAC/stream_decoder.h"
  },
  {
   "function_name" : "FLAC__stream_decoder_get_total_samples",
   "linker_set_key" : "FLAC__stream_decoder_get_total_samples",
   "parameters" :
   [
    {
     "referenced_type" : "type-45"
    }
   ],
   "return_type" : "type-15",
   "source_file" : "/external/flac/include/FLAC/stream_decoder.h"
  },
  {
   "function_name" : "FLAC__stream_decoder_init_FILE",
   "linker_set_key" : "FLAC__stream_decoder_init_FILE",
   "parameters" :
   [
    {
     "referenced_type" : "type-157"
    },
    {
     "referenced_type" : "type-71"
    },
    {
     "referenced_type" : "type-113"
    },
    {
     "referenced_type" : "type-67"
    },
    {
     "referenced_type" : "type-70"
    },
    {
     "referenced_type" : "type-66"
    }
   ],
   "return_type" : "type-155",
   "source_file" : "/external/flac/include/FLAC/stream_decoder.h"
  },
  {
   "function_name" : "FLAC__stream_decoder_init_file",
   "linker_set_key" : "FLAC__stream_decoder_init_file",
   "parameters" :
   [
    {
     "referenced_type" : "type-157"
    },
    {
     "referenced_type" : "type-30"
    },
    {
     "referenced_type" : "type-113"
    },
    {
     "referenced_type" : "type-67"
    },
    {
     "referenced_type" : "type-70"
    },
    {
     "referenced_type" : "type-66"
    }
   ],
   "return_type" : "type-155",
   "source_file" : "/external/flac/include/FLAC/stream_decoder.h"
  },
  {
   "function_name" : "FLAC__stream_decoder_init_ogg_FILE",
   "linker_set_key" : "FLAC__stream_decoder_init_ogg_FILE",
   "parameters" :
   [
    {
     "referenced_type" : "type-157"
    },
    {
     "referenced_type" : "type-71"
    },
    {
     "referenced_type" : "type-113"
    },
    {
     "referenced_type" : "type-67"
    },
    {
     "referenced_type" : "type-70"
    },
    {
     "referenced_type" : "type-66"
    }
   ],
   "return_type" : "type-155",
   "source_file" : "/external/flac/include/FLAC/stream_decoder.h"
  },
  {
   "function_name" : "FLAC__stream_decoder_init_ogg_file",
   "linker_set_key" : "FLAC__stream_decoder_init_ogg_file",
   "parameters" :
   [
    {
     "referenced_type" : "type-157"
    },
    {
     "referenced_type" : "type-30"
    },
    {
     "referenced_type" : "type-113"
    },
    {
     "referenced_type" : "type-67"
    },
    {
     "referenced_type" : "type-70"
    },
    {
     "referenced_type" : "type-66"
    }
   ],
   "return_type" : "type-155",
   "source_file" : "/external/flac/include/FLAC/stream_decoder.h"
  },
  {
   "function_name" : "FLAC__stream_decoder_init_ogg_stream",
   "linker_set_key" : "FLAC__stream_decoder_init_ogg_stream",
   "parameters" :
   [
    {
     "referenced_type" : "type-157"
    },
    {
     "referenced_type" : "type-83"
    },
    {
     "referenced_type" : "type-86"
    },
    {
     "referenced_type" : "type-89"
    },
    {
     "referenced_type" : "type-92"
    },
    {
     "referenced_type" : "type-94"
    },
    {
     "referenced_type" : "type-113"
    },
    {
     "referenced_type" : "type-67"
    },
    {
     "referenced_type" : "type-70"
    },
    {
     "referenced_type" : "type-66"
    }
   ],
   "return_type" : "type-155",
   "source_file" : "/external/flac/include/FLAC/stream_decoder.h"
  },
  {
   "function_name" : "FLAC__stream_decoder_init_stream",
   "linker_set_key" : "FLAC__stream_decoder_init_stream",
   "parameters" :
   [
    {
     "referenced_type" : "type-157"
    },
    {
     "referenced_type" : "type-83"
    },
    {
     "referenced_type" : "type-86"
    },
    {
     "referenced_type" : "type-89"
    },
    {
     "referenced_type" : "type-92"
    },
    {
     "referenced_type" : "type-94"
    },
    {
     "referenced_type" : "type-113"
    },
    {
     "referenced_type" : "type-67"
    },
    {
     "referenced_type" : "type-70"
    },
    {
     "referenced_type" : "type-66"
    }
   ],
   "return_type" : "type-155",
   "source_file" : "/external/flac/include/FLAC/stream_decoder.h"
  },
  {
   "function_name" : "FLAC__stream_decoder_new",
   "linker_set_key" : "FLAC__stream_decoder_new",
   "return_type" : "type-157",
   "source_file" : "/external/flac/include/FLAC/stream_decoder.h"
  },
  {
   "function_name" : "FLAC__stream_decoder_process_single",
   "linker_set_key" : "FLAC__stream_decoder_process_single",
   "parameters" :
   [
    {
     "referenced_type" : "type-157"
    }
   ],
   "return_type" : "type-1",
   "source_file" : "/external/flac/include/FLAC/stream_decoder.h"
  },
  {
   "function_name" : "FLAC__stream_decoder_process_until_end_of_metadata",
   "linker_set_key" : "FLAC__stream_decoder_process_until_end_of_metadata",
   "parameters" :
   [
    {
     "referenced_type" : "type-157"
    }
   ],
   "return_type" : "type-1",
   "source_file" : "/external/flac/include/FLAC/stream_decoder.h"
  },
  {
   "function_name" : "FLAC__stream_decoder_process_until_end_of_stream",
   "linker_set_key" : "FLAC__stream_decoder_process_until_end_of_stream",
   "parameters" :
   [
    {
     "referenced_type" : "type-157"
    }
   ],
   "return_type" : "type-1",
   "source_file" : "/external/flac/include/FLAC/stream_decoder.h"
  },
  {
   "function_name" : "FLAC__stream_decoder_reset",
   "linker_set_key" : "FLAC__stream_decoder_reset",
   "parameters" :
   [
    {
     "referenced_type" : "type-157"
    }
   ],
   "return_type" : "type-1",
   "source_file" : "/external/flac/include/FLAC/stream_decoder.h"
  },
  {
   "function_name" : "FLAC__stream_decoder_seek_absolute",
   "linker_set_key" : "FLAC__stream_decoder_seek_absolute",
   "parameters" :
   [
    {
     "referenced_type" : "type-157"
    },
    {
     "referenced_type" : "type-15"
    }
   ],
   "return_type" : "type-1",
   "source_file" : "/external/flac/include/FLAC/stream_decoder.h"
  },
  {
   "function_name" : "FLAC__stream_decoder_set_md5_checking",
   "linker_set_key" : "FLAC__stream_decoder_set_md5_checking",
   "parameters" :
   [
    {
     "referenced_type" : "type-157"
    },
    {
     "referenced_type" : "type-1"
    }
   ],
   "return_type" : "type-1",
   "source_file" : "/external/flac/include/FLAC/stream_decoder.h"
  },
  {
   "function_name" : "FLAC__stream_decoder_set_metadata_ignore",
   "linker_set_key" : "FLAC__stream_decoder_set_metadata_ignore",
   "parameters" :
   [
    {
     "referenced_type" : "type-157"
    },
    {
     "referenced_type" : "type-55"
    }
   ],
   "return_type" : "type-1",
   "source_file" : "/external/flac/include/FLAC/stream_decoder.h"
  },
  {
   "function_name" : "FLAC__stream_decoder_set_metadata_ignore_all",
   "linker_set_key" : "FLAC__stream_decoder_set_metadata_ignore_all",
   "parameters" :
   [
    {
     "referenced_type" : "type-157"
    }
   ],
   "return_type" : "type-1",
   "source_file" : "/external/flac/include/FLAC/stream_decoder.h"
  },
  {
   "function_name" : "FLAC__stream_decoder_set_metadata_ignore_application",
   "linker_set_key" : "FLAC__stream_decoder_set_metadata_ignore_application",
   "parameters" :
   [
    {
     "referenced_type" : "type-157"
    },
    {
     "referenced_type" : "type-124"
    }
   ],
   "return_type" : "type-1",
   "source_file" : "/external/flac/include/FLAC/stream_decoder.h"
  },
  {
   "function_name" : "FLAC__stream_decoder_set_metadata_respond",
   "linker_set_key" : "FLAC__stream_decoder_set_metadata_respond",
   "parameters" :
   [
    {
     "referenced_type" : "type-157"
    },
    {
     "referenced_type" : "type-55"
    }
   ],
   "return_type" : "type-1",
   "source_file" : "/external/flac/include/FLAC/stream_decoder.h"
  },
  {
   "function_name" : "FLAC__stream_decoder_set_metadata_respond_all",
   "linker_set_key" : "FLAC__stream_decoder_set_metadata_respond_all",
   "parameters" :
   [
    {
     "referenced_type" : "type-157"
    }
   ],
   "return_type" : "type-1",
   "source_file" : "/external/flac/include/FLAC/stream_decoder.h"
  },
  {
   "function_name" : "FLAC__stream_decoder_set_metadata_respond_application",
   "linker_set_key" : "FLAC__stream_decoder_set_metadata_respond_application",
   "parameters" :
   [
    {
     "referenced_type" : "type-157"
    },
    {
     "referenced_type" : "type-124"
    }
   ],
   "return_type" : "type-1",
   "source_file" : "/external/flac/include/FLAC/stream_decoder.h"
  },
  {
   "function_name" : "FLAC__stream_decoder_set_ogg_serial_number",
   "linker_set_key" : "FLAC__stream_decoder_set_ogg_serial_number",
   "parameters" :
   [
    {
     "referenced_type" : "type-157"
    },
    {
     "referenced_type" : "type-79"
    }
   ],
   "return_type" : "type-1",
   "source_file" : "/external/flac/include/FLAC/stream_decoder.h"
  },
  {
   "function_name" : "FLAC__stream_decoder_skip_single_frame",
   "linker_set_key" : "FLAC__stream_decoder_skip_single_frame",
   "parameters" :
   [
    {
     "referenced_type" : "type-157"
    }
   ],
   "return_type" : "type-1",
   "source_file" : "/external/flac/include/FLAC/stream_decoder.h"
  },
  {
   "access" : "private",
   "function_name" : "android::FLACDecoder::readCallback",
   "linker_set_key" : "_ZN7android11FLACDecoder12readCallbackEPhPm",
   "parameters" :
   [
    {
     "is_this_ptr" : true,
     "referenced_type" : "type-161"
    },
    {
     "referenced_type" : "type-36"
    },
    {
     "referenced_type" : "type-82"
    }
   ],
   "return_type" : "type-81",
   "source_file" : "/frameworks/av/media/libstagefright/flac/dec/FLACDecoder.h"
  },
  {
   "access" : "private",
   "function_name" : "android::FLACDecoder::errorCallback",
   "linker_set_key" : "_ZN7android11FLACDecoder13errorCallbackE30FLAC__StreamDecoderErrorStatus",
   "parameters" :
   [
    {
     "is_this_ptr" : true,
     "referenced_type" : "type-161"
    },
    {
     "referenced_type" : "type-69"
    }
   ],
   "return_type" : "type-44",
   "source_file" : "/frameworks/av/media/libstagefright/flac/dec/FLACDecoder.h"
  },
  {
   "function_name" : "android::FLACDecoder::parseMetadata",
   "linker_set_key" : "_ZN7android11FLACDecoder13parseMetadataEPKhm",
   "parameters" :
   [
    {
     "is_this_ptr" : true,
     "referenced_type" : "type-161"
    },
    {
     "referenced_type" : "type-124"
    },
    {
     "referenced_type" : "type-15"
    }
   ],
   "return_type" : "type-1",
   "source_file" : "/frameworks/av/media/libstagefright/flac/dec/FLACDecoder.h"
  },
  {
   "access" : "private",
   "function_name" : "android::FLACDecoder::writeCallback",
   "linker_set_key" : "_ZN7android11FLACDecoder13writeCallbackEPK11FLAC__FramePKPKi",
   "parameters" :
   [
    {
     "is_this_ptr" : true,
     "referenced_type" : "type-161"
    },
    {
     "referenced_type" : "type-99"
    },
    {
     "referenced_type" : "type-111"
    }
   ],
   "return_type" : "type-98",
   "source_file" : "/frameworks/av/media/libstagefright/flac/dec/FLACDecoder.h"
  },
  {
   "function_name" : "android::FLACDecoder::decodeOneFrame",
   "linker_set_key" : "_ZN7android11FLACDecoder14decodeOneFrameEPKhmPvPmb",
   "parameters" :
   [
    {
     "is_this_ptr" : true,
     "referenced_type" : "type-161"
    },
    {
     "referenced_type" : "type-124"
    },
    {
     "referenced_type" : "type-15"
    },
    {
     "referenced_type" : "type-66"
    },
    {
     "referenced_type" : "type-82"
    },
    {
     "default_arg" : true,
     "referenced_type" : "type-158"
    }
   ],
   "return_type" : "type-1",
   "source_file" : "/frameworks/av/media/libstagefright/flac/dec/FLACDecoder.h"
  },
  {
   "access" : "private",
   "function_name" : "android::FLACDecoder::addDataToBuffer",
   "linker_set_key" : "_ZN7android11FLACDecoder15addDataToBufferEPKhm",
   "parameters" :
   [
    {
     "is_this_ptr" : true,
     "referenced_type" : "type-161"
    },
    {
     "referenced_type" : "type-124"
    },
    {
     "referenced_type" : "type-15"
    }
   ],
   "return_type" : "type-1",
   "source_file" : "/frameworks/av/media/libstagefright/flac/dec/FLACDecoder.h"
  },
  {
   "access" : "private",
   "function_name" : "android::FLACDecoder::metadataCallback",
   "linker_set_key" : "_ZN7android11FLACDecoder16metadataCallbackEPK20FLAC__StreamMetadata",
   "parameters" :
   [
    {
     "is_this_ptr" : true,
     "referenced_type" : "type-161"
    },
    {
     "referenced_type" : "type-52"
    }
   ],
   "return_type" : "type-44",
   "source_file" : "/frameworks/av/media/libstagefright/flac/dec/FLACDecoder.h"
  },
  {
   "access" : "private",
   "function_name" : "android::FLACDecoder::init",
   "linker_set_key" : "_ZN7android11FLACDecoder4initEv",
   "parameters" :
   [
    {
     "is_this_ptr" : true,
     "referenced_type" : "type-161"
    }
   ],
   "return_type" : "type-1",
   "source_file" : "/frameworks/av/media/libstagefright/flac/dec/FLACDecoder.h"
  },
  {
   "function_name" : "android::FLACDecoder::flush",
   "linker_set_key" : "_ZN7android11FLACDecoder5flushEv",
   "parameters" :
   [
    {
     "is_this_ptr" : true,
     "referenced_type" : "type-161"
    }
   ],
   "return_type" : "type-44",
   "source_file" : "/frameworks/av/media/libstagefright/flac/dec/FLACDecoder.h"
  },
  {
   "function_name" : "android::FLACDecoder::Create",
   "linker_set_key" : "_ZN7android11FLACDecoder6CreateEv",
   "return_type" : "type-161",
   "source_file" : "/frameworks/av/media/libstagefright/flac/dec/FLACDecoder.h"
  },
  {
   "access" : "protected",
   "function_name" : "android::FLACDecoder::FLACDecoder",
   "linker_set_key" : "_ZN7android11FLACDecoderC1Ev",
   "parameters" :
   [
    {
     "is_this_ptr" : true,
     "referenced_type" : "type-161"
    }
   ],
   "return_type" : "type-44",
   "source_file" : "/frameworks/av/media/libstagefright/flac/dec/FLACDecoder.h"
  },
  {
   "access" : "protected",
   "function_name" : "android::FLACDecoder::FLACDecoder",
   "linker_set_key" : "_ZN7android11FLACDecoderC2Ev",
   "parameters" :
   [
    {
     "is_this_ptr" : true,
     "referenced_type" : "type-161"
    }
   ],
   "return_type" : "type-44",
   "source_file" : "/frameworks/av/media/libstagefright/flac/dec/FLACDecoder.h"
  },
  {
   "function_name" : "android::FLACDecoder::~FLACDecoder",
   "linker_set_key" : "_ZN7android11FLACDecoderD0Ev",
   "parameters" :
   [
    {
     "is_this_ptr" : true,
     "referenced_type" : "type-161"
    }
   ],
   "return_type" : "type-44",
   "source_file" : "/frameworks/av/media/libstagefright/flac/dec/FLACDecoder.h"
  },
  {
   "function_name" : "android::FLACDecoder::~FLACDecoder",
   "linker_set_key" : "_ZN7android11FLACDecoderD1Ev",
   "parameters" :
   [
    {
     "is_this_ptr" : true,
     "referenced_type" : "type-161"
    }
   ],
   "return_type" : "type-44",
   "source_file" : "/frameworks/av/media/libstagefright/flac/dec/FLACDecoder.h"
  },
  {
   "function_name" : "android::FLACDecoder::~FLACDecoder",
   "linker_set_key" : "_ZN7android11FLACDecoderD2Ev",
   "parameters" :
   [
    {
     "is_this_ptr" : true,
     "referenced_type" : "type-161"
    }
   ],
   "return_type" : "type-44",
   "source_file" : "/frameworks/av/media/libstagefright/flac/dec/FLACDecoder.h"
  }
 ],
 "global_vars" :
 [
  {
   "linker_set_key" : "FLAC_API_SUPPORTS_OGG_FLAC",
   "name" : "FLAC_API_SUPPORTS_OGG_FLAC",
   "referenced_type" : "type-1",
   "source_file" : "/external/flac/include/FLAC/export.h"
  },
  {
   "linker_set_key" : "FLAC__ChannelAssignmentString",
   "name" : "FLAC__ChannelAssignmentString",
   "referenced_type" : "type-160",
   "source_file" : "/external/flac/include/FLAC/format.h"
  },
  {
   "linker_set_key" : "FLAC__ENTROPY_CODING_METHOD_PARTITIONED_RICE2_ESCAPE_PARAMETER",
   "name" : "FLAC__ENTROPY_CODING_METHOD_PARTITIONED_RICE2_ESCAPE_PARAMETER",
   "referenced_type" : "type-164",
   "source_file" : "/external/flac/include/FLAC/format.h"
  },
  {
   "linker_set_key" : "FLAC__ENTROPY_CODING_METHOD_PARTITIONED_RICE2_PARAMETER_LEN",
   "name" : "FLAC__ENTROPY_CODING_METHOD_PARTITIONED_RICE2_PARAMETER_LEN",
   "referenced_type" : "type-164",
   "source_file" : "/external/flac/include/FLAC/format.h"
  },
  {
   "linker_set_key" : "FLAC__ENTROPY_CODING_METHOD_PARTITIONED_RICE_ESCAPE_PARAMETER",
   "name" : "FLAC__ENTROPY_CODING_METHOD_PARTITIONED_RICE_ESCAPE_PARAMETER",
   "referenced_type" : "type-164",
   "source_file" : "/external/flac/include/FLAC/format.h"
  },
  {
   "linker_set_key" : "FLAC__ENTROPY_CODING_METHOD_PARTITIONED_RICE_ORDER_LEN",
   "name" : "FLAC__ENTROPY_CODING_METHOD_PARTITIONED_RICE_ORDER_LEN",
   "referenced_type" : "type-164",
   "source_file" : "/external/flac/include/FLAC/format.h"
  },
  {
   "linker_set_key" : "FLAC__ENTROPY_CODING_METHOD_PARTITIONED_RICE_PARAMETER_LEN",
   "name" : "FLAC__ENTROPY_CODING_METHOD_PARTITIONED_RICE_PARAMETER_LEN",
   "referenced_type" : "type-164",
   "source_file" : "/external/flac/include/FLAC/format.h"
  },
  {
   "linker_set_key" : "FLAC__ENTROPY_CODING_METHOD_PARTITIONED_RICE_RAW_LEN",
   "name" : "FLAC__ENTROPY_CODING_METHOD_PARTITIONED_RICE_RAW_LEN",
   "referenced_type" : "type-164",
   "source_file" : "/external/flac/include/FLAC/format.h"
  },
  {
   "linker_set_key" : "FLAC__ENTROPY_CODING_METHOD_TYPE_LEN",
   "name" : "FLAC__ENTROPY_CODING_METHOD_TYPE_LEN",
   "referenced_type" : "type-164",
   "source_file" : "/external/flac/include/FLAC/format.h"
  },
  {
   "linker_set_key" : "FLAC__EntropyCodingMethodTypeString",
   "name" : "FLAC__EntropyCodingMethodTypeString",
   "referenced_type" : "type-160",
   "source_file" : "/external/flac/include/FLAC/format.h"
  },
  {
   "linker_set_key" : "FLAC__FRAME_FOOTER_CRC_LEN",
   "name" : "FLAC__FRAME_FOOTER_CRC_LEN",
   "referenced_type" : "type-164",
   "source_file" : "/external/flac/include/FLAC/format.h"
  },
  {
   "linker_set_key" : "FLAC__FRAME_HEADER_BITS_PER_SAMPLE_LEN",
   "name" : "FLAC__FRAME_HEADER_BITS_PER_SAMPLE_LEN",
   "referenced_type" : "type-164",
   "source_file" : "/external/flac/include/FLAC/format.h"
  },
  {
   "linker_set_key" : "FLAC__FRAME_HEADER_BLOCKING_STRATEGY_LEN",
   "name" : "FLAC__FRAME_HEADER_BLOCKING_STRATEGY_LEN",
   "referenced_type" : "type-164",
   "source_file" : "/external/flac/include/FLAC/format.h"
  },
  {
   "linker_set_key" : "FLAC__FRAME_HEADER_BLOCK_SIZE_LEN",
   "name" : "FLAC__FRAME_HEADER_BLOCK_SIZE_LEN",
   "referenced_type" : "type-164",
   "source_file" : "/external/flac/include/FLAC/format.h"
  },
  {
   "linker_set_key" : "FLAC__FRAME_HEADER_CHANNEL_ASSIGNMENT_LEN",
   "name" : "FLAC__FRAME_HEADER_CHANNEL_ASSIGNMENT_LEN",
   "referenced_type" : "type-164",
   "source_file" : "/external/flac/include/FLAC/format.h"
  },
  {
   "linker_set_key" : "FLAC__FRAME_HEADER_CRC_LEN",
   "name" : "FLAC__FRAME_HEADER_CRC_LEN",
   "referenced_type" : "type-164",
   "source_file" : "/external/flac/include/FLAC/format.h"
  },
  {
   "linker_set_key" : "FLAC__FRAME_HEADER_RESERVED_LEN",
   "name" : "FLAC__FRAME_HEADER_RESERVED_LEN",
   "referenced_type" : "type-164",
   "source_file" : "/external/flac/include/FLAC/format.h"
  },
  {
   "linker_set_key" : "FLAC__FRAME_HEADER_SAMPLE_RATE_LEN",
   "name" : "FLAC__FRAME_HEADER_SAMPLE_RATE_LEN",
   "referenced_type" : "type-164",
   "source_file" : "/external/flac/include/FLAC/format.h"
  },
  {
   "linker_set_key" : "FLAC__FRAME_HEADER_SYNC",
   "name" : "FLAC__FRAME_HEADER_SYNC",
   "referenced_type" : "type-164",
   "source_file" : "/external/flac/include/FLAC/format.h"
  },
  {
   "linker_set_key" : "FLAC__FRAME_HEADER_SYNC_LEN",
   "name" : "FLAC__FRAME_HEADER_SYNC_LEN",
   "referenced_type" : "type-164",
   "source_file" : "/external/flac/include/FLAC/format.h"
  },
  {
   "linker_set_key" : "FLAC__FRAME_HEADER_ZERO_PAD_LEN",
   "name" : "FLAC__FRAME_HEADER_ZERO_PAD_LEN",
   "referenced_type" : "type-164",
   "source_file" : "/external/flac/include/FLAC/format.h"
  },
  {
   "linker_set_key" : "FLAC__FrameNumberTypeString",
   "name" : "FLAC__FrameNumberTypeString",
   "referenced_type" : "type-160",
   "source_file" : "/external/flac/include/FLAC/format.h"
  },
  {
   "linker_set_key" : "FLAC__MetadataTypeString",
   "name" : "FLAC__MetadataTypeString",
   "referenced_type" : "type-160",
   "source_file" : "/external/flac/include/FLAC/format.h"
  },
  {
   "linker_set_key" : "FLAC__STREAM_METADATA_APPLICATION_ID_LEN",
   "name" : "FLAC__STREAM_METADATA_APPLICATION_ID_LEN",
   "referenced_type" : "type-164",
   "source_file" : "/external/flac/include/FLAC/format.h"
  },
  {
   "linker_set_key" : "FLAC__STREAM_METADATA_CUESHEET_INDEX_NUMBER_LEN",
   "name" : "FLAC__STREAM_METADATA_CUESHEET_INDEX_NUMBER_LEN",
   "referenced_type" : "type-164",
   "source_file" : "/external/flac/include/FLAC/format.h"
  },
  {
   "linker_set_key" : "FLAC__STREAM_METADATA_CUESHEET_INDEX_OFFSET_LEN",
   "name" : "FLAC__STREAM_METADATA_CUESHEET_INDEX_OFFSET_LEN",
   "referenced_type" : "type-164",
   "source_file" : "/external/flac/include/FLAC/format.h"
  },
  {
   "linker_set_key" : "FLAC__STREAM_METADATA_CUESHEET_INDEX_RESERVED_LEN",
   "name" : "FLAC__STREAM_METADATA_CUESHEET_INDEX_RESERVED_LEN",
   "referenced_type" : "type-164",
   "source_file" : "/external/flac/include/FLAC/format.h"
  },
  {
   "linker_set_key" : "FLAC__STREAM_METADATA_CUESHEET_IS_CD_LEN",
   "name" : "FLAC__STREAM_METADATA_CUESHEET_IS_CD_LEN",
   "referenced_type" : "type-164",
   "source_file" : "/external/flac/include/FLAC/format.h"
  },
  {
   "linker_set_key" : "FLAC__STREAM_METADATA_CUESHEET_LEAD_IN_LEN",
   "name" : "FLAC__STREAM_METADATA_CUESHEET_LEAD_IN_LEN",
   "referenced_type" : "type-164",
   "source_file" : "/external/flac/include/FLAC/format.h"
  },
  {
   "linker_set_key" : "FLAC__STREAM_METADATA_CUESHEET_MEDIA_CATALOG_NUMBER_LEN",
   "name" : "FLAC__STREAM_METADATA_CUESHEET_MEDIA_CATALOG_NUMBER_LEN",
   "referenced_type" : "type-164",
   "source_file" : "/external/flac/include/FLAC/format.h"
  },
  {
   "linker_set_key" : "FLAC__STREAM_METADATA_CUESHEET_NUM_TRACKS_LEN",
   "name" : "FLAC__STREAM_METADATA_CUESHEET_NUM_TRACKS_LEN",
   "referenced_type" : "type-164",
   "source_file" : "/external/flac/include/FLAC/format.h"
  },
  {
   "linker_set_key" : "FLAC__STREAM_METADATA_CUESHEET_RESERVED_LEN",
   "name" : "FLAC__STREAM_METADATA_CUESHEET_RESERVED_LEN",
   "referenced_type" : "type-164",
   "source_file" : "/external/flac/include/FLAC/format.h"
  },
  {
   "linker_set_key" : "FLAC__STREAM_METADATA_CUESHEET_TRACK_ISRC_LEN",
   "name" : "FLAC__STREAM_METADATA_CUESHEET_TRACK_ISRC_LEN",
   "referenced_type" : "type-164",
   "source_file" : "/external/flac/include/FLAC/format.h"
  },
  {
   "linker_set_key" : "FLAC__STREAM_METADATA_CUESHEET_TRACK_NUMBER_LEN",
   "name" : "FLAC__STREAM_METADATA_CUESHEET_TRACK_NUMBER_LEN",
   "referenced_type" : "type-164",
   "source_file" : "/external/flac/include/FLAC/format.h"
  },
  {
   "linker_set_key" : "FLAC__STREAM_METADATA_CUESHEET_TRACK_NUM_INDICES_LEN",
   "name" : "FLAC__STREAM_METADATA_CUESHEET_TRACK_NUM_INDICES_LEN",
   "referenced_type" : "type-164",
   "source_file" : "/external/flac/include/FLAC/format.h"
  },
  {
   "linker_set_key" : "FLAC__STREAM_METADATA_CUESHEET_TRACK_OFFSET_LEN",
   "name" : "FLAC__STREAM_METADATA_CUESHEET_TRACK_OFFSET_LEN",
   "referenced_type" : "type-164",
   "source_file" : "/external/flac/include/FLAC/format.h"
  },
  {
   "linker_set_key" : "FLAC__STREAM_METADATA_CUESHEET_TRACK_PRE_EMPHASIS_LEN",
   "name" : "FLAC__STREAM_METADATA_CUESHEET_TRACK_PRE_EMPHASIS_LEN",
   "referenced_type" : "type-164",
   "source_file" : "/external/flac/include/FLAC/format.h"
  },
  {
   "linker_set_key" : "FLAC__STREAM_METADATA_CUESHEET_TRACK_RESERVED_LEN",
   "name" : "FLAC__STREAM_METADATA_CUESHEET_TRACK_RESERVED_LEN",
   "referenced_type" : "type-164",
   "source_file" : "/external/flac/include/FLAC/format.h"
  },
  {
   "linker_set_key" : "FLAC__STREAM_METADATA_CUESHEET_TRACK_TYPE_LEN",
   "name" : "FLAC__STREAM_METADATA_CUESHEET_TRACK_TYPE_LEN",
   "referenced_type" : "type-164",
   "source_file" : "/external/flac/include/FLAC/format.h"
  },
  {
   "linker_set_key" : "FLAC__STREAM_METADATA_IS_LAST_LEN",
   "name" : "FLAC__STREAM_METADATA_IS_LAST_LEN",
   "referenced_type" : "type-164",
   "source_file" : "/external/flac/include/FLAC/format.h"
  },
  {
   "linker_set_key" : "FLAC__STREAM_METADATA_LENGTH_LEN",
   "name" : "FLAC__STREAM_METADATA_LENGTH_LEN",
   "referenced_type" : "type-164",
   "source_file" : "/external/flac/include/FLAC/format.h"
  },
  {
   "linker_set_key" : "FLAC__STREAM_METADATA_PICTURE_COLORS_LEN",
   "name" : "FLAC__STREAM_METADATA_PICTURE_COLORS_LEN",
   "referenced_type" : "type-164",
   "source_file" : "/external/flac/include/FLAC/format.h"
  },
  {
   "linker_set_key" : "FLAC__STREAM_METADATA_PICTURE_DATA_LENGTH_LEN",
   "name" : "FLAC__STREAM_METADATA_PICTURE_DATA_LENGTH_LEN",
   "referenced_type" : "type-164",
   "source_file" : "/external/flac/include/FLAC/format.h"
  },
  {
   "linker_set_key" : "FLAC__STREAM_METADATA_PICTURE_DEPTH_LEN",
   "name" : "FLAC__STREAM_METADATA_PICTURE_DEPTH_LEN",
   "referenced_type" : "type-164",
   "source_file" : "/external/flac/include/FLAC/format.h"
  },
  {
   "linker_set_key" : "FLAC__STREAM_METADATA_PICTURE_DESCRIPTION_LENGTH_LEN",
   "name" : "FLAC__STREAM_METADATA_PICTURE_DESCRIPTION_LENGTH_LEN",
   "referenced_type" : "type-164",
   "source_file" : "/external/flac/include/FLAC/format.h"
  },
  {
   "linker_set_key" : "FLAC__STREAM_METADATA_PICTURE_HEIGHT_LEN",
   "name" : "FLAC__STREAM_METADATA_PICTURE_HEIGHT_LEN",
   "referenced_type" : "type-164",
   "source_file" : "/external/flac/include/FLAC/format.h"
  },
  {
   "linker_set_key" : "FLAC__STREAM_METADATA_PICTURE_MIME_TYPE_LENGTH_LEN",
   "name" : "FLAC__STREAM_METADATA_PICTURE_MIME_TYPE_LENGTH_LEN",
   "referenced_type" : "type-164",
   "source_file" : "/external/flac/include/FLAC/format.h"
  },
  {
   "linker_set_key" : "FLAC__STREAM_METADATA_PICTURE_TYPE_LEN",
   "name" : "FLAC__STREAM_METADATA_PICTURE_TYPE_LEN",
   "referenced_type" : "type-164",
   "source_file" : "/external/flac/include/FLAC/format.h"
  },
  {
   "linker_set_key" : "FLAC__STREAM_METADATA_PICTURE_WIDTH_LEN",
   "name" : "FLAC__STREAM_METADATA_PICTURE_WIDTH_LEN",
   "referenced_type" : "type-164",
   "source_file" : "/external/flac/include/FLAC/format.h"
  },
  {
   "linker_set_key" : "FLAC__STREAM_METADATA_SEEKPOINT_FRAME_SAMPLES_LEN",
   "name" : "FLAC__STREAM_METADATA_SEEKPOINT_FRAME_SAMPLES_LEN",
   "referenced_type" : "type-164",
   "source_file" : "/external/flac/include/FLAC/format.h"
  },
  {
   "linker_set_key" : "FLAC__STREAM_METADATA_SEEKPOINT_PLACEHOLDER",
   "name" : "FLAC__STREAM_METADATA_SEEKPOINT_PLACEHOLDER",
   "referenced_type" : "type-152",
   "source_file" : "/external/flac/include/FLAC/format.h"
  },
  {
   "linker_set_key" : "FLAC__STREAM_METADATA_SEEKPOINT_SAMPLE_NUMBER_LEN",
   "name" : "FLAC__STREAM_METADATA_SEEKPOINT_SAMPLE_NUMBER_LEN",
   "referenced_type" : "type-164",
   "source_file" : "/external/flac/include/FLAC/format.h"
  },
  {
   "linker_set_key" : "FLAC__STREAM_METADATA_SEEKPOINT_STREAM_OFFSET_LEN",
   "name" : "FLAC__STREAM_METADATA_SEEKPOINT_STREAM_OFFSET_LEN",
   "referenced_type" : "type-164",
   "source_file" : "/external/flac/include/FLAC/format.h"
  },
  {
   "linker_set_key" : "FLAC__STREAM_METADATA_STREAMINFO_BITS_PER_SAMPLE_LEN",
   "name" : "FLAC__STREAM_METADATA_STREAMINFO_BITS_PER_SAMPLE_LEN",
   "referenced_type" : "type-164",
   "source_file" : "/external/flac/include/FLAC/format.h"
  },
  {
   "linker_set_key" : "FLAC__STREAM_METADATA_STREAMINFO_CHANNELS_LEN",
   "name" : "FLAC__STREAM_METADATA_STREAMINFO_CHANNELS_LEN",
   "referenced_type" : "type-164",
   "source_file" : "/external/flac/include/FLAC/format.h"
  },
  {
   "linker_set_key" : "FLAC__STREAM_METADATA_STREAMINFO_MAX_BLOCK_SIZE_LEN",
   "name" : "FLAC__STREAM_METADATA_STREAMINFO_MAX_BLOCK_SIZE_LEN",
   "referenced_type" : "type-164",
   "source_file" : "/external/flac/include/FLAC/format.h"
  },
  {
   "linker_set_key" : "FLAC__STREAM_METADATA_STREAMINFO_MAX_FRAME_SIZE_LEN",
   "name" : "FLAC__STREAM_METADATA_STREAMINFO_MAX_FRAME_SIZE_LEN",
   "referenced_type" : "type-164",
   "source_file" : "/external/flac/include/FLAC/format.h"
  },
  {
   "linker_set_key" : "FLAC__STREAM_METADATA_STREAMINFO_MD5SUM_LEN",
   "name" : "FLAC__STREAM_METADATA_STREAMINFO_MD5SUM_LEN",
   "referenced_type" : "type-164",
   "source_file" : "/external/flac/include/FLAC/format.h"
  },
  {
   "linker_set_key" : "FLAC__STREAM_METADATA_STREAMINFO_MIN_BLOCK_SIZE_LEN",
   "name" : "FLAC__STREAM_METADATA_STREAMINFO_MIN_BLOCK_SIZE_LEN",
   "referenced_type" : "type-164",
   "source_file" : "/external/flac/include/FLAC/format.h"
  },
  {
   "linker_set_key" : "FLAC__STREAM_METADATA_STREAMINFO_MIN_FRAME_SIZE_LEN",
   "name" : "FLAC__STREAM_METADATA_STREAMINFO_MIN_FRAME_SIZE_LEN",
   "referenced_type" : "type-164",
   "source_file" : "/external/flac/include/FLAC/format.h"
  },
  {
   "linker_set_key" : "FLAC__STREAM_METADATA_STREAMINFO_SAMPLE_RATE_LEN",
   "name" : "FLAC__STREAM_METADATA_STREAMINFO_SAMPLE_RATE_LEN",
   "referenced_type" : "type-164",
   "source_file" : "/external/flac/include/FLAC/format.h"
  },
  {
   "linker_set_key" : "FLAC__STREAM_METADATA_STREAMINFO_TOTAL_SAMPLES_LEN",
   "name" : "FLAC__STREAM_METADATA_STREAMINFO_TOTAL_SAMPLES_LEN",
   "referenced_type" : "type-164",
   "source_file" : "/external/flac/include/FLAC/format.h"
  },
  {
   "linker_set_key" : "FLAC__STREAM_METADATA_TYPE_LEN",
   "name" : "FLAC__STREAM_METADATA_TYPE_LEN",
   "referenced_type" : "type-164",
   "source_file" : "/external/flac/include/FLAC/format.h"
  },
  {
   "linker_set_key" : "FLAC__STREAM_METADATA_VORBIS_COMMENT_ENTRY_LENGTH_LEN",
   "name" : "FLAC__STREAM_METADATA_VORBIS_COMMENT_ENTRY_LENGTH_LEN",
   "referenced_type" : "type-164",
   "source_file" : "/external/flac/include/FLAC/format.h"
  },
  {
   "linker_set_key" : "FLAC__STREAM_METADATA_VORBIS_COMMENT_NUM_COMMENTS_LEN",
   "name" : "FLAC__STREAM_METADATA_VORBIS_COMMENT_NUM_COMMENTS_LEN",
   "referenced_type" : "type-164",
   "source_file" : "/external/flac/include/FLAC/format.h"
  },
  {
   "linker_set_key" : "FLAC__STREAM_SYNC",
   "name" : "FLAC__STREAM_SYNC",
   "referenced_type" : "type-164",
   "source_file" : "/external/flac/include/FLAC/format.h"
  },
  {
   "linker_set_key" : "FLAC__STREAM_SYNC_LEN",
   "name" : "FLAC__STREAM_SYNC_LEN",
   "referenced_type" : "type-164",
   "source_file" : "/external/flac/include/FLAC/format.h"
  },
  {
   "linker_set_key" : "FLAC__STREAM_SYNC_STRING",
   "name" : "FLAC__STREAM_SYNC_STRING",
   "referenced_type" : "type-153",
   "source_file" : "/external/flac/include/FLAC/format.h"
  },
  {
   "linker_set_key" : "FLAC__SUBFRAME_LPC_QLP_COEFF_PRECISION_LEN",
   "name" : "FLAC__SUBFRAME_LPC_QLP_COEFF_PRECISION_LEN",
   "referenced_type" : "type-164",
   "source_file" : "/external/flac/include/FLAC/format.h"
  },
  {
   "linker_set_key" : "FLAC__SUBFRAME_LPC_QLP_SHIFT_LEN",
   "name" : "FLAC__SUBFRAME_LPC_QLP_SHIFT_LEN",
   "referenced_type" : "type-164",
   "source_file" : "/external/flac/include/FLAC/format.h"
  },
  {
   "linker_set_key" : "FLAC__SUBFRAME_TYPE_CONSTANT_BYTE_ALIGNED_MASK",
   "name" : "FLAC__SUBFRAME_TYPE_CONSTANT_BYTE_ALIGNED_MASK",
   "referenced_type" : "type-164",
   "source_file" : "/external/flac/include/FLAC/format.h"
  },
  {
   "linker_set_key" : "FLAC__SUBFRAME_TYPE_FIXED_BYTE_ALIGNED_MASK",
   "name" : "FLAC__SUBFRAME_TYPE_FIXED_BYTE_ALIGNED_MASK",
   "referenced_type" : "type-164",
   "source_file" : "/external/flac/include/FLAC/format.h"
  },
  {
   "linker_set_key" : "FLAC__SUBFRAME_TYPE_LEN",
   "name" : "FLAC__SUBFRAME_TYPE_LEN",
   "referenced_type" : "type-164",
   "source_file" : "/external/flac/include/FLAC/format.h"
  },
  {
   "linker_set_key" : "FLAC__SUBFRAME_TYPE_LPC_BYTE_ALIGNED_MASK",
   "name" : "FLAC__SUBFRAME_TYPE_LPC_BYTE_ALIGNED_MASK",
   "referenced_type" : "type-164",
   "source_file" : "/external/flac/include/FLAC/format.h"
  },
  {
   "linker_set_key" : "FLAC__SUBFRAME_TYPE_VERBATIM_BYTE_ALIGNED_MASK",
   "name" : "FLAC__SUBFRAME_TYPE_VERBATIM_BYTE_ALIGNED_MASK",
   "referenced_type" : "type-164",
   "source_file" : "/external/flac/include/FLAC/format.h"
  },
  {
   "linker_set_key" : "FLAC__SUBFRAME_WASTED_BITS_FLAG_LEN",
   "name" : "FLAC__SUBFRAME_WASTED_BITS_FLAG_LEN",
   "referenced_type" : "type-164",
   "source_file" : "/external/flac/include/FLAC/format.h"
  },
  {
   "linker_set_key" : "FLAC__SUBFRAME_ZERO_PAD_LEN",
   "name" : "FLAC__SUBFRAME_ZERO_PAD_LEN",
   "referenced_type" : "type-164",
   "source_file" : "/external/flac/include/FLAC/format.h"
  },
  {
   "linker_set_key" : "FLAC__StreamDecoderErrorStatusString",
   "name" : "FLAC__StreamDecoderErrorStatusString",
   "referenced_type" : "type-160",
   "source_file" : "/external/flac/include/FLAC/stream_decoder.h"
  },
  {
   "linker_set_key" : "FLAC__StreamDecoderInitStatusString",
   "name" : "FLAC__StreamDecoderInitStatusString",
   "referenced_type" : "type-160",
   "source_file" : "/external/flac/include/FLAC/stream_decoder.h"
  },
  {
   "linker_set_key" : "FLAC__StreamDecoderLengthStatusString",
   "name" : "FLAC__StreamDecoderLengthStatusString",
   "referenced_type" : "type-160",
   "source_file" : "/external/flac/include/FLAC/stream_decoder.h"
  },
  {
   "linker_set_key" : "FLAC__StreamDecoderReadStatusString",
   "name" : "FLAC__StreamDecoderReadStatusString",
   "referenced_type" : "type-160",
   "source_file" : "/external/flac/include/FLAC/stream_decoder.h"
  },
  {
   "linker_set_key" : "FLAC__StreamDecoderSeekStatusString",
   "name" : "FLAC__StreamDecoderSeekStatusString",
   "referenced_type" : "type-160",
   "source_file" : "/external/flac/include/FLAC/stream_decoder.h"
  },
  {
   "linker_set_key" : "FLAC__StreamDecoderStateString",
   "name" : "FLAC__StreamDecoderStateString",
   "referenced_type" : "type-160",
   "source_file" : "/external/flac/include/FLAC/stream_decoder.h"
  },
  {
   "linker_set_key" : "FLAC__StreamDecoderTellStatusString",
   "name" : "FLAC__StreamDecoderTellStatusString",
   "referenced_type" : "type-160",
   "source_file" : "/external/flac/include/FLAC/stream_decoder.h"
  },
  {
   "linker_set_key" : "FLAC__StreamDecoderWriteStatusString",
   "name" : "FLAC__StreamDecoderWriteStatusString",
   "referenced_type" : "type-160",
   "source_file" : "/external/flac/include/FLAC/stream_decoder.h"
  },
  {
   "linker_set_key" : "FLAC__StreamMetadata_Picture_TypeString",
   "name" : "FLAC__StreamMetadata_Picture_TypeString",
   "referenced_type" : "type-160",
   "source_file" : "/external/flac/include/FLAC/format.h"
  },
  {
   "linker_set_key" : "FLAC__SubframeTypeString",
   "name" : "FLAC__SubframeTypeString",
   "referenced_type" : "type-160",
   "source_file" : "/external/flac/include/FLAC/format.h"
  },
  {
   "linker_set_key" : "FLAC__VENDOR_STRING",
   "name" : "FLAC__VENDOR_STRING",
   "referenced_type" : "type-30",
   "source_file" : "/external/flac/include/FLAC/format.h"
  },
  {
   "linker_set_key" : "FLAC__VERSION_STRING",
   "name" : "FLAC__VERSION_STRING",
   "referenced_type" : "type-30",
   "source_file" : "/external/flac/include/FLAC/format.h"
  }
 ],
 "lvalue_reference_types" : [],
 "pointer_types" :
 [
  {
   "alignment" : 8,
   "linker_set_key" : "FLAC__StreamDecoder *",
   "name" : "FLAC__StreamDecoder *",
   "referenced_type" : "type-47",
   "self_type" : "type-157",
   "size" : 8,
   "source_file" : "/frameworks/av/media/libstagefright/flac/dec/FLACDecoder.h"
  },
  {
   "alignment" : 8,
   "linker_set_key" : "FLAC__StreamDecoderLengthStatus (*)(const FLAC__StreamDecoder *, unsigned long *, void *)",
   "name" : "FLAC__StreamDecoderLengthStatus (*)(const FLAC__StreamDecoder *, unsigned long *, void *)",
   "referenced_type" : "type-90",
   "self_type" : "type-92",
   "size" : 8,
   "source_file" : "/external/flac/include/FLAC/stream_decoder.h"
  },
  {
   "alignment" : 8,
   "linker_set_key" : "FLAC__StreamDecoderPrivate *",
   "name" : "FLAC__StreamDecoderPrivate *",
   "referenced_type" : "type-144",
   "self_type" : "type-143",
   "size" : 8,
   "source_file" : "/external/flac/include/FLAC/stream_decoder.h"
  },
  {
   "alignment" : 8,
   "linker_set_key" : "FLAC__StreamDecoderPrivate *",
   "name" : "FLAC__StreamDecoderPrivate *",
   "referenced_type" : "type-184",
   "self_type" : "type-183",
   "size" : 8,
   "source_file" : "/external/flac/include/FLAC/stream_decoder.h"
  },
  {
   "alignment" : 8,
   "linker_set_key" : "FLAC__StreamDecoderPrivate *",
   "name" : "FLAC__StreamDecoderPrivate *",
   "referenced_type" : "type-209",
   "self_type" : "type-208",
   "size" : 8,
   "source_file" : "/external/flac/include/FLAC/stream_decoder.h"
  },
  {
   "alignment" : 8,
   "linker_set_key" : "FLAC__StreamDecoderPrivate *",
   "name" : "FLAC__StreamDecoderPrivate *",
   "referenced_type" : "type-232",
   "self_type" : "type-231",
   "size" : 8,
   "source_file" : "/external/flac/include/FLAC/stream_decoder.h"
  },
  {
   "alignment" : 8,
   "linker_set_key" : "FLAC__StreamDecoderPrivate *",
   "name" : "FLAC__StreamDecoderPrivate *",
   "referenced_type" : "type-269",
   "self_type" : "type-268",
   "size" : 8,
   "source_file" : "/external/flac/include/FLAC/stream_decoder.h"
  },
  {
   "alignment" : 8,
   "linker_set_key" : "FLAC__StreamDecoderPrivate *",
   "name" : "FLAC__StreamDecoderPrivate *",
   "referenced_type" : "type-294",
   "self_type" : "type-293",
   "size" : 8,
   "source_file" : "/external/flac/include/FLAC/stream_decoder.h"
  },
  {
   "alignment" : 8,
   "linker_set_key" : "FLAC__StreamDecoderPrivate *",
   "name" : "FLAC__StreamDecoderPrivate *",
   "referenced_type" : "type-318",
   "self_type" : "type-317",
   "size" : 8,
   "source_file" : "/external/flac/include/FLAC/stream_decoder.h"
  },
  {
   "alignment" : 8,
   "linker_set_key" : "FLAC__StreamDecoderPrivate *",
   "name" : "FLAC__StreamDecoderPrivate *",
   "referenced_type" : "type-341",
   "self_type" : "type-340",
   "size" : 8,
   "source_file" : "/external/flac/include/FLAC/stream_decoder.h"
  },
  {
   "alignment" : 8,
   "linker_set_key" : "FLAC__StreamDecoderPrivate *",
   "name" : "FLAC__StreamDecoderPrivate *",
   "referenced_type" : "type-361",
   "self_type" : "type-360",
   "size" : 8,
   "source_file" : "/external/flac/include/FLAC/stream_decoder.h"
  },
  {
   "alignment" : 8,
   "linker_set_key" : "FLAC__StreamDecoderPrivate *",
   "name" : "FLAC__StreamDecoderPrivate *",
   "referenced_type" : "type-384",
   "self_type" : "type-383",
   "size" : 8,
   "source_file" : "/external/flac/include/FLAC/stream_decoder.h"
  },
  {
   "alignment" : 8,
   "linker_set_key" : "FLAC__StreamDecoderPrivate *",
   "name" : "FLAC__StreamDecoderPrivate *",
   "referenced_type" : "type-407",
   "self_type" : "type-406",
   "size" : 8,
   "source_file" : "/external/flac/include/FLAC/stream_decoder.h"
  },
  {
   "alignment" : 8,
   "linker_set_key" : "FLAC__StreamDecoderPrivate *",
   "name" : "FLAC__StreamDecoderPrivate *",
   "referenced_type" : "type-51",
   "self_type" : "type-50",
   "size" : 8,
   "source_file" : "/external/flac/include/FLAC/stream_decoder.h"
  },
  {
   "alignment" : 8,
   "linker_set_key" : "FLAC__StreamDecoderPrivate *",
   "name" : "FLAC__StreamDecoderPrivate *",
   "referenced_type" : "type-78",
   "self_type" : "type-77",
   "size" : 8,
   "source_file" : "/external/flac/include/FLAC/stream_decoder.h"
  },
  {
   "alignment" : 8,
   "linker_set_key" : "FLAC__StreamDecoderProtected *",
   "name" : "FLAC__StreamDecoderProtected *",
   "referenced_type" : "type-142",
   "self_type" : "type-141",
   "size" : 8,
   "source_file" : "/external/flac/include/FLAC/stream_decoder.h"
  },
  {
   "alignment" : 8,
   "linker_set_key" : "FLAC__StreamDecoderProtected *",
   "name" : "FLAC__StreamDecoderProtected *",
   "referenced_type" : "type-182",
   "self_type" : "type-181",
   "size" : 8,
   "source_file" : "/external/flac/include/FLAC/stream_decoder.h"
  },
  {
   "alignment" : 8,
   "linker_set_key" : "FLAC__StreamDecoderProtected *",
   "name" : "FLAC__StreamDecoderProtected *",
   "referenced_type" : "type-207",
   "self_type" : "type-206",
   "size" : 8,
   "source_file" : "/external/flac/include/FLAC/stream_decoder.h"
  },
  {
   "alignment" : 8,
   "linker_set_key" : "FLAC__StreamDecoderProtected *",
   "name" : "FLAC__StreamDecoderProtected *",
   "referenced_type" : "type-230",
   "self_type" : "type-229",
   "size" : 8,
   "source_file" : "/external/flac/include/FLAC/stream_decoder.h"
  },
  {
   "alignment" : 8,
   "linker_set_key" : "FLAC__StreamDecoderProtected *",
   "name" : "FLAC__StreamDecoderProtected *",
   "referenced_type" : "type-267",
   "self_type" : "type-266",
   "size" : 8,
   "source_file" : "/external/flac/include/FLAC/stream_decoder.h"
  },
  {
   "alignment" : 8,
   "linker_set_key" : "FLAC__StreamDecoderProtected *",
   "name" : "FLAC__StreamDecoderProtected *",
   "referenced_type" : "type-292",
   "self_type" : "type-291",
   "size" : 8,
   "source_file" : "/external/flac/include/FLAC/stream_decoder.h"
  },
  {
   "alignment" : 8,
   "linker_set_key" : "FLAC__StreamDecoderProtected *",
   "name" : "FLAC__StreamDecoderProtected *",
   "referenced_type" : "type-316",
   "self_type" : "type-315",
   "size" : 8,
   "source_file" : "/external/flac/include/FLAC/stream_decoder.h"
  },
  {
   "alignment" : 8,
   "linker_set_key" : "FLAC__StreamDecoderProtected *",
   "name" : "FLAC__StreamDecoderProtected *",
   "referenced_type" : "type-339",
   "self_type" : "type-338",
   "size" : 8,
   "source_file" : "/external/flac/include/FLAC/stream_decoder.h"
  },
  {
   "alignment" : 8,
   "linker_set_key" : "FLAC__StreamDecoderProtected *",
   "name" : "FLAC__StreamDecoderProtected *",
   "referenced_type" : "type-359",
   "self_type" : "type-358",
   "size" : 8,
   "source_file" : "/external/flac/include/FLAC/stream_decoder.h"
  },
  {
   "alignment" : 8,
   "linker_set_key" : "FLAC__StreamDecoderProtected *",
   "name" : "FLAC__StreamDecoderProtected *",
   "referenced_type" : "type-382",
   "self_type" : "type-381",
   "size" : 8,
   "source_file" : "/external/flac/include/FLAC/stream_decoder.h"
  },
  {
   "alignment" : 8,
   "linker_set_key" : "FLAC__StreamDecoderProtected *",
   "name" : "FLAC__StreamDecoderProtected *",
   "referenced_type" : "type-405",
   "self_type" : "type-404",
   "size" : 8,
   "source_file" : "/external/flac/include/FLAC/stream_decoder.h"
  },
  {
   "alignment" : 8,
   "linker_set_key" : "FLAC__StreamDecoderProtected *",
   "name" : "FLAC__StreamDecoderProtected *",
   "referenced_type" : "type-49",
   "self_type" : "type-48",
   "size" : 8,
   "source_file" : "/external/flac/include/FLAC/stream_decoder.h"
  },
  {
   "alignment" : 8,
   "linker_set_key" : "FLAC__StreamDecoderProtected *",
   "name" : "FLAC__StreamDecoderProtected *",
   "referenced_type" : "type-76",
   "self_type" : "type-75",
   "size" : 8,
   "source_file" : "/external/flac/include/FLAC/stream_decoder.h"
  },
  {
   "alignment" : 8,
   "linker_set_key" : "FLAC__StreamDecoderReadStatus (*)(const FLAC__StreamDecoder *, unsigned char *, unsigned long *, void *)",
   "name" : "FLAC__StreamDecoderReadStatus (*)(const FLAC__StreamDecoder *, unsigned char *, unsigned long *, void *)",
   "referenced_type" : "type-80",
   "self_type" : "type-83",
   "size" : 8,
   "source_file" : "/external/flac/include/FLAC/stream_decoder.h"
  },
  {
   "alignment" : 8,
   "linker_set_key" : "FLAC__StreamDecoderSeekStatus (*)(const FLAC__StreamDecoder *, unsigned long, void *)",
   "name" : "FLAC__StreamDecoderSeekStatus (*)(const FLAC__StreamDecoder *, unsigned long, void *)",
   "referenced_type" : "type-84",
   "self_type" : "type-86",
   "size" : 8,
   "source_file" : "/external/flac/include/FLAC/stream_decoder.h"
  },
  {
   "alignment" : 8,
   "linker_set_key" : "FLAC__StreamDecoderTellStatus (*)(const FLAC__StreamDecoder *, unsigned long *, void *)",
   "name" : "FLAC__StreamDecoderTellStatus (*)(const FLAC__StreamDecoder *, unsigned long *, void *)",
   "referenced_type" : "type-87",
   "self_type" : "type-89",
   "size" : 8,
   "source_file" : "/external/flac/include/FLAC/stream_decoder.h"
  },
  {
   "alignment" : 8,
   "linker_set_key" : "FLAC__StreamDecoderWriteStatus (*)(const FLAC__StreamDecoder *, const FLAC__Frame *, const int *const *, void *)",
   "name" : "FLAC__StreamDecoderWriteStatus (*)(const FLAC__StreamDecoder *, const FLAC__Frame *, const int *const *, void *)",
   "referenced_type" : "type-97",
   "self_type" : "type-113",
   "size" : 8,
   "source_file" : "/external/flac/include/FLAC/stream_decoder.h"
  },
  {
   "alignment" : 8,
   "linker_set_key" : "FLAC__StreamEncoder *",
   "name" : "FLAC__StreamEncoder *",
   "referenced_type" : "type-119",
   "self_type" : "type-147",
   "size" : 8,
   "source_file" : "/external/flac/include/FLAC/stream_encoder.h"
  },
  {
   "alignment" : 8,
   "linker_set_key" : "FLAC__StreamEncoderPrivate *",
   "name" : "FLAC__StreamEncoderPrivate *",
   "referenced_type" : "type-123",
   "self_type" : "type-122",
   "size" : 8,
   "source_file" : "/external/flac/include/FLAC/stream_encoder.h"
  },
  {
   "alignment" : 8,
   "linker_set_key" : "FLAC__StreamEncoderPrivate *",
   "name" : "FLAC__StreamEncoderPrivate *",
   "referenced_type" : "type-198",
   "self_type" : "type-197",
   "size" : 8,
   "source_file" : "/external/flac/include/FLAC/stream_encoder.h"
  },
  {
   "alignment" : 8,
   "linker_set_key" : "FLAC__StreamEncoderPrivate *",
   "name" : "FLAC__StreamEncoderPrivate *",
   "referenced_type" : "type-283",
   "self_type" : "type-282",
   "size" : 8,
   "source_file" : "/external/flac/include/FLAC/stream_encoder.h"
  },
  {
   "alignment" : 8,
   "linker_set_key" : "FLAC__StreamEncoderPrivate *",
   "name" : "FLAC__StreamEncoderPrivate *",
   "referenced_type" : "type-373",
   "self_type" : "type-372",
   "size" : 8,
   "source_file" : "/external/flac/include/FLAC/stream_encoder.h"
  },
  {
   "alignment" : 8,
   "linker_set_key" : "FLAC__StreamEncoderProtected *",
   "name" : "FLAC__StreamEncoderProtected *",
   "referenced_type" : "type-121",
   "self_type" : "type-120",
   "size" : 8,
   "source_file" : "/external/flac/include/FLAC/stream_encoder.h"
  },
  {
   "alignment" : 8,
   "linker_set_key" : "FLAC__StreamEncoderProtected *",
   "name" : "FLAC__StreamEncoderProtected *",
   "referenced_type" : "type-195",
   "self_type" : "type-194",
   "size" : 8,
   "source_file" : "/external/flac/include/FLAC/stream_encoder.h"
  },
  {
   "alignment" : 8,
   "linker_set_key" : "FLAC__StreamEncoderProtected *",
   "name" : "FLAC__StreamEncoderProtected *",
   "referenced_type" : "type-280",
   "self_type" : "type-279",
   "size" : 8,
   "source_file" : "/external/flac/include/FLAC/stream_encoder.h"
  },
  {
   "alignment" : 8,
   "linker_set_key" : "FLAC__StreamEncoderProtected *",
   "name" : "FLAC__StreamEncoderProtected *",
   "referenced_type" : "type-371",
   "self_type" : "type-370",
   "size" : 8,
   "source_file" : "/external/flac/include/FLAC/stream_encoder.h"
  },
  {
   "alignment" : 8,
   "linker_set_key" : "FLAC__StreamEncoderReadStatus (*)(const FLAC__StreamEncoder *, unsigned char *, unsigned long *, void *)",
   "name" : "FLAC__StreamEncoderReadStatus (*)(const FLAC__StreamEncoder *, unsigned char *, unsigned long *, void *)",
   "referenced_type" : "type-134",
   "self_type" : "type-136",
   "size" : 8,
   "source_file" : "/external/flac/include/FLAC/stream_encoder.h"
  },
  {
   "alignment" : 8,
   "linker_set_key" : "FLAC__StreamEncoderSeekStatus (*)(const FLAC__StreamEncoder *, unsigned long, void *)",
   "name" : "FLAC__StreamEncoderSeekStatus (*)(const FLAC__StreamEncoder *, unsigned long, void *)",
   "referenced_type" : "type-126",
   "self_type" : "type-128",
   "size" : 8,
   "source_file" : "/external/flac/include/FLAC/stream_encoder.h"
  },
  {
   "alignment" : 8,
   "linker_set_key" : "FLAC__StreamEncoderTellStatus (*)(const FLAC__StreamEncoder *, unsigned long *, void *)",
   "name" : "FLAC__StreamEncoderTellStatus (*)(const FLAC__StreamEncoder *, unsigned long *, void *)",
   "referenced_type" : "type-129",
   "self_type" : "type-131",
   "size" : 8,
   "source_file" : "/external/flac/include/FLAC/stream_encoder.h"
  },
  {
   "alignment" : 8,
   "linker_set_key" : "FLAC__StreamEncoderWriteStatus (*)(const FLAC__StreamEncoder *, const unsigned char *, unsigned long, unsigned int, unsigned int, void *)",
   "name" : "FLAC__StreamEncoderWriteStatus (*)(const FLAC__StreamEncoder *, const unsigned char *, unsigned long, unsigned int, unsigned int, void *)",
   "referenced_type" : "type-115",
   "self_type" : "type-114",
   "size" : 8,
   "source_file" : "/external/flac/include/FLAC/stream_encoder.h"
  },
  {
   "alignment" : 8,
   "linker_set_key" : "FLAC__StreamMetadata *",
   "name" : "FLAC__StreamMetadata *",
   "referenced_type" : "type-54",
   "self_type" : "type-148",
   "size" : 8,
   "source_file" : "/external/flac/include/FLAC/stream_encoder.h"
  },
  {
   "alignment" : 8,
   "linker_set_key" : "FLAC__StreamMetadata **",
   "name" : "FLAC__StreamMetadata **",
   "referenced_type" : "type-148",
   "self_type" : "type-149",
   "size" : 8,
   "source_file" : "/external/flac/include/FLAC/stream_encoder.h"
  },
  {
   "alignment" : 8,
   "linker_set_key" : "FLAC__StreamMetadata_CueSheet_Index *",
   "name" : "FLAC__StreamMetadata_CueSheet_Index *",
   "referenced_type" : "type-27",
   "self_type" : "type-26",
   "size" : 8,
   "source_file" : "/external/flac/include/FLAC/format.h"
  },
  {
   "alignment" : 8,
   "linker_set_key" : "FLAC__StreamMetadata_CueSheet_Track *",
   "name" : "FLAC__StreamMetadata_CueSheet_Track *",
   "referenced_type" : "type-23",
   "self_type" : "type-22",
   "size" : 8,
   "source_file" : "/external/flac/include/FLAC/format.h"
  },
  {
   "alignment" : 8,
   "linker_set_key" : "FLAC__StreamMetadata_SeekPoint *",
   "name" : "FLAC__StreamMetadata_SeekPoint *",
   "referenced_type" : "type-14",
   "self_type" : "type-13",
   "size" : 8,
   "source_file" : "/external/flac/include/FLAC/format.h"
  },
  {
   "alignment" : 8,
   "linker_set_key" : "FLAC__StreamMetadata_SeekTable *",
   "name" : "FLAC__StreamMetadata_SeekTable *",
   "referenced_type" : "type-12",
   "self_type" : "type-17",
   "size" : 8,
   "source_file" : "/external/flac/include/FLAC/format.h"
  },
  {
   "alignment" : 8,
   "linker_set_key" : "FLAC__StreamMetadata_VorbisComment_Entry *",
   "name" : "FLAC__StreamMetadata_VorbisComment_Entry *",
   "referenced_type" : "type-63",
   "self_type" : "type-64",
   "size" : 8,
   "source_file" : "/external/flac/include/FLAC/format.h"
  },
  {
   "alignment" : 8,
   "linker_set_key" : "__sFILE *",
   "name" : "__sFILE *",
   "referenced_type" : "type-138",
   "self_type" : "type-137",
   "size" : 8,
   "source_file" : "/external/flac/include/FLAC/stream_encoder.h"
  },
  {
   "alignment" : 8,
   "linker_set_key" : "__sFILE *",
   "name" : "__sFILE *",
   "referenced_type" : "type-179",
   "self_type" : "type-178",
   "size" : 8,
   "source_file" : "/external/flac/include/FLAC/stream_decoder.h"
  },
  {
   "alignment" : 8,
   "linker_set_key" : "__sFILE *",
   "name" : "__sFILE *",
   "referenced_type" : "type-204",
   "self_type" : "type-203",
   "size" : 8,
   "source_file" : "/external/flac/include/FLAC/stream_encoder.h"
  },
  {
   "alignment" : 8,
   "linker_set_key" : "__sFILE *",
   "name" : "__sFILE *",
   "referenced_type" : "type-264",
   "self_type" : "type-263",
   "size" : 8,
   "source_file" : "/external/flac/include/FLAC/stream_decoder.h"
  },
  {
   "alignment" : 8,
   "linker_set_key" : "__sFILE *",
   "name" : "__sFILE *",
   "referenced_type" : "type-289",
   "self_type" : "type-288",
   "size" : 8,
   "source_file" : "/external/flac/include/FLAC/stream_encoder.h"
  },
  {
   "alignment" : 8,
   "linker_set_key" : "__sFILE *",
   "name" : "__sFILE *",
   "referenced_type" : "type-357",
   "self_type" : "type-356",
   "size" : 8,
   "source_file" : "/external/flac/include/FLAC/stream_decoder.h"
  },
  {
   "alignment" : 8,
   "linker_set_key" : "__sFILE *",
   "name" : "__sFILE *",
   "referenced_type" : "type-379",
   "self_type" : "type-378",
   "size" : 8,
   "source_file" : "/external/flac/include/FLAC/stream_encoder.h"
  },
  {
   "alignment" : 8,
   "linker_set_key" : "__sFILE *",
   "name" : "__sFILE *",
   "referenced_type" : "type-72",
   "self_type" : "type-71",
   "size" : 8,
   "source_file" : "/external/flac/include/FLAC/stream_decoder.h"
  },
  {
   "alignment" : 8,
   "linker_set_key" : "android::FLACDecoder *",
   "name" : "android::FLACDecoder *",
   "referenced_type" : "type-156",
   "self_type" : "type-161",
   "size" : 8,
   "source_file" : "/frameworks/av/media/libstagefright/flac/dec/FLACDecoder.h"
  },
  {
   "alignment" : 8,
   "linker_set_key" : "char *",
   "name" : "char *",
   "referenced_type" : "type-21",
   "self_type" : "type-35",
   "size" : 8,
   "source_file" : "/external/flac/include/FLAC/format.h"
  },
  {
   "alignment" : 8,
   "linker_set_key" : "const FLAC__EntropyCodingMethod_PartitionedRiceContents *",
   "name" : "const FLAC__EntropyCodingMethod_PartitionedRiceContents *",
   "referenced_type" : "type-6",
   "self_type" : "type-5",
   "size" : 8,
   "source_file" : "/external/flac/include/FLAC/format.h"
  },
  {
   "alignment" : 8,
   "linker_set_key" : "const FLAC__Frame *",
   "name" : "const FLAC__Frame *",
   "referenced_type" : "type-100",
   "self_type" : "type-99",
   "size" : 8,
   "source_file" : "/frameworks/av/media/libstagefright/flac/dec/FLACDecoder.h"
  },
  {
   "alignment" : 8,
   "linker_set_key" : "const FLAC__StreamDecoder *",
   "name" : "const FLAC__StreamDecoder *",
   "referenced_type" : "type-46",
   "self_type" : "type-45",
   "size" : 8,
   "source_file" : "/external/flac/include/FLAC/stream_decoder.h"
  },
  {
   "alignment" : 8,
   "linker_set_key" : "const FLAC__StreamEncoder *",
   "name" : "const FLAC__StreamEncoder *",
   "referenced_type" : "type-118",
   "self_type" : "type-117",
   "size" : 8,
   "source_file" : "/external/flac/include/FLAC/stream_encoder.h"
  },
  {
   "alignment" : 8,
   "linker_set_key" : "const FLAC__StreamMetadata *",
   "name" : "const FLAC__StreamMetadata *",
   "referenced_type" : "type-53",
   "self_type" : "type-52",
   "size" : 8,
   "source_file" : "/frameworks/av/media/libstagefright/flac/dec/FLACDecoder.h"
  },
  {
   "alignment" : 8,
   "linker_set_key" : "const FLAC__StreamMetadata_CueSheet *",
   "name" : "const FLAC__StreamMetadata_CueSheet *",
   "referenced_type" : "type-18",
   "self_type" : "type-28",
   "size" : 8,
   "source_file" : "/external/flac/include/FLAC/format.h"
  },
  {
   "alignment" : 8,
   "linker_set_key" : "const FLAC__StreamMetadata_Picture *",
   "name" : "const FLAC__StreamMetadata_Picture *",
   "referenced_type" : "type-32",
   "self_type" : "type-37",
   "size" : 8,
   "source_file" : "/external/flac/include/FLAC/format.h"
  },
  {
   "alignment" : 8,
   "linker_set_key" : "const FLAC__StreamMetadata_SeekTable *",
   "name" : "const FLAC__StreamMetadata_SeekTable *",
   "referenced_type" : "type-11",
   "self_type" : "type-16",
   "size" : 8,
   "source_file" : "/external/flac/include/FLAC/format.h"
  },
  {
   "alignment" : 8,
   "linker_set_key" : "const android::FLACDecoder *",
   "name" : "const android::FLACDecoder *",
   "referenced_type" : "type-162",
   "self_type" : "type-163",
   "size" : 8,
   "source_file" : "/frameworks/av/media/libstagefright/flac/dec/FLACDecoder.h"
  },
  {
   "alignment" : 8,
   "linker_set_key" : "const char *",
   "name" : "const char *",
   "referenced_type" : "type-31",
   "self_type" : "type-30",
   "size" : 8,
   "source_file" : "/external/flac/include/FLAC/format.h"
  },
  {
   "alignment" : 8,
   "linker_set_key" : "const char **",
   "name" : "const char **",
   "referenced_type" : "type-30",
   "self_type" : "type-29",
   "size" : 8,
   "source_file" : "/external/flac/include/FLAC/format.h"
  },
  {
   "alignment" : 8,
   "linker_set_key" : "const int *",
   "name" : "const int *",
   "referenced_type" : "type-42",
   "self_type" : "type-41",
   "size" : 8,
   "source_file" : "/external/flac/include/FLAC/format.h"
  },
  {
   "alignment" : 8,
   "linker_set_key" : "const int *const *",
   "name" : "const int *const *",
   "referenced_type" : "type-112",
   "self_type" : "type-111",
   "size" : 8,
   "source_file" : "/frameworks/av/media/libstagefright/flac/dec/FLACDecoder.h"
  },
  {
   "alignment" : 8,
   "linker_set_key" : "const unsigned char *",
   "name" : "const unsigned char *",
   "referenced_type" : "type-125",
   "self_type" : "type-124",
   "size" : 8,
   "source_file" : "/frameworks/av/media/libstagefright/flac/dec/FLACDecoder.h"
  },
  {
   "alignment" : 8,
   "linker_set_key" : "int (*)(const FLAC__StreamDecoder *, void *)",
   "name" : "int (*)(const FLAC__StreamDecoder *, void *)",
   "referenced_type" : "type-93",
   "self_type" : "type-94",
   "size" : 8,
   "source_file" : "/external/flac/include/FLAC/stream_decoder.h"
  },
  {
   "alignment" : 8,
   "linker_set_key" : "int *",
   "name" : "int *",
   "referenced_type" : "type-1",
   "self_type" : "type-150",
   "size" : 8,
   "source_file" : "/external/flac/include/FLAC/stream_encoder.h"
  },
  {
   "alignment" : 8,
   "linker_set_key" : "unsigned char *",
   "name" : "unsigned char *",
   "referenced_type" : "type-24",
   "self_type" : "type-36",
   "size" : 8,
   "source_file" : "/external/flac/include/FLAC/format.h"
  },
  {
   "alignment" : 8,
   "linker_set_key" : "unsigned int *",
   "name" : "unsigned int *",
   "referenced_type" : "type-3",
   "self_type" : "type-2",
   "size" : 8,
   "source_file" : "/external/flac/include/FLAC/format.h"
  },
  {
   "alignment" : 8,
   "linker_set_key" : "unsigned long *",
   "name" : "unsigned long *",
   "referenced_type" : "type-15",
   "self_type" : "type-82",
   "size" : 8,
   "source_file" : "/frameworks/av/media/libstagefright/flac/dec/FLACDecoder.h"
  },
  {
   "alignment" : 8,
   "linker_set_key" : "void (*)(const FLAC__StreamDecoder *, FLAC__StreamDecoderErrorStatus, void *)",
   "name" : "void (*)(const FLAC__StreamDecoder *, FLAC__StreamDecoderErrorStatus, void *)",
   "referenced_type" : "type-68",
   "self_type" : "type-70",
   "size" : 8,
   "source_file" : "/external/flac/include/FLAC/stream_decoder.h"
  },
  {
   "alignment" : 8,
   "linker_set_key" : "void (*)(const FLAC__StreamDecoder *, const FLAC__StreamMetadata *, void *)",
   "name" : "void (*)(const FLAC__StreamDecoder *, const FLAC__StreamMetadata *, void *)",
   "referenced_type" : "type-43",
   "self_type" : "type-67",
   "size" : 8,
   "source_file" : "/external/flac/include/FLAC/stream_decoder.h"
  },
  {
   "alignment" : 8,
   "linker_set_key" : "void (*)(const FLAC__StreamEncoder *, const FLAC__StreamMetadata *, void *)",
   "name" : "void (*)(const FLAC__StreamEncoder *, const FLAC__StreamMetadata *, void *)",
   "referenced_type" : "type-132",
   "self_type" : "type-133",
   "size" : 8,
   "source_file" : "/external/flac/include/FLAC/stream_encoder.h"
  },
  {
   "alignment" : 8,
   "linker_set_key" : "void (*)(const FLAC__StreamEncoder *, unsigned long, unsigned long, unsigned int, unsigned int, void *)",
   "name" : "void (*)(const FLAC__StreamEncoder *, unsigned long, unsigned long, unsigned int, unsigned int, void *)",
   "referenced_type" : "type-139",
   "self_type" : "type-140",
   "size" : 8,
   "source_file" : "/external/flac/include/FLAC/stream_encoder.h"
  },
  {
   "alignment" : 8,
   "linker_set_key" : "void *",
   "name" : "void *",
   "referenced_type" : "type-44",
   "self_type" : "type-66",
   "size" : 8,
   "source_file" : "/frameworks/av/media/libstagefright/flac/dec/FLACDecoder.h"
  }
 ],
 "qualified_types" :
 [
  {
   "alignment" : 8,
   "is_const" : true,
   "linker_set_key" : "const FLAC__EntropyCodingMethod_PartitionedRiceContents",
   "name" : "const FLAC__EntropyCodingMethod_PartitionedRiceContents",
   "referenced_type" : "type-7",
   "self_type" : "type-6",
   "size" : 24,
   "source_file" : "/external/flac/include/FLAC/format.h"
  },
  {
   "alignment" : 8,
   "is_const" : true,
   "linker_set_key" : "const FLAC__Frame",
   "name" : "const FLAC__Frame",
   "referenced_type" : "type-101",
   "self_type" : "type-100",
   "size" : 2608,
   "source_file" : "/frameworks/av/media/libstagefright/flac/dec/FLACDecoder.h"
  },
  {
   "alignment" : 8,
   "is_const" : true,
   "linker_set_key" : "const FLAC__StreamDecoder",
   "name" : "const FLAC__StreamDecoder",
   "referenced_type" : "type-47",
   "self_type" : "type-46",
   "size" : 16,
   "source_file" : "/external/flac/include/FLAC/stream_decoder.h"
  },
  {
   "alignment" : 8,
   "is_const" : true,
   "linker_set_key" : "const FLAC__StreamEncoder",
   "name" : "const FLAC__StreamEncoder",
   "referenced_type" : "type-119",
   "self_type" : "type-118",
   "size" : 16,
   "source_file" : "/external/flac/include/FLAC/stream_encoder.h"
  },
  {
   "alignment" : 8,
   "is_const" : true,
   "linker_set_key" : "const FLAC__StreamMetadata",
   "name" : "const FLAC__StreamMetadata",
   "referenced_type" : "type-54",
   "self_type" : "type-53",
   "size" : 176,
   "source_file" : "/frameworks/av/media/libstagefright/flac/dec/FLACDecoder.h"
  },
  {
   "alignment" : 8,
   "is_const" : true,
   "linker_set_key" : "const FLAC__StreamMetadata_CueSheet",
   "name" : "const FLAC__StreamMetadata_CueSheet",
   "referenced_type" : "type-19",
   "self_type" : "type-18",
   "size" : 160,
   "source_file" : "/external/flac/include/FLAC/format.h"
  },
  {
   "alignment" : 8,
   "is_const" : true,
   "linker_set_key" : "const FLAC__StreamMetadata_Picture",
   "name" : "const FLAC__StreamMetadata_Picture",
   "referenced_type" : "type-33",
   "self_type" : "type-32",
   "size" : 56,
   "source_file" : "/external/flac/include/FLAC/format.h"
  },
  {
   "alignment" : 8,
   "is_const" : true,
   "linker_set_key" : "const FLAC__StreamMetadata_SeekTable",
   "name" : "const FLAC__StreamMetadata_SeekTable",
   "referenced_type" : "type-12",
   "self_type" : "type-11",
   "size" : 16,
   "source_file" : "/external/flac/include/FLAC/format.h"
  },
  {
   "alignment" : 8,
   "is_const" : true,
   "linker_set_key" : "const android::FLACDecoder",
   "name" : "const android::FLACDecoder",
   "referenced_type" : "type-156",
   "self_type" : "type-162",
   "size" : 224,
   "source_file" : "/frameworks/av/media/libstagefright/flac/dec/FLACDecoder.h"
  },
  {
   "alignment" : 1,
   "is_const" : true,
   "linker_set_key" : "const char",
   "name" : "const char",
   "referenced_type" : "type-21",
   "self_type" : "type-31",
   "size" : 1,
   "source_file" : "/external/flac/include/FLAC/format.h"
  },
  {
   "is_const" : true,
   "linker_set_key" : "const char *const[]",
   "name" : "const char *const[]",
   "referenced_type" : "type-151",
   "self_type" : "type-160",
   "source_file" : "/external/flac/include/FLAC/format.h"
  },
  {
   "alignment" : 4,
   "is_const" : true,
   "linker_set_key" : "const int",
   "name" : "const int",
   "referenced_type" : "type-1",
   "self_type" : "type-42",
   "size" : 4,
   "source_file" : "/external/flac/include/FLAC/format.h"
  },
  {
   "alignment" : 8,
   "is_const" : true,
   "linker_set_key" : "const int *const",
   "name" : "const int *const",
   "referenced_type" : "type-41",
   "self_type" : "type-112",
   "size" : 8,
   "source_file" : "/frameworks/av/media/libstagefright/flac/dec/FLACDecoder.h"
  },
  {
   "alignment" : 1,
   "is_const" : true,
   "linker_set_key" : "const unsigned char",
   "name" : "const unsigned char",
   "referenced_type" : "type-24",
   "self_type" : "type-125",
   "size" : 1,
   "source_file" : "/frameworks/av/media/libstagefright/flac/dec/FLACDecoder.h"
  },
  {
   "alignment" : 4,
   "is_const" : true,
   "linker_set_key" : "const unsigned int",
   "name" : "const unsigned int",
   "referenced_type" : "type-3",
   "self_type" : "type-164",
   "size" : 4,
   "source_file" : "/external/flac/include/FLAC/format.h"
  },
  {
   "alignment" : 8,
   "is_const" : true,
   "linker_set_key" : "const unsigned long",
   "name" : "const unsigned long",
   "referenced_type" : "type-15",
   "self_type" : "type-152",
   "size" : 8,
   "source_file" : "/external/flac/include/FLAC/format.h"
  },
  {
   "alignment" : 1,
   "is_const" : true,
   "linker_set_key" : "unsigned char const[4]",
   "name" : "unsigned char const[4]",
   "referenced_type" : "type-61",
   "self_type" : "type-153",
   "size" : 4,
   "source_file" : "/external/flac/include/FLAC/format.h"
  }
 ],
 "record_types" :
 [
  {
   "alignment" : 8,
   "fields" :
   [
    {
     "field_name" : "type",
     "referenced_type" : "type-9"
    },
    {
     "field_name" : "data",
     "field_offset" : 64,
     "referenced_type" : "type-10"
    }
   ],
   "linker_set_key" : "FLAC__EntropyCodingMethod",
   "name" : "FLAC__EntropyCodingMethod",
   "referenced_type" : "type-8",
   "self_type" : "type-8",
   "size" : 24,
   "source_file" : "/external/flac/include/FLAC/format.h",
   "unique_id" : "FLAC__EntropyCodingMethod"
  },
  {
   "alignment" : 8,
   "fields" :
   [
    {
     "field_name" : "partitioned_rice",
     "referenced_type" : "type-4"
    }
   ],
   "is_anonymous" : true,
   "linker_set_key" : "FLAC__EntropyCodingMethod::(anonymous union at external/flac/include/FLAC/format.h:257:2) at external/flac/include/FLAC/format.h:257:2",
   "name" : "FLAC__EntropyCodingMethod::(anonymous union at external/flac/include/FLAC/format.h:257:2) at external/flac/include/FLAC/format.h:257:2",
   "record_kind" : "union",
   "referenced_type" : "type-10",
   "self_type" : "type-10",
   "size" : 16,
   "source_file" : "/external/flac/include/FLAC/format.h",
   "unique_id" : "FLAC__EntropyCodingMethod::(anonymous union at external/flac/include/FLAC/format.h:257:2)"
  },
  {
   "alignment" : 8,
   "fields" :
   [
    {
     "field_name" : "order",
     "referenced_type" : "type-3"
    },
    {
     "field_name" : "contents",
     "field_offset" : 64,
     "referenced_type" : "type-5"
    }
   ],
   "linker_set_key" : "FLAC__EntropyCodingMethod_PartitionedRice",
   "name" : "FLAC__EntropyCodingMethod_PartitionedRice",
   "referenced_type" : "type-4",
   "self_type" : "type-4",
   "size" : 16,
   "source_file" : "/external/flac/include/FLAC/format.h",
   "unique_id" : "FLAC__EntropyCodingMethod_PartitionedRice"
  },
  {
   "alignment" : 8,
   "fields" :
   [
    {
     "field_name" : "parameters",
     "referenced_type" : "type-2"
    },
    {
     "field_name" : "raw_bits",
     "field_offset" : 64,
     "referenced_type" : "type-2"
    },
    {
     "field_name" : "capacity_by_order",
     "field_offset" : 128,
     "referenced_type" : "type-3"
    }
   ],
   "linker_set_key" : "FLAC__EntropyCodingMethod_PartitionedRiceContents",
   "name" : "FLAC__EntropyCodingMethod_PartitionedRiceContents",
   "referenced_type" : "type-7",
   "self_type" : "type-7",
   "size" : 24,
   "source_file" : "/external/flac/include/FLAC/format.h",
   "unique_id" : "FLAC__EntropyCodingMethod_PartitionedRiceContents"
  },
  {
   "alignment" : 8,
   "fields" :
   [
    {
     "field_name" : "header",
     "referenced_type" : "type-102"
    },
    {
     "field_name" : "subframes",
     "field_offset" : 320,
     "referenced_type" : "type-106"
    },
    {
     "field_name" : "footer",
     "field_offset" : 20800,
     "referenced_type" : "type-109"
    }
   ],
   "linker_set_key" : "FLAC__Frame",
   "name" : "FLAC__Frame",
   "referenced_type" : "type-101",
   "self_type" : "type-101",
   "size" : 2608,
   "source_file" : "/external/flac/include/FLAC/format.h",
   "unique_id" : "FLAC__Frame"
  },
  {
   "alignment" : 2,
   "fields" :
   [
    {
     "field_name" : "crc",
     "referenced_type" : "type-110"
    }
   ],
   "linker_set_key" : "FLAC__FrameFooter",
   "name" : "FLAC__FrameFooter",
   "referenced_type" : "type-109",
   "self_type" : "type-109",
   "size" : 2,
   "source_file" : "/external/flac/include/FLAC/format.h",
   "unique_id" : "FLAC__FrameFooter"
  },
  {
   "alignment" : 8,
   "fields" :
   [
    {
     "field_name" : "blocksize",
     "referenced_type" : "type-3"
    },
    {
     "field_name" : "sample_rate",
     "field_offset" : 32,
     "referenced_type" : "type-3"
    },
    {
     "field_name" : "channels",
     "field_offset" : 64,
     "referenced_type" : "type-3"
    },
    {
     "field_name" : "channel_assignment",
     "field_offset" : 96,
     "referenced_type" : "type-103"
    },
    {
     "field_name" : "bits_per_sample",
     "field_offset" : 128,
     "referenced_type" : "type-3"
    },
    {
     "field_name" : "number_type",
     "field_offset" : 160,
     "referenced_type" : "type-104"
    },
    {
     "field_name" : "number",
     "field_offset" : 192,
     "referenced_type" : "type-105"
    },
    {
     "field_name" : "crc",
     "field_offset" : 256,
     "referenced_type" : "type-24"
    }
   ],
   "linker_set_key" : "FLAC__FrameHeader",
   "name" : "FLAC__FrameHeader",
   "referenced_type" : "type-102",
   "self_type" : "type-102",
   "size" : 40,
   "source_file" : "/external/flac/include/FLAC/format.h",
   "unique_id" : "FLAC__FrameHeader"
  },
  {
   "alignment" : 8,
   "fields" :
   [
    {
     "field_name" : "frame_number",
     "referenced_type" : "type-3"
    },
    {
     "field_name" : "sample_number",
     "referenced_type" : "type-15"
    }
   ],
   "is_anonymous" : true,
   "linker_set_key" : "FLAC__FrameHeader::(anonymous union at external/flac/include/FLAC/format.h:432:2) at external/flac/include/FLAC/format.h:432:2",
   "name" : "FLAC__FrameHeader::(anonymous union at external/flac/include/FLAC/format.h:432:2) at external/flac/include/FLAC/format.h:432:2",
   "record_kind" : "union",
   "referenced_type" : "type-105",
   "self_type" : "type-105",
   "size" : 8,
   "source_file" : "/external/flac/include/FLAC/format.h",
   "unique_id" : "FLAC__FrameHeader::(anonymous union at external/flac/include/FLAC/format.h:432:2)"
  },
  {
   "alignment" : 8,
   "fields" :
   [
    {
     "field_name" : "protected_",
     "referenced_type" : "type-48"
    },
    {
     "field_name" : "private_",
     "field_offset" : 64,
     "referenced_type" : "type-50"
    }
   ],
   "linker_set_key" : "FLAC__StreamDecoder",
   "name" : "FLAC__StreamDecoder",
   "referenced_type" : "type-47",
   "self_type" : "type-47",
   "size" : 16,
   "source_file" : "/external/flac/include/FLAC/stream_decoder.h",
   "unique_id" : "FLAC__StreamDecoder"
  },
  {
   "alignment" : 8,
   "fields" :
   [
    {
     "field_name" : "protected_",
     "referenced_type" : "type-120"
    },
    {
     "field_name" : "private_",
     "field_offset" : 64,
     "referenced_type" : "type-122"
    }
   ],
   "linker_set_key" : "FLAC__StreamEncoder",
   "name" : "FLAC__StreamEncoder",
   "referenced_type" : "type-119",
   "self_type" : "type-119",
   "size" : 16,
   "source_file" : "/external/flac/include/FLAC/stream_encoder.h",
   "unique_id" : "FLAC__StreamEncoder"
  },
  {
   "alignment" : 8,
   "fields" :
   [
    {
     "field_name" : "type",
     "referenced_type" : "type-55"
    },
    {
     "field_name" : "is_last",
     "field_offset" : 32,
     "referenced_type" : "type-1"
    },
    {
     "field_name" : "length",
     "field_offset" : 64,
     "referenced_type" : "type-3"
    },
    {
     "field_name" : "data",
     "field_offset" : 128,
     "referenced_type" : "type-56"
    }
   ],
   "linker_set_key" : "FLAC__StreamMetadata",
   "name" : "FLAC__StreamMetadata",
   "referenced_type" : "type-54",
   "self_type" : "type-54",
   "size" : 176,
   "source_file" : "/external/flac/include/FLAC/format.h",
   "unique_id" : "FLAC__StreamMetadata"
  },
  {
   "alignment" : 8,
   "fields" :
   [
    {
     "field_name" : "stream_info",
     "referenced_type" : "type-57"
    },
    {
     "field_name" : "padding",
     "referenced_type" : "type-59"
    },
    {
     "field_name" : "application",
     "referenced_type" : "type-60"
    },
    {
     "field_name" : "seek_table",
     "referenced_type" : "type-12"
    },
    {
     "field_name" : "vorbis_comment",
     "referenced_type" : "type-62"
    },
    {
     "field_name" : "cue_sheet",
     "referenced_type" : "type-19"
    },
    {
     "field_name" : "picture",
     "referenced_type" : "type-33"
    },
    {
     "field_name" : "unknown",
     "referenced_type" : "type-65"
    }
   ],
   "is_anonymous" : true,
   "linker_set_key" : "FLAC__StreamMetadata::(anonymous union at external/flac/include/FLAC/format.h:846:2) at external/flac/include/FLAC/format.h:846:2",
   "name" : "FLAC__StreamMetadata::(anonymous union at external/flac/include/FLAC/format.h:846:2) at external/flac/include/FLAC/format.h:846:2",
   "record_kind" : "union",
   "referenced_type" : "type-56",
   "self_type" : "type-56",
   "size" : 160,
   "source_file" : "/external/flac/include/FLAC/format.h",
   "unique_id" : "FLAC__StreamMetadata::(anonymous union at external/flac/include/FLAC/format.h:846:2)"
  },
  {
   "alignment" : 8,
   "fields" :
   [
    {
     "field_name" : "id",
     "referenced_type" : "type-61"
    },
    {
     "field_name" : "data",
     "field_offset" : 64,
     "referenced_type" : "type-36"
    }
   ],
   "linker_set_key" : "FLAC__StreamMetadata_Application",
   "name" : "FLAC__StreamMetadata_Application",
   "referenced_type" : "type-60",
   "self_type" : "type-60",
   "size" : 16,
   "source_file" : "/external/flac/include/FLAC/format.h",
   "unique_id" : "FLAC__StreamMetadata_Application"
  },
  {
   "alignment" : 8,
   "fields" :
   [
    {
     "field_name" : "media_catalog_number",
     "referenced_type" : "type-20"
    },
    {
     "field_name" : "lead_in",
     "field_offset" : 1088,
     "referenced_type" : "type-15"
    },
    {
     "field_name" : "is_cd",
     "field_offset" : 1152,
     "referenced_type" : "type-1"
    },
    {
     "field_name" : "num_tracks",
     "field_offset" : 1184,
     "referenced_type" : "type-3"
    },
    {
     "field_name" : "tracks",
     "field_offset" : 1216,
     "referenced_type" : "type-22"
    }
   ],
   "linker_set_key" : "FLAC__StreamMetadata_CueSheet",
   "name" : "FLAC__StreamMetadata_CueSheet",
   "referenced_type" : "type-19",
   "self_type" : "type-19",
   "size" : 160,
   "source_file" : "/external/flac/include/FLAC/format.h",
   "unique_id" : "FLAC__StreamMetadata_CueSheet"
  },
  {
   "alignment" : 8,
   "fields" :
   [
    {
     "field_name" : "offset",
     "referenced_type" : "type-15"
    },
    {
     "field_name" : "number",
     "field_offset" : 64,
     "referenced_type" : "type-24"
    }
   ],
   "linker_set_key" : "FLAC__StreamMetadata_CueSheet_Index",
   "name" : "FLAC__StreamMetadata_CueSheet_Index",
   "referenced_type" : "type-27",
   "self_type" : "type-27",
   "size" : 16,
   "source_file" : "/external/flac/include/FLAC/format.h",
   "unique_id" : "FLAC__StreamMetadata_CueSheet_Index"
  },
  {
   "alignment" : 8,
   "fields" :
   [
    {
     "field_name" : "offset",
     "referenced_type" : "type-15"
    },
    {
     "field_name" : "number",
     "field_offset" : 64,
     "referenced_type" : "type-24"
    },
    {
     "field_name" : "isrc",
     "field_offset" : 72,
     "referenced_type" : "type-25"
    },
    {
     "field_name" : "type",
     "field_offset" : 176,
     "referenced_type" : "type-3"
    },
    {
     "field_name" : "pre_emphasis",
     "field_offset" : 177,
     "referenced_type" : "type-3"
    },
    {
     "field_name" : "num_indices",
     "field_offset" : 184,
     "referenced_type" : "type-24"
    },
    {
     "field_name" : "indices",
     "field_offset" : 192,
     "referenced_type" : "type-26"
    }
   ],
   "linker_set_key" : "FLAC__StreamMetadata_CueSheet_Track",
   "name" : "FLAC__StreamMetadata_CueSheet_Track",
   "referenced_type" : "type-23",
   "self_type" : "type-23",
   "size" : 32,
   "source_file" : "/external/flac/include/FLAC/format.h",
   "unique_id" : "FLAC__StreamMetadata_CueSheet_Track"
  },
  {
   "alignment" : 4,
   "fields" :
   [
    {
     "field_name" : "dummy",
     "referenced_type" : "type-1"
    }
   ],
   "linker_set_key" : "FLAC__StreamMetadata_Padding",
   "name" : "FLAC__StreamMetadata_Padding",
   "referenced_type" : "type-59",
   "self_type" : "type-59",
   "size" : 4,
   "source_file" : "/external/flac/include/FLAC/format.h",
   "unique_id" : "FLAC__StreamMetadata_Padding"
  },
  {
   "alignment" : 8,
   "fields" :
   [
    {
     "field_name" : "type",
     "referenced_type" : "type-34"
    },
    {
     "field_name" : "mime_type",
     "field_offset" : 64,
     "referenced_type" : "type-35"
    },
    {
     "field_name" : "description",
     "field_offset" : 128,
     "referenced_type" : "type-36"
    },
    {
     "field_name" : "width",
     "field_offset" : 192,
     "referenced_type" : "type-3"
    },
    {
     "field_name" : "height",
     "field_offset" : 224,
     "referenced_type" : "type-3"
    },
    {
     "field_name" : "depth",
     "field_offset" : 256,
     "referenced_type" : "type-3"
    },
    {
     "field_name" : "colors",
     "field_offset" : 288,
     "referenced_type" : "type-3"
    },
    {
     "field_name" : "data_length",
     "field_offset" : 320,
     "referenced_type" : "type-3"
    },
    {
     "field_name" : "data",
     "field_offset" : 384,
     "referenced_type" : "type-36"
    }
   ],
   "linker_set_key" : "FLAC__StreamMetadata_Picture",
   "name" : "FLAC__StreamMetadata_Picture",
   "referenced_type" : "type-33",
   "self_type" : "type-33",
   "size" : 56,
   "source_file" : "/external/flac/include/FLAC/format.h",
   "unique_id" : "FLAC__StreamMetadata_Picture"
  },
  {
   "alignment" : 8,
   "fields" :
   [
    {
     "field_name" : "sample_number",
     "referenced_type" : "type-15"
    },
    {
     "field_name" : "stream_offset",
     "field_offset" : 64,
     "referenced_type" : "type-15"
    },
    {
     "field_name" : "frame_samples",
     "field_offset" : 128,
     "referenced_type" : "type-3"
    }
   ],
   "linker_set_key" : "FLAC__StreamMetadata_SeekPoint",
   "name" : "FLAC__StreamMetadata_SeekPoint",
   "referenced_type" : "type-14",
   "self_type" : "type-14",
   "size" : 24,
   "source_file" : "/external/flac/include/FLAC/format.h",
   "unique_id" : "FLAC__StreamMetadata_SeekPoint"
  },
  {
   "alignment" : 8,
   "fields" :
   [
    {
     "field_name" : "num_points",
     "referenced_type" : "type-3"
    },
    {
     "field_name" : "points",
     "field_offset" : 64,
     "referenced_type" : "type-13"
    }
   ],
   "linker_set_key" : "FLAC__StreamMetadata_SeekTable",
   "name" : "FLAC__StreamMetadata_SeekTable",
   "referenced_type" : "type-12",
   "self_type" : "type-12",
   "size" : 16,
   "source_file" : "/external/flac/include/FLAC/format.h",
   "unique_id" : "FLAC__StreamMetadata_SeekTable"
  },
  {
   "alignment" : 8,
   "fields" :
   [
    {
     "field_name" : "min_blocksize",
     "referenced_type" : "type-3"
    },
    {
     "field_name" : "max_blocksize",
     "field_offset" : 32,
     "referenced_type" : "type-3"
    },
    {
     "field_name" : "min_framesize",
     "field_offset" : 64,
     "referenced_type" : "type-3"
    },
    {
     "field_name" : "max_framesize",
     "field_offset" : 96,
     "referenced_type" : "type-3"
    },
    {
     "field_name" : "sample_rate",
     "field_offset" : 128,
     "referenced_type" : "type-3"
    },
    {
     "field_name" : "channels",
     "field_offset" : 160,
     "referenced_type" : "type-3"
    },
    {
     "field_name" : "bits_per_sample",
     "field_offset" : 192,
     "referenced_type" : "type-3"
    },
    {
     "field_name" : "total_samples",
     "field_offset" : 256,
     "referenced_type" : "type-15"
    },
    {
     "field_name" : "md5sum",
     "field_offset" : 320,
     "referenced_type" : "type-58"
    }
   ],
   "linker_set_key" : "FLAC__StreamMetadata_StreamInfo",
   "name" : "FLAC__StreamMetadata_StreamInfo",
   "referenced_type" : "type-57",
   "self_type" : "type-57",
   "size" : 56,
   "source_file" : "/external/flac/include/FLAC/format.h",
   "unique_id" : "FLAC__StreamMetadata_StreamInfo"
  },
  {
   "alignment" : 8,
   "fields" :
   [
    {
     "field_name" : "data",
     "referenced_type" : "type-36"
    }
   ],
   "linker_set_key" : "FLAC__StreamMetadata_Unknown",
   "name" : "FLAC__StreamMetadata_Unknown",
   "referenced_type" : "type-65",
   "self_type" : "type-65",
   "size" : 8,
   "source_file" : "/external/flac/include/FLAC/format.h",
   "unique_id" : "FLAC__StreamMetadata_Unknown"
  },
  {
   "alignment" : 8,
   "fields" :
   [
    {
     "field_name" : "vendor_string",
     "referenced_type" : "type-63"
    },
    {
     "field_name" : "num_comments",
     "field_offset" : 128,
     "referenced_type" : "type-3"
    },
    {
     "field_name" : "comments",
     "field_offset" : 192,
     "referenced_type" : "type-64"
    }
   ],
   "linker_set_key" : "FLAC__StreamMetadata_VorbisComment",
   "name" : "FLAC__StreamMetadata_VorbisComment",
   "referenced_type" : "type-62",
   "self_type" : "type-62",
   "size" : 32,
   "source_file" : "/external/flac/include/FLAC/format.h",
   "unique_id" : "FLAC__StreamMetadata_VorbisComment"
  },
  {
   "alignment" : 8,
   "fields" :
   [
    {
     "field_name" : "length",
     "referenced_type" : "type-3"
    },
    {
     "field_name" : "entry",
     "field_offset" : 64,
     "referenced_type" : "type-36"
    }
   ],
   "linker_set_key" : "FLAC__StreamMetadata_VorbisComment_Entry",
   "name" : "FLAC__StreamMetadata_VorbisComment_Entry",
   "referenced_type" : "type-63",
   "self_type" : "type-63",
   "size" : 16,
   "source_file" : "/external/flac/include/FLAC/format.h",
   "unique_id" : "FLAC__StreamMetadata_VorbisComment_Entry"
  },
  {
   "alignment" : 8,
   "fields" :
   [
    {
     "field_name" : "type",
     "referenced_type" : "type-38"
    },
    {
     "field_name" : "data",
     "field_offset" : 64,
     "referenced_type" : "type-108"
    },
    {
     "field_name" : "wasted_bits",
     "field_offset" : 2496,
     "referenced_type" : "type-3"
    }
   ],
   "linker_set_key" : "FLAC__Subframe",
   "name" : "FLAC__Subframe",
   "referenced_type" : "type-107",
   "self_type" : "type-107",
   "size" : 320,
   "source_file" : "/external/flac/include/FLAC/format.h",
   "unique_id" : "FLAC__Subframe"
  },
  {
   "alignment" : 8,
   "fields" :
   [
    {
     "field_name" : "constant",
     "referenced_type" : "type-39"
    },
    {
     "field_name" : "fixed",
     "referenced_type" : "type-73"
    },
    {
     "field_name" : "lpc",
     "referenced_type" : "type-95"
    },
    {
     "field_name" : "verbatim",
     "referenced_type" : "type-40"
    }
   ],
   "is_anonymous" : true,
   "linker_set_key" : "FLAC__Subframe::(anonymous union at external/flac/include/FLAC/format.h:346:2) at external/flac/include/FLAC/format.h:346:2",
   "name" : "FLAC__Subframe::(anonymous union at external/flac/include/FLAC/format.h:346:2) at external/flac/include/FLAC/format.h:346:2",
   "record_kind" : "union",
   "referenced_type" : "type-108",
   "self_type" : "type-108",
   "size" : 304,
   "source_file" : "/external/flac/include/FLAC/format.h",
   "unique_id" : "FLAC__Subframe::(anonymous union at external/flac/include/FLAC/format.h:346:2)"
  },
  {
   "alignment" : 4,
   "fields" :
   [
    {
     "field_name" : "value",
     "referenced_type" : "type-1"
    }
   ],
   "linker_set_key" : "FLAC__Subframe_Constant",
   "name" : "FLAC__Subframe_Constant",
   "referenced_type" : "type-39",
   "self_type" : "type-39",
   "size" : 4,
   "source_file" : "/external/flac/include/FLAC/format.h",
   "unique_id" : "FLAC__Subframe_Constant"
  },
  {
   "alignment" : 8,
   "fields" :
   [
    {
     "field_name" : "entropy_coding_method",
     "referenced_type" : "type-8"
    },
    {
     "field_name" : "order",
     "field_offset" : 192,
     "referenced_type" : "type-3"
    },
    {
     "field_name" : "warmup",
     "field_offset" : 224,
     "referenced_type" : "type-74"
    },
    {
     "field_name" : "residual",
     "field_offset" : 384,
     "referenced_type" : "type-41"
    }
   ],
   "linker_set_key" : "FLAC__Subframe_Fixed",
   "name" : "FLAC__Subframe_Fixed",
   "referenced_type" : "type-73",
   "self_type" : "type-73",
   "size" : 56,
   "source_file" : "/external/flac/include/FLAC/format.h",
   "unique_id" : "FLAC__Subframe_Fixed"
  },
  {
   "alignment" : 8,
   "fields" :
   [
    {
     "field_name" : "entropy_coding_method",
     "referenced_type" : "type-8"
    },
    {
     "field_name" : "order",
     "field_offset" : 192,
     "referenced_type" : "type-3"
    },
    {
     "field_name" : "qlp_coeff_precision",
     "field_offset" : 224,
     "referenced_type" : "type-3"
    },
    {
     "field_name" : "quantization_level",
     "field_offset" : 256,
     "referenced_type" : "type-1"
    },
    {
     "field_name" : "qlp_coeff",
     "field_offset" : 288,
     "referenced_type" : "type-96"
    },
    {
     "field_name" : "warmup",
     "field_offset" : 1312,
     "referenced_type" : "type-96"
    },
    {
     "field_name" : "residual",
     "field_offset" : 2368,
     "referenced_type" : "type-41"
    }
   ],
   "linker_set_key" : "FLAC__Subframe_LPC",
   "name" : "FLAC__Subframe_LPC",
   "referenced_type" : "type-95",
   "self_type" : "type-95",
   "size" : 304,
   "source_file" : "/external/flac/include/FLAC/format.h",
   "unique_id" : "FLAC__Subframe_LPC"
  },
  {
   "alignment" : 8,
   "fields" :
   [
    {
     "field_name" : "data",
     "referenced_type" : "type-41"
    }
   ],
   "linker_set_key" : "FLAC__Subframe_Verbatim",
   "name" : "FLAC__Subframe_Verbatim",
   "referenced_type" : "type-40",
   "self_type" : "type-40",
   "size" : 8,
   "source_file" : "/external/flac/include/FLAC/format.h",
   "unique_id" : "FLAC__Subframe_Verbatim"
  },
  {
   "alignment" : 8,
   "fields" :
   [
    {
     "access" : "private",
     "field_name" : "mDecoder",
     "field_offset" : 64,
     "referenced_type" : "type-157"
    },
    {
     "access" : "private",
     "field_name" : "mBuffer",
     "field_offset" : 128,
     "referenced_type" : "type-36"
    },
    {
     "access" : "private",
     "field_name" : "mBufferLen",
     "field_offset" : 192,
     "referenced_type" : "type-15"
    },
    {
     "access" : "private",
     "field_name" : "mBufferPos",
     "field_offset" : 256,
     "referenced_type" : "type-15"
    },
    {
     "access" : "private",
     "field_name" : "mBufferDataSize",
     "field_offset" : 320,
     "referenced_type" : "type-15"
    },
    {
     "access" : "private",
     "field_name" : "mStreamInfo",
     "field_offset" : 384,
     "referenced_type" : "type-57"
    },
    {
     "access" : "private",
     "field_name" : "mStreamInfoValid",
     "field_offset" : 832,
     "referenced_type" : "type-158"
    },
    {
     "access" : "private",
     "field_name" : "mWriteRequested",
     "field_offset" : 840,
     "referenced_type" : "type-158"
    },
    {
     "access" : "private",
     "field_name" : "mWriteCompleted",
     "field_offset" : 848,
     "referenced_type" : "type-158"
    },
    {
     "access" : "private",
     "field_name" : "mWriteHeader",
     "field_offset" : 896,
     "referenced_type" : "type-102"
    },
    {
     "access" : "private",
     "field_name" : "mWriteBuffer",
     "field_offset" : 1216,
     "referenced_type" : "type-159"
    },
    {
     "access" : "private",
     "field_name" : "mErrorStatus",
     "field_offset" : 1728,
     "referenced_type" : "type-69"
    }
   ],
   "linker_set_key" : "android::FLACDecoder",
   "name" : "android::FLACDecoder",
   "record_kind" : "class",
   "referenced_type" : "type-156",
   "self_type" : "type-156",
   "size" : 224,
   "source_file" : "/frameworks/av/media/libstagefright/flac/dec/FLACDecoder.h",
   "unique_id" : "_ZTSN7android11FLACDecoderE",
   "vtable_components" :
   [
    {
     "kind" : "offset_to_top"
    },
    {
     "kind" : "rtti",
     "mangled_component_name" : "_ZTIN7android11FLACDecoderE"
    },
    {
     "kind" : "complete_dtor_pointer",
     "mangled_component_name" : "_ZN7android11FLACDecoderD1Ev"
    },
    {
     "kind" : "deleting_dtor_pointer",
     "mangled_component_name" : "_ZN7android11FLACDecoderD0Ev"
    }
   ]
  }
 ],
 "rvalue_reference_types" : []
}
